 VIP Linker 9.  Exe time: Tue Mar 12 14:59:14 2019
  Build time: 18:15:20 Mar  6 2019
  Module 'C:\Users\Admin\Documents\Visual Prolog Projects\Lab1_51\exe\Lab1_51.exe' Map. Wed Mar 13 11:28:28 2019

Frame 001000   Size 05C870.  Name=<   .text>, 	Chars=60000020h. [CER]
Frame 05E000   Size 054920.  Name=<  .rdata>, 	Chars=40000040h. [IR]
Frame 0B3000   Size 000B50.  Name=<  VIPini>, 	Chars=40000040h. [IR]
Frame 0B4000   Size 000010.  Name=<  VIPsym>, 	Chars=40000040h. [IR]
Frame 0B5000   Size 001800.  Name=<  VIPtpd>, 	Chars=40000040h. [IR]
Frame 0B7000   Size 001470.  Name=<  VIPtpl>, 	Chars=40000040h. [IR]
Frame 0B9000   Size 0039E0.  Name=<   .data>, 	Chars=C0000040h. [IRW]
Frame 0BD000   Size 000430.  Name=<  PRODBG>, 	Chars=40000040h. [IR]
Frame 0BE000   Size 000060.  Name=< .gcroot>, 	Chars=C0000040h. [IRW]

	--- S e g m e n t s : ---

Frame 001000   Size 05C870.  Name=<   .text>, 	Chars=60000020h. [CER]
001000:000000 05C660   .text::CODE::<no group> F=4
   001000   Module 'obj\segmented_utf16.76E668A2.obj'
   0019F0   Module 'obj\string.19AABD3B.obj'
   007480   Module 'obj\boolean.DE5055E8.obj'
   0075A0   Module 'obj\string8.355639C6.obj'
   007F10   Module 'obj\string8_api.B92F602D.obj'
   0080C0   Module 'obj\mapm_redblack.875A0474.obj'
   008990   Module 'obj\math.5D7D6037.obj'
   00A1D0   Module 'obj\exe.D80FC844.obj'
   00A500   Module 'obj\shell_api.E8D4E14B.obj'
   00A940   Module 'obj\vpidomains.E7102A6D.obj'
   00AAC0   Module 'obj\gui_api.16868AAC.obj'
   00FA90   Module 'obj\registry_api.337CB6E1.obj'
   010D90   Module 'obj\list.A75CEA31.obj'
   018DC0   Module 'obj\multithread.32507C62.obj'
   01B3B0   Module 'obj\arraym_inline.F665267A.obj'
   01C730   Module 'obj\namedvalue.6D52B2A6.obj'
   01DB90   Module 'obj\std.2DE0EC97.obj'
   01E600   Module 'obj\runtime_api.8B32D2DD.obj'
   01ECF0   Module 'obj\varm.B882E173.obj'
   020870   Module 'obj\event.D92D3A63.obj'
   024D20   Module 'obj\exceptiondump.2B9C9E40.obj'
   026140   Module 'obj\main.789E136F.obj'
   0264F0   Module 'obj\registry.917E8C91.obj'
   0272C0   Module 'obj\time.6AFD2988.obj'
   02E390   Module 'obj\memory_api.F938D1EE.obj'
   02EC70   Module 'obj\systeminformation_api.2864B3DF.obj'
   02F100   Module 'obj\segmented_binary.C16992E7.obj'
   02FB30   Module 'obj\mapmsupport.8CD6C048.obj'
   0302D0   Module 'obj\mapsupport.59C06C8E.obj'
   030A30   Module 'obj\collectionsupport.A039CC0D.obj'
   030C90   Module 'obj\modifiablesupport.5D48FFF1.obj'
   030F30   Module 'obj\redblacktree.401E21A0.obj'
   0314B0   Module 'obj\redblacktreerep.E6A269FA.obj'
   034DB0   Module 'obj\weakreference.0A1AF11C.obj'
   0350A0   Module 'obj\outputstreamsupport.6F229CFB.obj'
   0366C0   Module 'obj\segmentedsupport.2BAFE67D.obj'
   038700   Module 'obj\iterator.60C55021.obj'
   038B80   Module 'obj\binary.248EF86D.obj'
   03C630   Module 'obj\filesystem.5B0F823E.obj'
   043E40   Module 'obj\inputsupport_mode.ADC075EF.obj'
   045380   Module 'obj\setm_redblack.16EF8DC5.obj'
   045A70   Module 'obj\criticalsectionsupport.56CDFDBE.obj'
   045CB0   Module 'obj\commandlineparser.67E728BA.obj'
   047380   Module 'obj\console.E8EB4F3C.obj'
   049960   Module 'obj\core.5D9B9483.obj'
   04B3B0   Module 'obj\presenter.E6E77556.obj'
   04C8C0   Module 'obj\exception.B6F320E8.obj'
   04F800   Module 'obj\programcontrol.2B27F1CB.obj'
   04F840   Module 'obj\reflection.ACE59E5C.obj'
   051CF0   Module 'obj\stream.8B55AAA7.obj'
   052DD0   Module 'obj\segmented.E9C86B20.obj'
   053310   Module 'obj\inputstreamsupport.7AF62102.obj'
   0536E0   Module 'obj\console_api.316E7EC3.obj'
   053850   Module 'obj\exe_api.A246601B.obj'
   053DC0   Module 'obj\filesystem_api.DE0803A2.obj'
   056470   Module 'obj\memory.568C55F8.obj'
   057D20   Module 'obj\multithread_api.44799675.obj'
   058FD0   Module 'obj\time_api.0FD0D46D.obj'
   05ACD0   Module 'obj\locale_api.1E7D05A5.obj'
   05AEF0   Module 'obj\windowsapi.AA084B33.obj'
   05B170   Module 'obj\winerrors.5F2CCDFC.obj'
   05B190   Module 'obj\redblackset.DC1C3622.obj'
   05D3B0   Module 'obj\collectionmsupport.3A44ED4E.obj'
001000:05C660 000210   .text$mn::CODE::<no group> F=4
   05D660   Module '..\..\..\_intermediate\sourceVS\vipInit\Win32\ReleasePE\VIPMain.obj'
   05D6D0   Module '..\..\..\_intermediate\sourceVS\vipInit\Win32\ReleasePE\VIPDll.obj'
   05D820   Module '..\..\..\_intermediate\sourceVS\vipInit\Win32\ReleasePE\VIPPE.obj'

Frame 05E000   Size 054920.  Name=<  .rdata>, 	Chars=40000040h. [IR]
05E000:000000 000090   VIPBrow::VIPBrow::.rdata F=4
   05E000   Module 'obj\gui_api.16868AAC.obj'
   05E050   Module 'obj\memory.568C55F8.obj'
05E000:000090 0034B0   VIPTypeL::VIPTypeL::.rdata F=4
   05E090   Module 'obj\segmented_utf16.76E668A2.obj'
   05E0C0   Module 'obj\string.19AABD3B.obj'
   05E3D0   Module 'obj\mapm_redblack.875A0474.obj'
   05E3F0   Module 'obj\math.5D7D6037.obj'
   05E420   Module 'obj\exe.D80FC844.obj'
   05E430   Module 'obj\shell_api.E8D4E14B.obj'
   05E4D0   Module 'obj\vpidomains.E7102A6D.obj'
   05E670   Module 'obj\gui_api.16868AAC.obj'
   05F470   Module 'obj\registry_api.337CB6E1.obj'
   05F480   Module 'obj\list.A75CEA31.obj'
   05F550   Module 'obj\multithread.32507C62.obj'
   05F670   Module 'obj\arraym_inline.F665267A.obj'
   05F6A0   Module 'obj\std.2DE0EC97.obj'
   05F6B0   Module 'obj\varm.B882E173.obj'
   05F760   Module 'obj\event.D92D3A63.obj'
   05FCF0   Module 'obj\exceptiondump.2B9C9E40.obj'
   05FD30   Module 'obj\main.789E136F.obj'
   05FEC0   Module 'obj\registry.917E8C91.obj'
   05FEE0   Module 'obj\time.6AFD2988.obj'
   060030   Module 'obj\memory_api.F938D1EE.obj'
   060070   Module 'obj\systeminformation_api.2864B3DF.obj'
   0600D0   Module 'obj\segmented_binary.C16992E7.obj'
   0601B0   Module 'obj\mapmsupport.8CD6C048.obj'
   0601D0   Module 'obj\mapsupport.59C06C8E.obj'
   0601F0   Module 'obj\collectionsupport.A039CC0D.obj'
   060210   Module 'obj\modifiablesupport.5D48FFF1.obj'
   060230   Module 'obj\redblacktree.401E21A0.obj'
   060250   Module 'obj\redblacktreerep.E6A269FA.obj'
   060270   Module 'obj\weakreference.0A1AF11C.obj'
   060290   Module 'obj\outputstreamsupport.6F229CFB.obj'
   0602E0   Module 'obj\segmentedsupport.2BAFE67D.obj'
   060320   Module 'obj\iterator.60C55021.obj'
   060360   Module 'obj\binary.248EF86D.obj'
   060370   Module 'obj\filesystem.5B0F823E.obj'
   0604C0   Module 'obj\inputsupport_mode.ADC075EF.obj'
   0604D0   Module 'obj\setm_redblack.16EF8DC5.obj'
   0604F0   Module 'obj\criticalsectionsupport.56CDFDBE.obj'
   060500   Module 'obj\commandlineparser.67E728BA.obj'
   0605B0   Module 'obj\console.E8EB4F3C.obj'
   0605F0   Module 'obj\core.5D9B9483.obj'
   060C30   Module 'obj\presenter.E6E77556.obj'
   060D50   Module 'obj\exception.B6F320E8.obj'
   060DF0   Module 'obj\programcontrol.2B27F1CB.obj'
   060E10   Module 'obj\reflection.ACE59E5C.obj'
   060F50   Module 'obj\stream.8B55AAA7.obj'
   060F90   Module 'obj\segmented.E9C86B20.obj'
   060FC0   Module 'obj\inputstreamsupport.7AF62102.obj'
   060FD0   Module 'obj\console_api.316E7EC3.obj'
   061040   Module 'obj\exe_api.A246601B.obj'
   061060   Module 'obj\filesystem_api.DE0803A2.obj'
   061180   Module 'obj\memory.568C55F8.obj'
   061330   Module 'obj\multithread_api.44799675.obj'
   0613F0   Module 'obj\time_api.0FD0D46D.obj'
   061490   Module 'obj\locale_api.1E7D05A5.obj'
   0614E0   Module 'obj\windowsapi.AA084B33.obj'
   061510   Module 'obj\redblackset.DC1C3622.obj'
   061530   Module 'obj\collectionmsupport.3A44ED4E.obj'
05E000:003540 006A00   VIPConst::VIPConst::.rdata F=4
   061540   Module 'obj\string.19AABD3B.obj'
   061740   Module 'obj\math.5D7D6037.obj'
   061AA0   Module 'obj\gui_api.16868AAC.obj'
   063C80   Module 'obj\arraym_inline.F665267A.obj'
   063CA0   Module 'obj\namedvalue.6D52B2A6.obj'
   063D30   Module 'obj\registry.917E8C91.obj'
   063ED0   Module 'obj\time.6AFD2988.obj'
   064090   Module 'obj\binary.248EF86D.obj'
   064250   Module 'obj\filesystem.5B0F823E.obj'
   0644C0   Module 'obj\exception.B6F320E8.obj'
   067940   Module 'obj\stream.8B55AAA7.obj'
   067C40   Module 'obj\filesystem_api.DE0803A2.obj'
   067DF0   Module 'obj\time_api.0FD0D46D.obj'
05E000:009F40 006110   VIPInter::VIPInter::.rdata F=4
   067F40   Module 'obj\segmented_utf16.76E668A2.obj'
   068020   Module 'obj\string.19AABD3B.obj'
   06A500   Module 'obj\collection.A520841C.obj'
   06AD70   Module 'obj\shell_api.E8D4E14B.obj'
   06AE70   Module 'obj\vpidomains.E7102A6D.obj'
   06B130   Module 'obj\multithread.32507C62.obj'
   06B940   Module 'obj\arraym_inline.F665267A.obj'
   06C440   Module 'obj\varm.B882E173.obj'
   06C530   Module 'obj\main.789E136F.obj'
   06C620   Module 'obj\time.6AFD2988.obj'
   06CB00   Module 'obj\segmented_binary.C16992E7.obj'
   06DA50   Module 'obj\filesystem.5B0F823E.obj'
   06DC70   Module 'obj\setm_redblack.16EF8DC5.obj'
   06DF80   Module 'obj\core.5D9B9483.obj'
05E000:010050 02A2C0   VIPClass::VIPClass::.rdata F=4
   06E050   Module 'obj\segmented_utf16.76E668A2.obj'
   06E200   Module 'obj\hash_api.96B8CAEE.obj'
   06E2A0   Module 'obj\string.19AABD3B.obj'
   06F880   Module 'obj\boolean.DE5055E8.obj'
   06F8F0   Module 'obj\string8.355639C6.obj'
   06F960   Module 'obj\string8_api.B92F602D.obj'
   06FAB0   Module 'obj\mapm_redblack.875A0474.obj'
   0704C0   Module 'obj\math.5D7D6037.obj'
   070660   Module 'obj\exe.D80FC844.obj'
   070790   Module 'obj\shell_api.E8D4E14B.obj'
   0711B0   Module 'obj\vpidomains.E7102A6D.obj'
   073010   Module 'obj\gui_api.16868AAC.obj'
   07B330   Module 'obj\registry_api.337CB6E1.obj'
   07B500   Module 'obj\list.A75CEA31.obj'
   07BB80   Module 'obj\multithread.32507C62.obj'
   07D0B0   Module 'obj\arraym_inline.F665267A.obj'
   07DC60   Module 'obj\namedvalue.6D52B2A6.obj'
   07DCE0   Module 'obj\std.2DE0EC97.obj'
   07DDB0   Module 'obj\runtime_api.8B32D2DD.obj'
   07DE50   Module 'obj\varm.B882E173.obj'
   07F030   Module 'obj\event.D92D3A63.obj'
   0837A0   Module 'obj\exceptiondump.2B9C9E40.obj'
   083850   Module 'obj\main.789E136F.obj'
   083EA0   Module 'obj\registry.917E8C91.obj'
   0841B0   Module 'obj\time.6AFD2988.obj'
   084F60   Module 'obj\memory_api.F938D1EE.obj'
   085380   Module 'obj\systeminformation_api.2864B3DF.obj'
   085AC0   Module 'obj\segmented_binary.C16992E7.obj'
   085C70   Module 'obj\mapmsupport.8CD6C048.obj'
   086300   Module 'obj\mapsupport.59C06C8E.obj'
   086680   Module 'obj\collectionsupport.A039CC0D.obj'
   0868F0   Module 'obj\modifiablesupport.5D48FFF1.obj'
   086B70   Module 'obj\redblacktree.401E21A0.obj'
   086D70   Module 'obj\redblacktreerep.E6A269FA.obj'
   087100   Module 'obj\weakreference.0A1AF11C.obj'
   087330   Module 'obj\outputstreamsupport.6F229CFB.obj'
   087ED0   Module 'obj\segmentedsupport.2BAFE67D.obj'
   088470   Module 'obj\iterator.60C55021.obj'
   088770   Module 'obj\string_api.EE567466.obj'
   088820   Module 'obj\binary.248EF86D.obj'
   089660   Module 'obj\filesystem.5B0F823E.obj'
   08B000   Module 'obj\inputsupport_mode.ADC075EF.obj'
   08B7A0   Module 'obj\setm_redblack.16EF8DC5.obj'
   08BE70   Module 'obj\criticalsectionsupport.56CDFDBE.obj'
   08C030   Module 'obj\commandlineparser.67E728BA.obj'
   08C7E0   Module 'obj\console.E8EB4F3C.obj'
   08D810   Module 'obj\core.5D9B9483.obj'
   090D50   Module 'obj\presenter.E6E77556.obj'
   091840   Module 'obj\exception.B6F320E8.obj'
   092160   Module 'obj\programcontrol.2B27F1CB.obj'
   0922A0   Module 'obj\reflection.ACE59E5C.obj'
   093320   Module 'obj\stream.8B55AAA7.obj'
   093A70   Module 'obj\segmented.E9C86B20.obj'
   093D00   Module 'obj\inputstreamsupport.7AF62102.obj'
   093F50   Module 'obj\console_api.316E7EC3.obj'
   094480   Module 'obj\exe_api.A246601B.obj'
   0946F0   Module 'obj\filesystem_api.DE0803A2.obj'
   095B80   Module 'obj\memory.568C55F8.obj'
   0966C0   Module 'obj\multithread_api.44799675.obj'
   096EA0   Module 'obj\time_api.0FD0D46D.obj'
   097580   Module 'obj\locale_api.1E7D05A5.obj'
   097900   Module 'obj\windowsapi.AA084B33.obj'
   097B30   Module 'obj\winerrors.5F2CCDFC.obj'
   097BC0   Module 'obj\redblackset.DC1C3622.obj'
   097EC0   Module 'obj\collectionmsupport.3A44ED4E.obj'
05E000:03A310 01A608   .rdata::.rdata::.rdata F=4
   098310   Module 'obj\segmented_utf16.76E668A2.obj'
   098520   Module 'obj\hash_api.96B8CAEE.obj'
   0985C0   Module 'obj\string.19AABD3B.obj'
   099380   Module 'obj\boolean.DE5055E8.obj'
   099410   Module 'obj\string8.355639C6.obj'
   099500   Module 'obj\string8_api.B92F602D.obj'
   099720   Module 'obj\collection.A520841C.obj'
   0997C0   Module 'obj\mapm_redblack.875A0474.obj'
   099930   Module 'obj\math.5D7D6037.obj'
   099C60   Module 'obj\exe.D80FC844.obj'
   09A030   Module 'obj\shell_api.E8D4E14B.obj'
   09ACA0   Module 'obj\vpidomains.E7102A6D.obj'
   09B350   Module 'obj\gui_api.16868AAC.obj'
   09FC90   Module 'obj\registry_api.337CB6E1.obj'
   0A0410   Module 'obj\list.A75CEA31.obj'
   0A08F0   Module 'obj\multithread.32507C62.obj'
   0A1020   Module 'obj\arraym_inline.F665267A.obj'
   0A1450   Module 'obj\namedvalue.6D52B2A6.obj'
   0A1830   Module 'obj\std.2DE0EC97.obj'
   0A18B0   Module 'obj\runtime_api.8B32D2DD.obj'
   0A1D00   Module 'obj\varm.B882E173.obj'
   0A1E50   Module 'obj\event.D92D3A63.obj'
   0A21B0   Module 'obj\exceptiondump.2B9C9E40.obj'
   0A25F0   Module 'obj\main.789E136F.obj'
   0A2A90   Module 'obj\registry.917E8C91.obj'
   0A2D20   Module 'obj\time.6AFD2988.obj'
   0A3800   Module 'obj\memory_api.F938D1EE.obj'
   0A4050   Module 'obj\systeminformation_api.2864B3DF.obj'
   0A4770   Module 'obj\segmented_binary.C16992E7.obj'
   0A4FB0   Module 'obj\mapmsupport.8CD6C048.obj'
   0A50E0   Module 'obj\mapsupport.59C06C8E.obj'
   0A5270   Module 'obj\collectionsupport.A039CC0D.obj'
   0A5350   Module 'obj\modifiablesupport.5D48FFF1.obj'
   0A5430   Module 'obj\redblacktree.401E21A0.obj'
   0A5840   Module 'obj\redblacktreerep.E6A269FA.obj'
   0A5B20   Module 'obj\weakreference.0A1AF11C.obj'
   0A5BD0   Module 'obj\outputstreamsupport.6F229CFB.obj'
   0A60D0   Module 'obj\segmentedsupport.2BAFE67D.obj'
   0A6820   Module 'obj\iterator.60C55021.obj'
   0A6B90   Module 'obj\string_api.EE567466.obj'
   0A6C40   Module 'obj\binary.248EF86D.obj'
   0A7150   Module 'obj\filesystem.5B0F823E.obj'
   0A8800   Module 'obj\inputsupport_mode.ADC075EF.obj'
   0A89C0   Module 'obj\setm_redblack.16EF8DC5.obj'
   0A8A80   Module 'obj\criticalsectionsupport.56CDFDBE.obj'
   0A8B60   Module 'obj\commandlineparser.67E728BA.obj'
   0A9330   Module 'obj\console.E8EB4F3C.obj'
   0A9C60   Module 'obj\core.5D9B9483.obj'
   0ABD70   Module 'obj\presenter.E6E77556.obj'
   0AC3B0   Module 'obj\exception.B6F320E8.obj'
   0ACAB0   Module 'obj\programcontrol.2B27F1CB.obj'
   0ACB90   Module 'obj\typelibrary.6EC19AA0.obj'
   0ACC40   Module 'obj\reflection.ACE59E5C.obj'
   0AD680   Module 'obj\stream.8B55AAA7.obj'
   0ADE10   Module 'obj\segmented.E9C86B20.obj'
   0ADEF0   Module 'obj\inputstreamsupport.7AF62102.obj'
   0AE460   Module 'obj\console_api.316E7EC3.obj'
   0AE8C0   Module 'obj\exe_api.A246601B.obj'
   0AEAD0   Module 'obj\filesystem_api.DE0803A2.obj'
   0AFC30   Module 'obj\memory.568C55F8.obj'
   0AFDD0   Module 'obj\multithread_api.44799675.obj'
   0B0C60   Module 'obj\time_api.0FD0D46D.obj'
   0B15A0   Module 'obj\locale_api.1E7D05A5.obj'
   0B1B80   Module 'obj\windowsapi.AA084B33.obj'
   0B1E50   Module 'obj\winerrors.5F2CCDFC.obj'
   0B1F00   Module 'obj\redblackset.DC1C3622.obj'
   0B2450   Module 'obj\collectionmsupport.3A44ED4E.obj'
   0B2860   Module '..\..\..\_intermediate\sourceVS\vipInit\Win32\ReleasePE\VIPPE.obj'

Frame 0B3000   Size 000B50.  Name=<  VIPini>, 	Chars=40000040h. [IR]
0B3000:000000 000004   VIPini$A::VIPini$A::VIPini F=4
   0B3000   Module 'obj\main.789E136F.obj'
0B3000:000004 00038C   VIPini$C::VIPini$C::VIPini F=4
   0B3004   Module 'obj\segmented_utf16.76E668A2.obj'
   0B300C   Module 'obj\hash_api.96B8CAEE.obj'
   0B3010   Module 'obj\string.19AABD3B.obj'
   0B3094   Module 'obj\boolean.DE5055E8.obj'
   0B3098   Module 'obj\string8.355639C6.obj'
   0B309C   Module 'obj\string8_api.B92F602D.obj'
   0B30A4   Module 'obj\collection.A520841C.obj'
   0B30D4   Module 'obj\mapm_redblack.875A0474.obj'
   0B30D8   Module 'obj\math.5D7D6037.obj'
   0B30E0   Module 'obj\exe.D80FC844.obj'
   0B30E4   Module 'obj\shell_api.E8D4E14B.obj'
   0B30F0   Module 'obj\vpidomains.E7102A6D.obj'
   0B3104   Module 'obj\gui_api.16868AAC.obj'
   0B310C   Module 'obj\registry_api.337CB6E1.obj'
   0B3114   Module 'obj\list.A75CEA31.obj'
   0B3118   Module 'obj\multithread.32507C62.obj'
   0B3164   Module 'obj\arraym_inline.F665267A.obj'
   0B3188   Module 'obj\namedvalue.6D52B2A6.obj'
   0B318C   Module 'obj\std.2DE0EC97.obj'
   0B3190   Module 'obj\runtime_api.8B32D2DD.obj'
   0B3194   Module 'obj\varm.B882E173.obj'
   0B31B4   Module 'obj\event.D92D3A63.obj'
   0B31D4   Module 'obj\exceptiondump.2B9C9E40.obj'
   0B31D8   Module 'obj\main.789E136F.obj'
   0B31E8   Module 'obj\registry.917E8C91.obj'
   0B31F0   Module 'obj\time.6AFD2988.obj'
   0B3220   Module 'obj\memory_api.F938D1EE.obj'
   0B3228   Module 'obj\systeminformation_api.2864B3DF.obj'
   0B3230   Module 'obj\segmented_binary.C16992E7.obj'
   0B326C   Module 'obj\mapmsupport.8CD6C048.obj'
   0B3270   Module 'obj\mapsupport.59C06C8E.obj'
   0B3274   Module 'obj\collectionsupport.A039CC0D.obj'
   0B3278   Module 'obj\modifiablesupport.5D48FFF1.obj'
   0B327C   Module 'obj\redblacktree.401E21A0.obj'
   0B3280   Module 'obj\redblacktreerep.E6A269FA.obj'
   0B3284   Module 'obj\weakreference.0A1AF11C.obj'
   0B3288   Module 'obj\outputstreamsupport.6F229CFB.obj'
   0B3290   Module 'obj\segmentedsupport.2BAFE67D.obj'
   0B3298   Module 'obj\iterator.60C55021.obj'
   0B329C   Module 'obj\string_api.EE567466.obj'
   0B32A0   Module 'obj\binary.248EF86D.obj'
   0B32B0   Module 'obj\filesystem.5B0F823E.obj'
   0B32D8   Module 'obj\inputsupport_mode.ADC075EF.obj'
   0B32DC   Module 'obj\setm_redblack.16EF8DC5.obj'
   0B32E8   Module 'obj\criticalsectionsupport.56CDFDBE.obj'
   0B32EC   Module 'obj\commandlineparser.67E728BA.obj'
   0B32F0   Module 'obj\console.E8EB4F3C.obj'
   0B32FC   Module 'obj\core.5D9B9483.obj'
   0B3304   Module 'obj\presenter.E6E77556.obj'
   0B3308   Module 'obj\exception.B6F320E8.obj'
   0B3318   Module 'obj\programcontrol.2B27F1CB.obj'
   0B331C   Module 'obj\typelibrary.6EC19AA0.obj'
   0B331C   Module 'obj\reflection.ACE59E5C.obj'
   0B3324   Module 'obj\stream.8B55AAA7.obj'
   0B333C   Module 'obj\segmented.E9C86B20.obj'
   0B3340   Module 'obj\inputstreamsupport.7AF62102.obj'
   0B3344   Module 'obj\console_api.316E7EC3.obj'
   0B334C   Module 'obj\exe_api.A246601B.obj'
   0B3354   Module 'obj\filesystem_api.DE0803A2.obj'
   0B3360   Module 'obj\memory.568C55F8.obj'
   0B3368   Module 'obj\multithread_api.44799675.obj'
   0B3370   Module 'obj\time_api.0FD0D46D.obj'
   0B3378   Module 'obj\locale_api.1E7D05A5.obj'
   0B3380   Module 'obj\windowsapi.AA084B33.obj'
   0B3384   Module 'obj\winerrors.5F2CCDFC.obj'
   0B3388   Module 'obj\redblackset.DC1C3622.obj'
   0B338C   Module 'obj\collectionmsupport.3A44ED4E.obj'
0B3000:000390 000008   VIPini$E::VIPini$E::VIPini F=4
   0B3390   Module 'obj\main.789E136F.obj'

Frame 0B4000   Size 000010.  Name=<  VIPsym>, 	Chars=40000040h. [IR]
0B4000:000000 000004   VIPsym$A::VIPsym$A::VIPsym F=4
   0B4000   Module 'obj\main.789E136F.obj'
0B4000:000004 000000   VIPsym$C::VIPsym$C::VIPsym F=4
   0B4004   Module 'obj\segmented_utf16.76E668A2.obj'
   0B4004   Module 'obj\hash_api.96B8CAEE.obj'
   0B4004   Module 'obj\string.19AABD3B.obj'
   0B4004   Module 'obj\boolean.DE5055E8.obj'
   0B4004   Module 'obj\string8.355639C6.obj'
   0B4004   Module 'obj\string8_api.B92F602D.obj'
   0B4004   Module 'obj\collection.A520841C.obj'
   0B4004   Module 'obj\mapm_redblack.875A0474.obj'
   0B4004   Module 'obj\math.5D7D6037.obj'
   0B4004   Module 'obj\exe.D80FC844.obj'
   0B4004   Module 'obj\shell_api.E8D4E14B.obj'
   0B4004   Module 'obj\vpidomains.E7102A6D.obj'
   0B4004   Module 'obj\gui_api.16868AAC.obj'
   0B4004   Module 'obj\registry_api.337CB6E1.obj'
   0B4004   Module 'obj\list.A75CEA31.obj'
   0B4004   Module 'obj\multithread.32507C62.obj'
   0B4004   Module 'obj\arraym_inline.F665267A.obj'
   0B4004   Module 'obj\namedvalue.6D52B2A6.obj'
   0B4004   Module 'obj\std.2DE0EC97.obj'
   0B4004   Module 'obj\runtime_api.8B32D2DD.obj'
   0B4004   Module 'obj\varm.B882E173.obj'
   0B4004   Module 'obj\event.D92D3A63.obj'
   0B4004   Module 'obj\exceptiondump.2B9C9E40.obj'
   0B4004   Module 'obj\main.789E136F.obj'
   0B4004   Module 'obj\registry.917E8C91.obj'
   0B4004   Module 'obj\time.6AFD2988.obj'
   0B4004   Module 'obj\memory_api.F938D1EE.obj'
   0B4004   Module 'obj\systeminformation_api.2864B3DF.obj'
   0B4004   Module 'obj\segmented_binary.C16992E7.obj'
   0B4004   Module 'obj\mapmsupport.8CD6C048.obj'
   0B4004   Module 'obj\mapsupport.59C06C8E.obj'
   0B4004   Module 'obj\collectionsupport.A039CC0D.obj'
   0B4004   Module 'obj\modifiablesupport.5D48FFF1.obj'
   0B4004   Module 'obj\redblacktree.401E21A0.obj'
   0B4004   Module 'obj\redblacktreerep.E6A269FA.obj'
   0B4004   Module 'obj\weakreference.0A1AF11C.obj'
   0B4004   Module 'obj\outputstreamsupport.6F229CFB.obj'
   0B4004   Module 'obj\segmentedsupport.2BAFE67D.obj'
   0B4004   Module 'obj\iterator.60C55021.obj'
   0B4004   Module 'obj\string_api.EE567466.obj'
   0B4004   Module 'obj\binary.248EF86D.obj'
   0B4004   Module 'obj\filesystem.5B0F823E.obj'
   0B4004   Module 'obj\inputsupport_mode.ADC075EF.obj'
   0B4004   Module 'obj\setm_redblack.16EF8DC5.obj'
   0B4004   Module 'obj\criticalsectionsupport.56CDFDBE.obj'
   0B4004   Module 'obj\commandlineparser.67E728BA.obj'
   0B4004   Module 'obj\console.E8EB4F3C.obj'
   0B4004   Module 'obj\core.5D9B9483.obj'
   0B4004   Module 'obj\presenter.E6E77556.obj'
   0B4004   Module 'obj\exception.B6F320E8.obj'
   0B4004   Module 'obj\programcontrol.2B27F1CB.obj'
   0B4004   Module 'obj\typelibrary.6EC19AA0.obj'
   0B4004   Module 'obj\reflection.ACE59E5C.obj'
   0B4004   Module 'obj\stream.8B55AAA7.obj'
   0B4004   Module 'obj\segmented.E9C86B20.obj'
   0B4004   Module 'obj\inputstreamsupport.7AF62102.obj'
   0B4004   Module 'obj\console_api.316E7EC3.obj'
   0B4004   Module 'obj\exe_api.A246601B.obj'
   0B4004   Module 'obj\filesystem_api.DE0803A2.obj'
   0B4004   Module 'obj\memory.568C55F8.obj'
   0B4004   Module 'obj\multithread_api.44799675.obj'
   0B4004   Module 'obj\time_api.0FD0D46D.obj'
   0B4004   Module 'obj\locale_api.1E7D05A5.obj'
   0B4004   Module 'obj\windowsapi.AA084B33.obj'
   0B4004   Module 'obj\winerrors.5F2CCDFC.obj'
   0B4004   Module 'obj\redblackset.DC1C3622.obj'
   0B4004   Module 'obj\collectionmsupport.3A44ED4E.obj'
0B4000:000004 000008   VIPsym$E::VIPsym$E::VIPsym F=4
   0B4004   Module 'obj\main.789E136F.obj'

Frame 0B5000   Size 001800.  Name=<  VIPtpd>, 	Chars=40000040h. [IR]
0B5000:000000 000004   VIPtpd$A::VIPtpd$A::VIPtpd F=4
   0B5000   Module 'obj\main.789E136F.obj'
0B5000:000004 0017EC   VIPtpd$C::VIPtpd$C::VIPtpd F=4
   0B5004   Module 'obj\segmented_utf16.76E668A2.obj'
   0B500C   Module 'obj\hash_api.96B8CAEE.obj'
   0B500C   Module 'obj\string.19AABD3B.obj'
   0B50E4   Module 'obj\boolean.DE5055E8.obj'
   0B50E4   Module 'obj\string8.355639C6.obj'
   0B50E4   Module 'obj\string8_api.B92F602D.obj'
   0B50E4   Module 'obj\collection.A520841C.obj'
   0B5114   Module 'obj\mapm_redblack.875A0474.obj'
   0B511C   Module 'obj\math.5D7D6037.obj'
   0B5128   Module 'obj\exe.D80FC844.obj'
   0B51B4   Module 'obj\shell_api.E8D4E14B.obj'
   0B5224   Module 'obj\vpidomains.E7102A6D.obj'
   0B528C   Module 'obj\gui_api.16868AAC.obj'
   0B5650   Module 'obj\registry_api.337CB6E1.obj'
   0B56E0   Module 'obj\list.A75CEA31.obj'
   0B5740   Module 'obj\multithread.32507C62.obj'
   0B5788   Module 'obj\arraym_inline.F665267A.obj'
   0B57B8   Module 'obj\namedvalue.6D52B2A6.obj'
   0B57B8   Module 'obj\std.2DE0EC97.obj'
   0B57BC   Module 'obj\runtime_api.8B32D2DD.obj'
   0B57C4   Module 'obj\varm.B882E173.obj'
   0B57F4   Module 'obj\event.D92D3A63.obj'
   0B5958   Module 'obj\exceptiondump.2B9C9E40.obj'
   0B5958   Module 'obj\main.789E136F.obj'
   0B5A44   Module 'obj\registry.917E8C91.obj'
   0B5A4C   Module 'obj\time.6AFD2988.obj'
   0B5A98   Module 'obj\memory_api.F938D1EE.obj'
   0B5AA8   Module 'obj\systeminformation_api.2864B3DF.obj'
   0B5ACC   Module 'obj\segmented_binary.C16992E7.obj'
   0B5BBC   Module 'obj\mapmsupport.8CD6C048.obj'
   0B5BD4   Module 'obj\mapsupport.59C06C8E.obj'
   0B5BDC   Module 'obj\collectionsupport.A039CC0D.obj'
   0B5BE4   Module 'obj\modifiablesupport.5D48FFF1.obj'
   0B5BEC   Module 'obj\redblacktree.401E21A0.obj'
   0B5C7C   Module 'obj\redblacktreerep.E6A269FA.obj'
   0B5C8C   Module 'obj\weakreference.0A1AF11C.obj'
   0B5C98   Module 'obj\outputstreamsupport.6F229CFB.obj'
   0B5CAC   Module 'obj\segmentedsupport.2BAFE67D.obj'
   0B5D14   Module 'obj\iterator.60C55021.obj'
   0B5D80   Module 'obj\string_api.EE567466.obj'
   0B5D9C   Module 'obj\binary.248EF86D.obj'
   0B5DBC   Module 'obj\filesystem.5B0F823E.obj'
   0B5EC0   Module 'obj\inputsupport_mode.ADC075EF.obj'
   0B5ECC   Module 'obj\setm_redblack.16EF8DC5.obj'
   0B5F1C   Module 'obj\criticalsectionsupport.56CDFDBE.obj'
   0B5F7C   Module 'obj\commandlineparser.67E728BA.obj'
   0B605C   Module 'obj\console.E8EB4F3C.obj'
   0B6088   Module 'obj\core.5D9B9483.obj'
   0B626C   Module 'obj\presenter.E6E77556.obj'
   0B6304   Module 'obj\exception.B6F320E8.obj'
   0B634C   Module 'obj\programcontrol.2B27F1CB.obj'
   0B6354   Module 'obj\typelibrary.6EC19AA0.obj'
   0B6354   Module 'obj\reflection.ACE59E5C.obj'
   0B6394   Module 'obj\stream.8B55AAA7.obj'
   0B63A4   Module 'obj\segmented.E9C86B20.obj'
   0B63B0   Module 'obj\inputstreamsupport.7AF62102.obj'
   0B6454   Module 'obj\console_api.316E7EC3.obj'
   0B6470   Module 'obj\exe_api.A246601B.obj'
   0B6480   Module 'obj\filesystem_api.DE0803A2.obj'
   0B64D0   Module 'obj\memory.568C55F8.obj'
   0B6540   Module 'obj\multithread_api.44799675.obj'
   0B6570   Module 'obj\time_api.0FD0D46D.obj'
   0B65E4   Module 'obj\locale_api.1E7D05A5.obj'
   0B6680   Module 'obj\windowsapi.AA084B33.obj'
   0B668C   Module 'obj\winerrors.5F2CCDFC.obj'
   0B668C   Module 'obj\redblackset.DC1C3622.obj'
   0B6720   Module 'obj\collectionmsupport.3A44ED4E.obj'
0B5000:0017F0 000008   VIPtpd$E::VIPtpd$E::VIPtpd F=4
   0B67F0   Module 'obj\main.789E136F.obj'

Frame 0B7000   Size 001470.  Name=<  VIPtpl>, 	Chars=40000040h. [IR]
0B7000:000000 000004   VIPtpl$A::VIPtpl$A::VIPtpl F=4
   0B7000   Module 'obj\main.789E136F.obj'
0B7000:000004 001460   VIPtpl$C::VIPtpl$C::VIPtpl F=4
   0B7004   Module 'obj\segmented_utf16.76E668A2.obj'
   0B7010   Module 'obj\hash_api.96B8CAEE.obj'
   0B7010   Module 'obj\string.19AABD3B.obj'
   0B70D8   Module 'obj\boolean.DE5055E8.obj'
   0B70D8   Module 'obj\string8.355639C6.obj'
   0B70D8   Module 'obj\string8_api.B92F602D.obj'
   0B70D8   Module 'obj\collection.A520841C.obj'
   0B70D8   Module 'obj\mapm_redblack.875A0474.obj'
   0B70E0   Module 'obj\math.5D7D6037.obj'
   0B70EC   Module 'obj\exe.D80FC844.obj'
   0B7174   Module 'obj\shell_api.E8D4E14B.obj'
   0B719C   Module 'obj\vpidomains.E7102A6D.obj'
   0B7204   Module 'obj\gui_api.16868AAC.obj'
   0B7580   Module 'obj\registry_api.337CB6E1.obj'
   0B760C   Module 'obj\list.A75CEA31.obj'
   0B7640   Module 'obj\multithread.32507C62.obj'
   0B7688   Module 'obj\arraym_inline.F665267A.obj'
   0B7694   Module 'obj\namedvalue.6D52B2A6.obj'
   0B7694   Module 'obj\std.2DE0EC97.obj'
   0B7698   Module 'obj\runtime_api.8B32D2DD.obj'
   0B76A0   Module 'obj\varm.B882E173.obj'
   0B76CC   Module 'obj\event.D92D3A63.obj'
   0B7830   Module 'obj\exceptiondump.2B9C9E40.obj'
   0B7840   Module 'obj\main.789E136F.obj'
   0B7924   Module 'obj\registry.917E8C91.obj'
   0B7930   Module 'obj\time.6AFD2988.obj'
   0B7984   Module 'obj\memory_api.F938D1EE.obj'
   0B7994   Module 'obj\systeminformation_api.2864B3DF.obj'
   0B79B4   Module 'obj\segmented_binary.C16992E7.obj'
   0B7A70   Module 'obj\mapmsupport.8CD6C048.obj'
   0B7A78   Module 'obj\mapsupport.59C06C8E.obj'
   0B7A80   Module 'obj\collectionsupport.A039CC0D.obj'
   0B7A88   Module 'obj\modifiablesupport.5D48FFF1.obj'
   0B7A90   Module 'obj\redblacktree.401E21A0.obj'
   0B7B18   Module 'obj\redblacktreerep.E6A269FA.obj'
   0B7B20   Module 'obj\weakreference.0A1AF11C.obj'
   0B7B28   Module 'obj\outputstreamsupport.6F229CFB.obj'
   0B7B3C   Module 'obj\segmentedsupport.2BAFE67D.obj'
   0B7B7C   Module 'obj\iterator.60C55021.obj'
   0B7BBC   Module 'obj\string_api.EE567466.obj'
   0B7BC8   Module 'obj\binary.248EF86D.obj'
   0B7BDC   Module 'obj\filesystem.5B0F823E.obj'
   0B7CCC   Module 'obj\inputsupport_mode.ADC075EF.obj'
   0B7CD8   Module 'obj\setm_redblack.16EF8DC5.obj'
   0B7CE0   Module 'obj\criticalsectionsupport.56CDFDBE.obj'
   0B7D0C   Module 'obj\commandlineparser.67E728BA.obj'
   0B7DC4   Module 'obj\console.E8EB4F3C.obj'
   0B7DE0   Module 'obj\core.5D9B9483.obj'
   0B7F94   Module 'obj\presenter.E6E77556.obj'
   0B800C   Module 'obj\exception.B6F320E8.obj'
   0B805C   Module 'obj\programcontrol.2B27F1CB.obj'
   0B8064   Module 'obj\typelibrary.6EC19AA0.obj'
   0B8064   Module 'obj\reflection.ACE59E5C.obj'
   0B80B4   Module 'obj\stream.8B55AAA7.obj'
   0B80C4   Module 'obj\segmented.E9C86B20.obj'
   0B80D0   Module 'obj\inputstreamsupport.7AF62102.obj'
   0B8160   Module 'obj\console_api.316E7EC3.obj'
   0B817C   Module 'obj\exe_api.A246601B.obj'
   0B818C   Module 'obj\filesystem_api.DE0803A2.obj'
   0B81D4   Module 'obj\memory.568C55F8.obj'
   0B8240   Module 'obj\multithread_api.44799675.obj'
   0B8270   Module 'obj\time_api.0FD0D46D.obj'
   0B82B4   Module 'obj\locale_api.1E7D05A5.obj'
   0B834C   Module 'obj\windowsapi.AA084B33.obj'
   0B8358   Module 'obj\winerrors.5F2CCDFC.obj'
   0B8358   Module 'obj\redblackset.DC1C3622.obj'
   0B83E0   Module 'obj\collectionmsupport.3A44ED4E.obj'
0B7000:001464 000008   VIPtpl$E::VIPtpl$E::VIPtpl F=4
   0B8464   Module 'obj\main.789E136F.obj'

Frame 0B9000   Size 0039E0.  Name=<   .data>, 	Chars=C0000040h. [IRW]
0B9000:000000 0006F0   VIPPresD::DATA::DGROUP F=4
   0B9000   Module 'obj\segmented_utf16.76E668A2.obj'
   0B9010   Module 'obj\string.19AABD3B.obj'
   0B9290   Module 'obj\collection.A520841C.obj'
   0B9350   Module 'obj\shell_api.E8D4E14B.obj'
   0B9360   Module 'obj\vpidomains.E7102A6D.obj'
   0B9390   Module 'obj\multithread.32507C62.obj'
   0B9430   Module 'obj\arraym_inline.F665267A.obj'
   0B94B0   Module 'obj\varm.B882E173.obj'
   0B94C0   Module 'obj\main.789E136F.obj'
   0B94D0   Module 'obj\time.6AFD2988.obj'
   0B9540   Module 'obj\segmented_binary.C16992E7.obj'
   0B96A0   Module 'obj\filesystem.5B0F823E.obj'
   0B96C0   Module 'obj\setm_redblack.16EF8DC5.obj'
   0B96E0   Module 'obj\core.5D9B9483.obj'
0B9000:0006F0 0032E0   .data::DATA::DGROUP F=4
   0B96F0   Module 'obj\segmented_utf16.76E668A2.obj'
   0B9708   Module 'obj\string.19AABD3B.obj'
   0B97E8   Module 'obj\mapm_redblack.875A0474.obj'
   0B9810   Module 'obj\math.5D7D6037.obj'
   0B9840   Module 'obj\exe.D80FC844.obj'
   0B9854   Module 'obj\shell_api.E8D4E14B.obj'
   0B9944   Module 'obj\vpidomains.E7102A6D.obj'
   0B9AB4   Module 'obj\gui_api.16868AAC.obj'
   0BA8F4   Module 'obj\registry_api.337CB6E1.obj'
   0BA904   Module 'obj\list.A75CEA31.obj'
   0BA9C4   Module 'obj\multithread.32507C62.obj'
   0BAA7C   Module 'obj\arraym_inline.F665267A.obj'
   0BAAB8   Module 'obj\std.2DE0EC97.obj'
   0BAAC8   Module 'obj\varm.B882E173.obj'
   0BABB0   Module 'obj\event.D92D3A63.obj'
   0BB180   Module 'obj\main.789E136F.obj'
   0BB310   Module 'obj\registry.917E8C91.obj'
   0BB330   Module 'obj\time.6AFD2988.obj'
   0BB410   Module 'obj\memory_api.F938D1EE.obj'
   0BB450   Module 'obj\systeminformation_api.2864B3DF.obj'
   0BB4C4   Module 'obj\segmented_binary.C16992E7.obj'
   0BB4DC   Module 'obj\mapmsupport.8CD6C048.obj'
   0BB504   Module 'obj\mapsupport.59C06C8E.obj'
   0BB52C   Module 'obj\collectionsupport.A039CC0D.obj'
   0BB554   Module 'obj\modifiablesupport.5D48FFF1.obj'
   0BB57C   Module 'obj\redblacktree.401E21A0.obj'
   0BB5AC   Module 'obj\redblacktreerep.E6A269FA.obj'
   0BB5EC   Module 'obj\weakreference.0A1AF11C.obj'
   0BB614   Module 'obj\outputstreamsupport.6F229CFB.obj'
   0BB674   Module 'obj\segmentedsupport.2BAFE67D.obj'
   0BB6C4   Module 'obj\iterator.60C55021.obj'
   0BB70C   Module 'obj\binary.248EF86D.obj'
   0BB72C   Module 'obj\filesystem.5B0F823E.obj'
   0BB874   Module 'obj\inputsupport_mode.ADC075EF.obj'
   0BB88C   Module 'obj\setm_redblack.16EF8DC5.obj'
   0BB8B4   Module 'obj\criticalsectionsupport.56CDFDBE.obj'
   0BB8CC   Module 'obj\commandlineparser.67E728BA.obj'
   0BB944   Module 'obj\console.E8EB4F3C.obj'
   0BB994   Module 'obj\core.5D9B9483.obj'
   0BC094   Module 'obj\presenter.E6E77556.obj'
   0BC194   Module 'obj\exception.B6F320E8.obj'
   0BC22C   Module 'obj\programcontrol.2B27F1CB.obj'
   0BC24C   Module 'obj\reflection.ACE59E5C.obj'
   0BC34C   Module 'obj\stream.8B55AAA7.obj'
   0BC3A4   Module 'obj\segmented.E9C86B20.obj'
   0BC3D4   Module 'obj\inputstreamsupport.7AF62102.obj'
   0BC3EC   Module 'obj\console_api.316E7EC3.obj'
   0BC45C   Module 'obj\exe_api.A246601B.obj'
   0BC47C   Module 'obj\filesystem_api.DE0803A2.obj'
   0BC5C4   Module 'obj\memory.568C55F8.obj'
   0BC784   Module 'obj\multithread_api.44799675.obj'
   0BC850   Module 'obj\time_api.0FD0D46D.obj'
   0BC8F8   Module 'obj\locale_api.1E7D05A5.obj'
   0BC948   Module 'obj\windowsapi.AA084B33.obj'
   0BC978   Module 'obj\redblackset.DC1C3622.obj'
   0BC9B8   Module 'obj\collectionmsupport.3A44ED4E.obj'
0B9000:0039D0 000004   .bss::BSS::DGROUP F=4
   0BC9D0   Module '..\..\..\_intermediate\sourceVS\vipInit\Win32\ReleasePE\VIPDll.obj'

Frame 0BD000   Size 000430.  Name=<  PRODBG>, 	Chars=40000040h. [IR]
0BD000:000000 000430   PRODBG::PRODBG::PRODBG F=4
   0BD000   Module 'obj\segmented_utf16.76E668A2.obj'
   0BD010   Module 'obj\hash_api.96B8CAEE.obj'
   0BD020   Module 'obj\string.19AABD3B.obj'
   0BD030   Module 'obj\boolean.DE5055E8.obj'
   0BD040   Module 'obj\string8.355639C6.obj'
   0BD050   Module 'obj\string8_api.B92F602D.obj'
   0BD060   Module 'obj\collection.A520841C.obj'
   0BD070   Module 'obj\mapm_redblack.875A0474.obj'
   0BD080   Module 'obj\math.5D7D6037.obj'
   0BD090   Module 'obj\exe.D80FC844.obj'
   0BD0A0   Module 'obj\shell_api.E8D4E14B.obj'
   0BD0B0   Module 'obj\vpidomains.E7102A6D.obj'
   0BD0C0   Module 'obj\gui_api.16868AAC.obj'
   0BD0D0   Module 'obj\registry_api.337CB6E1.obj'
   0BD0E0   Module 'obj\list.A75CEA31.obj'
   0BD0F0   Module 'obj\multithread.32507C62.obj'
   0BD100   Module 'obj\arraym_inline.F665267A.obj'
   0BD110   Module 'obj\namedvalue.6D52B2A6.obj'
   0BD120   Module 'obj\std.2DE0EC97.obj'
   0BD130   Module 'obj\runtime_api.8B32D2DD.obj'
   0BD140   Module 'obj\varm.B882E173.obj'
   0BD150   Module 'obj\event.D92D3A63.obj'
   0BD160   Module 'obj\exceptiondump.2B9C9E40.obj'
   0BD170   Module 'obj\main.789E136F.obj'
   0BD180   Module 'obj\registry.917E8C91.obj'
   0BD190   Module 'obj\time.6AFD2988.obj'
   0BD1A0   Module 'obj\memory_api.F938D1EE.obj'
   0BD1B0   Module 'obj\systeminformation_api.2864B3DF.obj'
   0BD1C0   Module 'obj\segmented_binary.C16992E7.obj'
   0BD1D0   Module 'obj\mapmsupport.8CD6C048.obj'
   0BD1E0   Module 'obj\mapsupport.59C06C8E.obj'
   0BD1F0   Module 'obj\collectionsupport.A039CC0D.obj'
   0BD200   Module 'obj\modifiablesupport.5D48FFF1.obj'
   0BD210   Module 'obj\redblacktree.401E21A0.obj'
   0BD220   Module 'obj\redblacktreerep.E6A269FA.obj'
   0BD230   Module 'obj\weakreference.0A1AF11C.obj'
   0BD240   Module 'obj\outputstreamsupport.6F229CFB.obj'
   0BD250   Module 'obj\segmentedsupport.2BAFE67D.obj'
   0BD260   Module 'obj\iterator.60C55021.obj'
   0BD270   Module 'obj\string_api.EE567466.obj'
   0BD280   Module 'obj\binary.248EF86D.obj'
   0BD290   Module 'obj\filesystem.5B0F823E.obj'
   0BD2A0   Module 'obj\inputsupport_mode.ADC075EF.obj'
   0BD2B0   Module 'obj\setm_redblack.16EF8DC5.obj'
   0BD2C0   Module 'obj\criticalsectionsupport.56CDFDBE.obj'
   0BD2D0   Module 'obj\commandlineparser.67E728BA.obj'
   0BD2E0   Module 'obj\console.E8EB4F3C.obj'
   0BD2F0   Module 'obj\core.5D9B9483.obj'
   0BD300   Module 'obj\presenter.E6E77556.obj'
   0BD310   Module 'obj\exception.B6F320E8.obj'
   0BD320   Module 'obj\programcontrol.2B27F1CB.obj'
   0BD330   Module 'obj\typelibrary.6EC19AA0.obj'
   0BD340   Module 'obj\reflection.ACE59E5C.obj'
   0BD350   Module 'obj\stream.8B55AAA7.obj'
   0BD360   Module 'obj\segmented.E9C86B20.obj'
   0BD370   Module 'obj\inputstreamsupport.7AF62102.obj'
   0BD380   Module 'obj\console_api.316E7EC3.obj'
   0BD390   Module 'obj\exe_api.A246601B.obj'
   0BD3A0   Module 'obj\filesystem_api.DE0803A2.obj'
   0BD3B0   Module 'obj\memory.568C55F8.obj'
   0BD3C0   Module 'obj\multithread_api.44799675.obj'
   0BD3D0   Module 'obj\time_api.0FD0D46D.obj'
   0BD3E0   Module 'obj\locale_api.1E7D05A5.obj'
   0BD3F0   Module 'obj\windowsapi.AA084B33.obj'
   0BD400   Module 'obj\winerrors.5F2CCDFC.obj'
   0BD410   Module 'obj\redblackset.DC1C3622.obj'
   0BD420   Module 'obj\collectionmsupport.3A44ED4E.obj'

Frame 0BE000   Size 000060.  Name=< .gcroot>, 	Chars=C0000040h. [IRW]
0BE000:000000 000058   .gcroot::.gcroot::.gcroot F=4
   0BE000   Module 'obj\segmented_utf16.76E668A2.obj'
   0BE004   Module 'obj\exe.D80FC844.obj'
   0BE008   Module 'obj\multithread.32507C62.obj'
   0BE014   Module 'obj\time.6AFD2988.obj'
   0BE028   Module 'obj\segmented_binary.C16992E7.obj'
   0BE02C   Module 'obj\console.E8EB4F3C.obj'
   0BE038   Module 'obj\presenter.E6E77556.obj'
   0BE03C   Module 'obj\exception.B6F320E8.obj'
   0BE040   Module 'obj\stream.8B55AAA7.obj'
   0BE04C   Module 'obj\time_api.0FD0D46D.obj'
   0BE050   Module '..\..\..\_intermediate\sourceVS\vipInit\Win32\ReleasePE\VIPDll.obj'

	     ------- Names by value Map ---------
Frame 001000   Size 05C870.  Name=<   .text>, 	Chars=60000020h. [CER]
001000:000000 05C660   .text::CODE::<no group> F=4
--- From 'obj\string.19AABD3B.obj'
01:00001000 ?_mkSegment@segmented_utf16@@SAXPB_WPAPAUsegmented_utf16_struct@segmented@@@Z 
--- From 'obj\segmented_utf16.76E668A2.obj'
01:0000102C ?_mkSegment_pure@segmented_utf16@@SAXPB_WPAPAUsegmented_struct@segmented@@PAPB_W@Z 
01:000010A0 ?_stripBOM@segmented_utf16@@SAXPAUsegmented_utf16_struct@segmented@@PAPAU23@@Z  (Idle)
--- From 'obj\string.19AABD3B.obj'
01:00001130 ?_getAsString@segmented_utf16@@SAXPAUsegmented_utf16_struct@segmented@@PAPB_W@Z 
--- From 'obj\segmented_utf16.76E668A2.obj'
01:000011CC ?_mkSegment_site$@segmented_utf16@@SAXQAVsegmentedSupportSite@@@XXPAPAUsegmented_struct@segmented@@PAX@Z 
01:000011E4 ?_mkSegmentFromBuffer_site$@segmented_utf16@@SAXQAVsegmentedSupportSite@@@XPAXPBUbyteCount@core@@PAX@Z 
01:00001204 ?_concat_site$@segmented_utf16@@SAXQAVsegmentedSupportSite@@@XXXPAX@Z 
01:00001224 ?_front_site$@segmented_utf16@@SAXQAVsegmentedSupportSite@@@XXPBUbyteCount@core@@PAX@Z 
01:0000125C ?_rear_site$@segmented_utf16@@SAXQAVsegmentedSupportSite@@@XXPBUbyteCount@core@@PAX@Z 
01:00001290 ?isReadable_site$@segmented_utf16@@SAXQAVsegmentedSupportSite@@@XXPBUbyteCount@core@@@Z 
01:000012BC ?new$@segmented_utf16@@SAXQAV1@@@Z  (Idle)
01:000012C4 ?_getSize@segmented_utf16@@SAXPAUsegmented_utf16_struct@segmented@@AAUcharCount@core@@@Z  (Idle)
01:000012F8 ?_concat@segmented_utf16@@SAXPAUsegmented_utf16_struct@segmented@@0PAPAU23@@Z  (Idle)
01:0000137C ?_front@segmented_utf16@@SAXPAUsegmented_utf16_struct@segmented@@PBUcharCount@core@@PAPAU23@@Z  (Idle)
01:0000140C ?_rear@segmented_utf16@@SAXPAUsegmented_utf16_struct@segmented@@PBUcharCount@core@@PAPAU23@@Z 
01:0000149C ?_subSegment@segmented_utf16@@SAXPAUsegmented_utf16_struct@segmented@@PBUcharCount@core@@1PAPAU23@@Z  (Idle)
01:00001544 ?split@segmented_utf16@@SAXPAUsegmented_utf16_struct@segmented@@PBUcharCount@core@@PAPAU23@2@Z  (Idle)
01:000015F8 ?_insert@segmented_utf16@@SAXPAUsegmented_utf16_struct@segmented@@PBUcharCount@core@@0PAPAU23@@Z  (Idle)
--- From 'obj\filesystem.5B0F823E.obj'
01:00001698 ?_getAll_nd@segmented_utf16@@SAXPAUsegmented_utf16_struct@segmented@@PAPB_W@Z 
--- From 'obj\string.19AABD3B.obj'
01:000016F8 ?_mkIterator@segmented_utf16@@SAXPAUsegmented_utf16_struct@segmented@@PBUcharCount@core@@PAPAViterator@@@PAPAUtuple_struct@5@AAUbyteCount@5@PAPB_W@Z 
--- From 'obj\segmented_utf16.76E668A2.obj'
01:00001770 ?validate@segmented_utf16@@SAXPAUsegmented_utf16_struct@segmented@@@Z  (Idle)
01:000017C8 ?_fromCC@segmented_utf16@@SAXPBUcharCount@core@@AAUbyteCount@3@@Z 
01:000017DC ?_toCC@segmented_utf16@@SAXPBUbyteCount@core@@AAUcharCount@3@@Z 
01:00001804 ?_toTerm@segmented_utf16@@SAXQAVrTypeLibrary@TypeLibraries@RunTime@VIP@@PAUsegmented_utf16_struct@segmented@@PAX@Z  (Idle)
01:00001898 ?_fromTerm@segmented_utf16@@SAXQAVrTypeLibrary@TypeLibraries@RunTime@VIP@@XPAPAUsegmented_utf16_struct@segmented@@@Z  (Idle)
01:00001908 ?_new@segmented_utf16@@SAXPAPAVsegmentedSupportSite@@@PAPB_W@Z  (Idle)
01:00001930 ?__lateFactInit$support$0$segmented_utf16@classDB@1@SAXPAPAVsegmentedSupport@@@PAPB_W@Z 
--- From 'obj\string.19AABD3B.obj'
01:00001968 ?support@segmented_utf16@@SGQAVsegmentedSupport@@@PB_WXZ 
--- From 'obj\segmented_utf16.76E668A2.obj'
01:000019A8 segmented_utf16?_initObject@@@QAGXQAV1@H@Z 
01:000019BC ?@create_object@segmented_utf16@@SGQAV1@@XZ 
01:000019D8 segmented_utf16?_InternalFinalizer@@@QAGXQAV1@@Z 
--- From 'obj\exception.B6F320E8.obj'
01:000019F0 ?format_exceptionHandler_explicit@string_exception@@SAXPAUprogramPoint_struct@core@@PBUtraceId@5@PB_W@Z 
--- From 'obj\string.19AABD3B.obj'
01:00001ADC ?raise_emptyString_explicit@string_exception@@SAXPAUprogramPoint_struct@core@@@Z  (Idle)
--- From 'obj\string8.355639C6.obj'
01:00001AF8 ?raise_outOfBoundaries_explicit@string_exception@@SAXPAUprogramPoint_struct@core@@PBUcharCount@3@1@Z 
--- From 'obj\filesystem.5B0F823E.obj'
01:00001BC0 ?raise_oddOffset_explicit@string_exception@@SAXPAUprogramPoint_struct@core@@PBUbyteCount@3@@Z 
01:00001C34 ?_hash@string@@SAXPB_WPAI@Z 
01:00001C4C ?_create@string@@SAXPBUcharCount@core@@PB_WPAPB_W@Z 
--- From 'obj\windowsapi.AA084B33.obj'
01:00001C84 ?_length@string@@SAXPB_WAAUcharCount@core@@@Z 
--- From 'obj\string.19AABD3B.obj'
01:00001C9C ?_tryCreate@string@@SAXPBUcharCount@core@@PB_WPAPB_W@Z  (Idle)
--- From 'obj\windowsapi.AA084B33.obj'
01:00001D00 ?_createCopy@string@@SAXPB_WPAPB_W@Z 
--- From 'obj\string.19AABD3B.obj'
01:00001D7C ?_copyFromBuffer@string@@SAXPAXPBUbyteCount@core@@PAPB_W@Z 
01:00001DE8 ?hasSuffix@string@@SAXPB_W0PAPB_W@Z  (Idle)
01:00001E44 ?hasSuffix@string@@SAXPB_W0@Z  (Idle)
--- From 'obj\reflection.ACE59E5C.obj'
01:00001E98 ?hasPrefix@string@@SAXPB_W0PAPB_W@Z 
--- From 'obj\string.19AABD3B.obj'
01:00001EC0 ?_hasPrefixPtr@string@@SAXPAUpChar_struct@memory@@0PAPAU23@@Z 
01:00001F40 ?hasPrefixIgnoreCase@string@@SAXPB_W0PAPB_W@Z  (Idle)
01:00001F58 ?hasPrefixIgnoreCase@string@@SAXPB_W0PAPB_WPBUlcId@locale_native@@@Z 
01:00001F98 ?hasPrefixCaseNeutral@string@@SAXPB_W0PAPB_W@Z  (Idle)
--- From 'obj\exception.B6F320E8.obj'
01:00001FAC ?_concat@string@@SAXPB_W0PAPB_W@Z 
--- From 'obj\filesystem.5B0F823E.obj'
01:00002018 ?_concat@string@@SAXPB_W00PAPB_W@Z 
--- From 'obj\string.19AABD3B.obj'
01:000020B0 ?_concat@string@@SAXPB_W000PAPB_W@Z  (Idle)
01:000020D8 ?_concat@string@@SAXPB_W0000PAPB_W@Z  (Idle)
01:000020F8 ?_concat@string@@SAXPB_W00000PAPB_W@Z 
--- From 'obj\filesystem.5B0F823E.obj'
01:00002234 ?_concatList@string@@SAXPAU?$__packedList_struct@PB_W@@PAPB_W@Z 
--- From 'obj\multithread.32507C62.obj'
01:000022C4 ?_concatWithDelimiter@string@@SAXPAU?$__packedList_struct@PB_W@@0PAPB_W@Z 
--- From 'obj\string.19AABD3B.obj'
01:000023A4 ?streamWithDelimiter@string@@SAXQAVoutputStream@@@PAU?$__packedList_struct@PB_W@@1@Z  (Idle)
01:0000248C ?concatListWithDelimiter_inner@string@@SAXPAXPAU?$__packedList_struct@PB_W@@PAXPBUbyteCount@core@@PAU?$__packedList_struct@PBUcharCount@3@@@@Z 
01:0000252C ?_copyDelimiterIfNeeded@string@@SAXPAXPAU?$__packedList_struct@PB_W@@PAXPBUbyteCount@core@@PAPAX@Z 
01:00002560 ?getStringListInfo@string@@SAXPAU?$__packedList_struct@PB_W@@PBUpositive@core@@1AAU23@3PAPAU?$__packedList_struct@AAUcharCount@3@@@@Z 
01:000025FC ?concatStringList@string@@SAXPAXPAU?$__packedList_struct@PB_W@@PAU?$__packedList_struct@PBUcharCount@core@@@@@Z 
--- From 'obj\reflection.ACE59E5C.obj'
01:000026AC ?equalCaseNeutral@string@@SAXPB_W0@Z 
--- From 'obj\commandlineparser.67E728BA.obj'
01:000026C4 ?_compareCaseNeutral@string@@SAXPB_W0PAPAUcompareResult_struct@_builtIn@@@Z 
--- From 'obj\string.19AABD3B.obj'
01:000026E0 ?equalIgnoreCase@string@@SAXPB_W0@Z  (Idle)
--- From 'obj\time.6AFD2988.obj'
01:0000270C ?equalIgnoreCase@string@@SAXPB_W0PBUlcId@locale_native@@@Z 
--- From 'obj\string.19AABD3B.obj'
01:0000273C ?_compareIgnoreCase@string@@SAXPB_W0PAPAUcompareResult_struct@_builtIn@@@Z 
01:00002760 ?_compareIgnoreCase@string@@SAXPB_W0PBUlcId@locale_native@@PAPAUcompareResult_struct@_builtIn@@@Z 
01:0000277C ?_compareString@string@@SAXPB_W0PAPAUcompareResult_struct@_builtIn@@@Z  (Idle)
01:000027A4 ?_compareString@string@@SAXPB_W0PBUlcId@locale_native@@IPAPAUcompareResult_struct@_builtIn@@@Z 
01:0000294C ?_adjustRight@string@@SAXPB_WPBUcharCount@core@@0PAUadjustBehaviour_struct@1@PAPB_W@Z  (Idle)
01:000029BC ?_adjust@string@@SAXPB_WPBUcharCount@core@@PAUadjustSide_struct@1@PAPB_W@Z  (Idle)
01:00002A08 ?_adjust@string@@SAXPB_WPBUcharCount@core@@0PAUadjustSide_struct@1@PAPB_W@Z  (Idle)
01:00002A34 ?_adjust@string@@SAXPB_WPBUcharCount@core@@0PAUadjustBehaviour_struct@1@PAUadjustSide_struct@1@PAPB_W@Z  (Idle)
01:00002A5C ?_crop@string@@SAXPB_WPBUcharCount@core@@PAUadjustSide_struct@1@PAUadjustBehaviour_struct@1@PAPB_W@Z 
01:00002AEC ?_adjustLeft@string@@SAXPB_WPBUcharCount@core@@0PAUadjustBehaviour_struct@1@PAPB_W@Z 
01:00002B4C ?_split@string@@SAXPB_W0PAPAU?$__packedList_struct@PAPB_W@@@Z  (Idle)
01:00002BE0 ?trySplitAt@string@@SAXPB_W0PAUcaseSensitivity_struct@1@PAPB_W3@Z  (Idle)
01:00002C38 ?trySplitAt@string@@SAXPB_W0PAPB_W2@Z  (Idle)
--- From 'obj\time_api.0FD0D46D.obj'
01:00002C60 ?format@string@@SAPB_W0@Z 
--- From 'obj\time.6AFD2988.obj'
01:00002CC0 ?write@string@@SAPB_WXZ 
--- From 'obj\exceptiondump.2B9C9E40.obj'
01:00002CD8 ?present@string@@SAPB_WXZ 
--- From 'obj\string.19AABD3B.obj'
01:00002D20 ?_rear@string@@SAXPB_WPBUcharCount@core@@PAPB_W@Z  (Idle)
--- From 'obj\time.6AFD2988.obj'
01:00002D70 ?_fromPosition@string@@SAXPB_WPBUcharCount@core@@PAPB_W@Z 
--- From 'obj\string.19AABD3B.obj'
01:00002DA0 ?_tryFromPosition@string@@SAXPB_WPBUcharCount@core@@PAPB_W@Z  (Idle)
01:00002DC8 ?front_wc@string@@SAXPB_WPBUcharCount@core@@PAPB_W2@Z 
--- From 'obj\time.6AFD2988.obj'
01:00002DFC ?front@string@@SAXPB_WPBUcharCount@core@@PAPB_W2@Z 
--- From 'obj\filesystem.5B0F823E.obj'
01:00002E40 ?tryFront@string@@SAXPB_WPBUcharCount@core@@PAPB_W2@Z 
--- From 'obj\string.19AABD3B.obj'
01:00002E7C ?checkPosition@string@@SAXPBUcharCount@core@@PB_W@Z 
--- From 'obj\filesystem.5B0F823E.obj'
01:00002EDC ?_frontChar@string@@SAXPB_WPA_W@Z 
--- From 'obj\commandlineparser.67E728BA.obj'
01:00002EF0 ?_tryFrontChar@string@@SAXPB_WPA_W@Z 
--- From 'obj\string.19AABD3B.obj'
01:00002F14 ?frontChar_wc@string@@SAXPB_WPA_WPAPB_W@Z  (Idle)
--- From 'obj\commandlineparser.67E728BA.obj'
01:00002F34 ?frontChar@string@@SAXPB_WPA_WPAPB_W@Z 
--- From 'obj\string.19AABD3B.obj'
01:00002F4C ?_tryLastChar@string@@SAXPB_WPA_W@Z  (Idle)
--- From 'obj\filesystem.5B0F823E.obj'
01:00002F80 ?lastChar@string@@SAXPB_WPAPB_WPA_W@Z 
01:00002FD0 ?_lastChar@string@@SAXPB_WPA_W@Z 
--- From 'obj\string.19AABD3B.obj'
01:0000300C ?_truncate@string@@SAXPB_WPBUcharCount@core@@PAPB_W@Z  (Idle)
01:0000304C ?_toCharList@string@@SAXPB_WPAPAU?$__packedList_struct@PA_W@@@Z  (Idle)
--- From 'obj\exceptiondump.2B9C9E40.obj'
01:000030B4 ?frontToken@string@@SAXPB_WPAPB_W1@Z 
--- From 'obj\memory_api.F938D1EE.obj'
01:000030D4 ?isValidToRead@string@@SAXPB_W@Z 
--- From 'obj\string.19AABD3B.obj'
01:000030EC ?isValidToRead@string@@SAXPB_WPBUcharCount@core@@@Z 
01:0000310C ?_replaceFirst@string@@SAXPB_W00PAUcaseSensitivity_struct@1@PAPB_W@Z  (Idle)
--- From 'obj\core.5D9B9483.obj'
01:00003140 ?_replaceAll@string@@SAXPB_W00PAUcaseSensitivity_struct@1@PAIPAPB_W@Z 
--- From 'obj\string.19AABD3B.obj'
01:00003178 ?_caseToInteger@string@@SAXPAUcaseSensitivity_struct@1@PAH@Z 
--- From 'obj\time.6AFD2988.obj'
01:000031A8 ?_replacePart@string@@SAXPB_WPBUcharCount@core@@10PAPB_W@Z 
--- From 'obj\string.19AABD3B.obj'
01:00003268 ?_tryReplacePart@string@@SAXPB_WPBUcharCount@core@@10PAPB_W@Z  (Idle)
--- From 'obj\time.6AFD2988.obj'
01:00003320 ?_search@string@@SAXPB_W0PAUcaseSensitivity_struct@1@AAUcharCount@core@@@Z 
--- From 'obj\string.19AABD3B.obj'
01:000033B4 ?_searchLast@string@@SAXPB_W0PAUcaseSensitivity_struct@1@AAUcharCount@core@@@Z  (Idle)
--- From 'obj\reflection.ACE59E5C.obj'
01:00003448 ?_subString@string@@SAXPB_WPBUcharCount@core@@1PAPB_W@Z 
--- From 'obj\string.19AABD3B.obj'
01:00003494 ?_trySubString@string@@SAXPB_WPBUcharCount@core@@1PAPB_W@Z  (Idle)
01:000034D8 ?_toUpperCase@string@@SAXPB_WPAPB_W@Z 
--- From 'obj\reflection.ACE59E5C.obj'
01:000034FC ?_toLowerCase@string@@SAXPB_WPAPB_W@Z 
--- From 'obj\string.19AABD3B.obj'
01:00003520 ?isUpperCase@string@@SAXPB_W@Z  (Idle)
01:00003554 ?isLowerCase@string@@SAXPB_W@Z  (Idle)
--- From 'obj\time.6AFD2988.obj'
01:00003588 ?hasDecimalDigits@string@@SAXPB_W@Z 
--- From 'obj\string.19AABD3B.obj'
01:000035A4 ?isDecimalDigits@string@@SAXPB_W@Z 
01:000035F0 ?decimalDigit@string@@SAX_W@Z 
01:00003610 ?hasAlpha@string@@SAXPB_W@Z  (Idle)
01:00003634 ?isWhiteSpace@string@@SAXPB_W@Z  (Idle)
--- From 'obj\time.6AFD2988.obj'
01:0000363C ?_split_delimiter@string@@SAXPB_W0PAPAU?$__packedList_struct@PAPB_W@@@Z 
--- From 'obj\string.19AABD3B.obj'
01:00003668 ?_splitByString@string@@SAXPB_W0PBUcharCount@core@@PAPAU?$__packedList_struct@PAPB_W@@@Z 
01:0000370C ?_split_length@string@@SAXPB_WPAU?$__packedList_struct@PBUcharCount@core@@@@PAPAU?$__packedList_struct@PAPB_W@@@Z  (Idle)
--- From 'obj\exception.B6F320E8.obj'
01:000037A0 ?_trim@string@@SAXPB_WPAPB_W@Z 
--- From 'obj\string.19AABD3B.obj'
01:000037C4 ?_charToString@string@@SAX_WPAPB_W@Z  (Idle)
01:000037F0 ?_charUpper@string@@SAX_WPA_W@Z  (Idle)
01:0000380C ?_charLower@string@@SAX_WPA_W@Z  (Idle)
--- From 'obj\reflection.ACE59E5C.obj'
01:00003828 ?splitStringBySeparators@string@@SAXPB_W0PAPB_WPA_W2@Z 
--- From 'obj\string.19AABD3B.obj'
01:00003888 ?_getMinPosition@string@@SAXPB_W0PBUcharCount@core@@AAU23@@Z 
01:000038F4 ?isName@string@@SAXPB_W@Z  (Idle)
01:00003944 ?isLegalFrontCharOfName@string@@SAX_W@Z 
01:00003970 ?isCorrectRemainderOfName@string@@SAXPB_W@Z 
01:000039BC ?isCorrectRemainderCharOfName@string@@SAX_W@Z 
01:00003A04 ?isClassIdentifier@string@@SAXPB_W0@Z  (Idle)
01:00003A70 ?isObjectIdentifier@string@@SAXPB_W0@Z  (Idle)
01:00003AE4 ?isCorrectMemberName@string@@SAXPB_W@Z 
01:00003B74 ?keywordString@string@@SAXPB_WPAPAUboolean_struct@_builtIn@@@Z 
01:00004420 ?isCorrectClassFrontChar@string@@SAX_W@Z 
--- From 'obj\reflection.ACE59E5C.obj'
01:00004450 ?_searchChar@string@@SAXPB_W_WPAUcaseSensitivity_struct@1@AAUcharCount@core@@@Z 
--- From 'obj\filesystem.5B0F823E.obj'
01:000044D4 ?_subChar@string@@SAXPB_WPBUcharCount@core@@PA_W@Z 
--- From 'obj\string.19AABD3B.obj'
01:0000450C ?_trySubchar@string@@SAXPB_WPBUcharCount@core@@PA_W@Z  (Idle)
01:00004540 ?_getCharValue@string@@SAX_WAAUunsigned16@core@@@Z  (Idle)
--- From 'obj\string8.355639C6.obj'
01:00004554 ?_getCharFromValue@string@@SAXPBUunsigned16@core@@PA_W@Z 
--- From 'obj\string.19AABD3B.obj'
01:00004568 ?listToArray@string@@SAXPAU?$__packedList_struct@PB_W@@PAPAXPAI@Z  (Idle)
01:000045C4 ?_arrayToList@string@@SAXPAXIPAPAU?$__packedList_struct@PAPB_W@@@Z  (Idle)
01:000045CC ?fillArray@string@@SAXPAXPAU?$__packedList_struct@PB_W@@@Z 
01:00004630 ?_fillList@string@@SAXPBUunsignedNative@_builtIn@@IPAPAU?$__packedList_struct@PAPB_W@@@Z 
01:00004690 ?_createFromCharList@string@@SAXPAU?$__packedList_struct@_W@@PAPB_W@Z  (Idle)
01:000046D8 ?fillString@string@@SAXPAXPAU?$__packedList_struct@_W@@@Z 
01:00004730 isWhiteSpace_C 
01:0000474C isWhiteSpace_S 
01:00004794 ?getMetricPrefix@string@@SAXPANPAPANPAPB_W@Z  (Idle)
01:000048A8 ?_toMetricPrefixForm@string@@SAXPBUpositive@core@@PANPAPB_W@Z  (Idle)
01:0000495C ?getBinaryPrefix@string@@SAXPANPAPANPAPB_W@Z  (Idle)
01:00004A6C ?_toBinaryPrefixForm@string@@SAXPBUpositive@core@@PANPAPB_W@Z  (Idle)
01:00004B20 ?_subChar_wc@string@@SAXPB_WPBUcharCount@core@@PA_W@Z  (Idle)
01:00004B44 ?_checkSlashes@string@@SAXPB_WPBUcharCount@core@@PAPAUboolean_struct@_builtIn@@@Z  (Idle)
01:00004BBC ?_trySearchEscape@string@@SAXPB_WAAUcharCount@core@@@Z  (Idle)
01:00004C44 ?_getWrapLines@string@@SAXPB_WPBUcharCount@core@@101PAUboolean_struct@_builtIn@@PAPAU?$__packedList_struct@PAPB_W@@@Z  (Idle)
01:00005064 ?_wrapString@string@@SAXPB_WPBUcharCount@core@@10PAPAU?$__packedList_struct@PAPB_W@@@Z  (Idle)
01:00005084 ?isWhiteSpace@string@@SAX_W@Z  (Idle)
01:0000508C ?keywordString@string@@SAXPB_WPAUboolean_struct@_builtIn@@@Z  (Idle)
01:00005928 ?keywordString@string@@SAXPAPB_WPAPAUboolean_struct@_builtIn@@@Z  (Idle)
01:00006028 ?new$@outputStream_string@@SAXQAV1@@@Z  (Idle)
01:00006050 ?setMode$@outputStream_string@@SGXQAVstream@@@PAUmode_struct@2@@Z 
01:00006088 ?_getInputStream$@outputStream_string@@SAXQAVoutputStreamSegmented@@@XPAPAVinputStream@@@@Z 
01:000060B0 ?_getSegmented_utf16$@outputStream_string@@SAXQAV1@@PAPAUsegmented_utf16_struct@segmented@@@Z 
01:000060DC ?length@outputStream_string@@SGPBUcharCount@core@@QAV1@@@Z 
01:00006120 ?_getString$@outputStream_string@@SAXQAV1@@PAPB_W@Z 
--- From 'obj\exception.B6F320E8.obj'
01:00006148 ?_getString@outputStream_string@@SAXPA$?predicate$1@core@@SAXQAVoutputStream@@@@Z$PAPB_W@Z 
--- From 'obj\string.19AABD3B.obj'
01:00006170 ?getstring/2nf$1@outputStream_string@@SAXPAUgetstring/2nf$1_struct@1@QAVoutputStream@@@@Z 
--- From 'obj\exceptiondump.2B9C9E40.obj'
01:000061B8 ?_getString@outputStream_string@@SAXQAVrTypeLibrary@TypeLibraries@RunTime@VIP@@PA$?predicate$2@core@@SAXQAVoutputStream@@@X@Z$XPAPB_W@Z 
--- From 'obj\string.19AABD3B.obj'
01:0000620C ?getstring/3nf$1@outputStream_string@@SAXPAUgetstring/3nf$1_struct@1@QAVoutputStream@@@@Z 
01:00006270 ?_getString@outputStream_string@@SAXQAVrTypeLibrary@TypeLibraries@RunTime@VIP@@0PA$?predicate$3@core@@SAXQAVoutputStream@@@XX@Z$XXPAPB_W@Z  (Idle)
01:000062D0 ?getstring/4nf$1@outputStream_string@@SAXPAUgetstring/4nf$1_struct@1@QAVoutputStream@@@@Z 
01:0000634C ?_getString@outputStream_string@@SAXQAVrTypeLibrary@TypeLibraries@RunTime@VIP@@00PA$?predicate$4@core@@SAXQAVoutputStream@@@XXX@Z$XXXPAPB_W@Z  (Idle)
01:000063B8 ?getstring/5nf$1@outputStream_string@@SAXPAUgetstring/5nf$1_struct@1@QAVoutputStream@@@@Z 
01:00006454 ?_getString@outputStream_string@@SAXQAVrTypeLibrary@TypeLibraries@RunTime@VIP@@000PA$?predicate$5@core@@SAXQAVoutputStream@@@XXXX@Z$XXXXPAPB_W@Z  (Idle)
01:000064CC ?_getStringAllowNull@outputStream_string@@SAXPA$?predicate$1@core@@SAXQAVoutputStream@@@@Z$PAPB_W@Z  (Idle)
01:000064F4 ?getstringallownull/2nf$1@outputStream_string@@SAXPAUgetstringallownull/2nf$1_struct@1@QAVoutputStream@@@@Z 
--- From 'obj\outputstreamsupport.6F229CFB.obj'
01:0000653C ?_getStringAllowNull@outputStream_string@@SAXQAVrTypeLibrary@TypeLibraries@RunTime@VIP@@PA$?predicate$2@core@@SAXQAVoutputStream@@@X@Z$XPAPB_W@Z 
--- From 'obj\string.19AABD3B.obj'
01:00006590 ?getstringallownull/3nf$1@outputStream_string@@SAXPAUgetstringallownull/3nf$1_struct@1@QAVoutputStream@@@@Z 
01:000065F4 ?_getStringAllowNull@outputStream_string@@SAXQAVrTypeLibrary@TypeLibraries@RunTime@VIP@@0PA$?predicate$3@core@@SAXQAVoutputStream@@@XX@Z$XXPAPB_W@Z  (Idle)
01:00006654 ?getstringallownull/4nf$1@outputStream_string@@SAXPAUgetstringallownull/4nf$1_struct@1@QAVoutputStream@@@@Z 
01:000066D0 ?_getStringAllowNull@outputStream_string@@SAXQAVrTypeLibrary@TypeLibraries@RunTime@VIP@@00PA$?predicate$4@core@@SAXQAVoutputStream@@@XXX@Z$XXXPAPB_W@Z  (Idle)
01:0000673C ?getstringallownull/5nf$1@outputStream_string@@SAXPAUgetstringallownull/5nf$1_struct@1@QAVoutputStream@@@@Z 
01:000067D8 ?_getStringAllowNull@outputStream_string@@SAXQAVrTypeLibrary@TypeLibraries@RunTime@VIP@@000PA$?predicate$5@core@@SAXQAVoutputStream@@@XXXX@Z$XXXXPAPB_W@Z  (Idle)
01:00006850 ?_getString2@outputStream_string@@SAXPAUboolean_struct@_builtIn@@PA$?predicate$1@core@@SAXQAVoutputStream@@@@Z$PAPB_W@Z 
--- From 'obj\reflection.ACE59E5C.obj'
01:00006930 ?_new@outputStream_string@@SAXPAPAV1@@@Z 
--- From 'obj\string.19AABD3B.obj'
01:00006958 ?new$@inputStream_string@@SAXQAV1@@PB_W@Z  (Idle)
01:00006980 ?new_segmented$@inputStream_string@@SAXQAV1@@PAUsegmented_utf16_struct@segmented@@@Z 
01:000069EC ?setMode$@inputStream_string@@SGXQAVstream@@@PAUmode_struct@2@@Z 
01:00006A24 ?close$@inputStream_string@@SGXQAVstream@@@@Z 
01:00006A34 ?getPosition$@inputStream_string@@SGPBUfileSize@fileSystem_api@@QAVstream@@@@Z 
01:00006A88 ?setPosition$@inputStream_string@@SGXQAVstream@@@PBUfileSize@fileSystem_api@@@Z 
01:00006B4C ?getBuffer$@inputStream_string@@SGXQAVbufferSupport@@@PAPAXAAUbyteCount@core@@@Z 
01:00006B68 ?getBufferLocked$@inputStream_string@@SGXQAVbufferSupport@@@PAPAXAAUbyteCount@core@@@Z 
01:00006C00 ?getCRLFconversion$@inputStream_string@@SGPAUboolean_struct@_builtIn@@QAVstream@@@@Z 
01:00006C08 ?setCRLFconversion$@inputStream_string@@SGXQAVstream@@@PAUboolean_struct@_builtIn@@@Z 
01:00006C30 ?_new@inputStream_string@@SAXPB_WPAPAVinputStream@@@@Z  (Idle)
01:00006C58 ?_new_segmented@inputStream_string@@SAXPAUsegmented_utf16_struct@3@PAPAVinputStream@@@@Z 
01:00006C80 ?_object_facts_initializer$@inputStream_string@@SGXQAV1@@@Z 
01:00007118 outputStream_string?_initObject@@@QAGXQAV1@H@Z 
01:00007148 ?@create_object@outputStream_string@@SGQAV1@@XZ 
01:00007164 outputStream_string?_InternalFinalizer@@@QAGXQAV1@@Z 
01:00007410 inputStream_string?_initObject@@@QAGXQAV1@H@Z 
01:00007448 ?@create_object@inputStream_string@@SGQAV1@@XZ 
01:00007464 inputStream_string?_InternalFinalizer@@@QAGXQAV1@@Z 
--- From 'obj\multithread_api.44799675.obj'
01:00007480 ?_toBooleanInt@boolean@@SAXPAUboolean_struct@_builtIn@@AAUbooleanInt@core@@@Z 
--- From 'obj\memory_api.F938D1EE.obj'
01:000074A4 ?_fromBooleanInt@boolean@@SAXPBUbooleanInt@core@@PAPAUboolean_struct@_builtIn@@@Z 
--- From 'obj\varm.B882E173.obj'
01:000074C8 ?_logicalNot@boolean@@SAXPAUboolean_struct@_builtIn@@PAPAU23@@Z 
01:000074EC ?_logicalAnd@boolean@@SAXPAUboolean_struct@_builtIn@@0PAPAU23@@Z 
01:0000752C ?_logicalOr@boolean@@SAXPAUboolean_struct@_builtIn@@0PAPAU23@@Z 
01:0000756C ?_logicalXor@boolean@@SAXPAUboolean_struct@_builtIn@@0PAPAU23@@Z 
--- From 'obj\string8.355639C6.obj'
01:000075A0 ?isValidCodePage@string8@@SAXPBUcodePage@core@@@Z  (Idle)
01:000075BC ?isValidToRead@string8@@SAXPADPBUbyteCount@core@@@Z  (Idle)
01:000075DC ?_fromUtf8@string8@@SAXPADPBUbyteCountOptional@core@@PAPB_W@Z  (Idle)
--- From 'obj\core.5D9B9483.obj'
01:00007604 ?_toUtf8@string8@@SAXPB_WPAPAD@Z 
--- From 'obj\string8.355639C6.obj'
01:00007624 ?_toUtf8@string8@@SAXPB_WAAUbyteCount@core@@PAPAD@Z 
--- From 'obj\multithread.32507C62.obj'
01:0000764C ?_mapFromString@string8@@SAXPB_WPBUcodePage@core@@AAUbyteCount@3@PAPAD@Z 
--- From 'obj\string8.355639C6.obj'
01:00007674 ?_toUtf8_buffer@string8@@SAXPAXPBUcharCount@core@@AAUbyteCount@3@PAPAD@Z  (Idle)
01:000076B0 ?_fromUtf8_buffer@string8@@SAXPAXPBUbyteCount@core@@PAPB_W@Z  (Idle)
01:000076E4 ?_mapFromString@string8@@SAXPB_WPBUcodePage@core@@PBUcharCountOptional@3@AAUbyteCount@3@PAPAD@Z 
--- From 'obj\binary.248EF86D.obj'
01:0000777C ?_mapToString@string8@@SAXPADPBUcodePage@core@@PBUbyteCountOptional@3@PAPB_W@Z 
--- From 'obj\string8.355639C6.obj'
01:00007834 ?_mapFromChar@string8@@SAX_WPBUcodePage@core@@AAUchar8@3@@Z  (Idle)
01:000078A8 ?_mapToChar@string8@@SAXPBUchar8@core@@PBUcodePage@3@PA_W@Z  (Idle)
01:0000791C ?_concat@string8@@SAXPADPADPAPAD@Z  (Idle)
01:000079B0 ?_fromPosition@string8@@SAXPADPBUbyteCount@core@@PAPAD@Z  (Idle)
01:000079EC ?checkPosition@string8@@SAXPBUbyteCount@core@@PAD@Z 
--- From 'obj\memory_api.F938D1EE.obj'
01:00007A1C ?_createCopy@string8@@SAXPADPAPAD@Z 
--- From 'obj\string8.355639C6.obj'
01:00007A78 ?_createCopy@string8@@SAXPADPBUbyteCount@core@@PAPAD@Z 
01:00007AB8 ?_copyFromBuffer@string8@@SAXPAXPBUbyteCount@core@@PAPAD@Z  (Idle)
01:00007B30 ?_tryLength@string8@@SAXPADAAUbyteCount@core@@@Z 
01:00007B78 ?_tryFrontChar@string8@@SAXPADPAPADPBUcodePage@core@@PA_W@Z  (Idle)
01:00007C44 ?_tryFrontChar_utf8@string8@@SAXPADPAPADPA_W@Z 
01:00007CA0 ?_tryFrontChar_utf82@string8@@SAXPBUchar8@core@@PADPAPADPAI@Z 
01:00007E74 ?_tryGetIntermediateUtf8@string8@@SAXIPADPAPADPAI@Z 
01:00007EE0 ?_tryGetFirstByte@string8@@SAXPADPAPADAAUchar8@core@@@Z 
--- From 'obj\console.E8EB4F3C.obj'
01:00007F10 ?toWideChar@string8_api@@SAXPBUcodePage@core@@PADPBUbyteCountOptional@3@PB_WPBUcharCount@3@@Z 
01:00007F60 ?_lenWideChar@string8_api@@SAXPBUcodePage@core@@PADPBUbyteCountOptional@3@AAUcharCount@3@@Z 
01:00007FD0 ?toMultiByte@string8_api@@SAXPBUcodePage@core@@PB_WPBUcharCountOptional@3@PADPBUbyteCount@3@@Z 
01:00008024 ?_lenMultiByte@string8_api@@SAXPBUcodePage@core@@PB_WPBUcharCountOptional@3@AAUbyteCount@3@@Z 
--- From 'obj\string8_api.B92F602D.obj'
01:00008098 ?_charNextExA@string8_api@@SAXPBUcodePage@core@@PADPAPAD@Z 
--- From 'obj\mapm_redblack.875A0474.obj'
01:000080C0 ?new$@mapM_redBlack@@SAXQAV1@@XXQAVrTypeLibrary@TypeLibraries@RunTime@VIP@@1@Z  (Idle)
01:000080EC ?newCustom$@mapM_redBlack@@SAXQAV1@@XXQAVrTypeLibrary@TypeLibraries@RunTime@VIP@@1PA$?_comparator$1@core@@SAXXXPAPAUcompareResult_struct@_builtIn@@@Z$@Z  (Idle)
01:00008118 ?_clone$@mapM_redBlack@@SAXQAVmapM@@@XXPAPAV2@@PAXPAX@Z 
01:00008150 ?newInit$@mapM_redBlack@@SAXQAV1@@XXQAVrTypeLibrary@TypeLibraries@RunTime@VIP@@1PAUtree_struct@redBlackTree@@XX@Z 
01:00008180 ?set_site$@mapM_redBlack@@SAXQAVmapMSupportSite@@collectionSupport@@XXXX@Z 
01:000081B4 ?_tryGet_site$@mapM_redBlack@@SAXQAVmapSupportSite@@collectionSupport@@XXXPAX@Z 
01:000081F4 ?_getAll_nd_site$@mapM_redBlack@@SAXQAVmapSupportSite@@collectionSupport@@XXPAPAUtuple_struct@core@@PAXPAX@Z 
01:0000822C ?removeKey_site$@mapM_redBlack@@SAXQAVmapMSupportSite@@collectionSupport@@XXX@Z 
01:0000825C ?clear$@mapM_redBlack@@SAXQAVmodifiable@@@X@Z 
01:0000828C ?_upFrom_nd_site$@mapM_redBlack@@SAXQAVmapSupportSite@@collectionSupport@@XXXPAPAUtuple_struct@core@@PAXPAX@Z 
01:000082CC ?_downFrom_nd$@mapM_redBlack@@SAXQAVmap@@@XXXPAPAUtuple_struct@core@@PAXPAX@Z 
--- From 'obj\time_api.0FD0D46D.obj'
01:0000830C ?_new@mapM_redBlack@@SAXQAVrTypeLibrary@TypeLibraries@RunTime@VIP@@0PAPAVmapM@@@PAXPAX@Z 
--- From 'obj\commandlineparser.67E728BA.obj'
01:00008340 ?_newCustom@mapM_redBlack@@SAXQAVrTypeLibrary@TypeLibraries@RunTime@VIP@@0PA$?_comparator$1@core@@SAXXXPAPAUcompareResult_struct@_builtIn@@@Z$PAPAVmapM@@@PAXPAX@Z 
--- From 'obj\mapm_redblack.875A0474.obj'
01:00008374 ?_newInit@mapM_redBlack@@SAXQAVrTypeLibrary@TypeLibraries@RunTime@VIP@@0PAUtree_struct@redBlackTree@@XXPAPAVmapM@@@PAXPAX@Z 
01:000083A8 ?_object_typelib_initializer$@mapM_redBlack@@SGXQAV1@@XXQAVrTypeLibrary@TypeLibraries@RunTime@VIP@@1@Z 
01:00008904 mapM_redBlack{@Key,@Data}?_initObject@@@QAGXQAV1@H@Z 
01:0000894C ?@create_object@mapM_redBlack@@SGQAV1@@XXQAVrTypeLibrary@TypeLibraries@RunTime@VIP@@0@Z 
01:00008974 mapM_redBlack{@Key,@Data}?_InternalFinalizer@@@QAGXQAV1@@Z 
--- From 'obj\math.5D7D6037.obj'
01:00008990 ?raise_asinOutOfBounds_explicit@math_exception@@SAXPAUprogramPoint_struct@core@@PAN@Z  (Idle)
01:00008A04 ?raise_acoshOutOfBounds_explicit@math_exception@@SAXPAUprogramPoint_struct@core@@PAN@Z  (Idle)
01:00008A78 ?raise_atanhOutOfBounds_explicit@math_exception@@SAXPAUprogramPoint_struct@core@@PAN@Z  (Idle)
01:00008AEC ?raise_acotanhOutOfBounds_explicit@math_exception@@SAXPAUprogramPoint_struct@core@@PAN@Z  (Idle)
01:00008B60 ?raise_cotanhInfinityResult_explicit@math_exception@@SAXPAUprogramPoint_struct@core@@PAN@Z  (Idle)
01:00008BD4 ?isNaN@math@@SAXPAN@Z  (Idle)
01:00008C4C ?_sign@math@@SAXHPAH@Z  (Idle)
01:00008C6C ?check_asin_nearBounds@math@@SAXPAPBUinCircle@1@@Z  (Idle)
01:00008CB4 ?_getBoundsForValue@math@@SAXPAPBUinCircle@1@PAPAN@Z  (Idle)
01:00008CE8 ?_arcsin@math@@SAXPAPBUinCircle@1@PAPAN@Z  (Idle)
01:00008EA4 ?_sinh@math@@SAXPANPAPAN@Z  (Idle)
01:00008F44 ?_prepareResultForBigValue@math@@SAXPANPAAAUuReal@1@@Z  (Idle)
01:00009120 ?_arcsinh@math@@SAXPANPAPAN@Z  (Idle)
01:00009178 ?_arccos@math@@SAXPAPBUinCircle@1@PAPAN@Z  (Idle)
01:000091C0 ?_cosh@math@@SAXPANPAAAUuReal@1@@Z  (Idle)
01:00009290 ?_prepareResultForValue@math@@SAXPAPBUuReal@1@PAAAU21@@Z  (Idle)
01:00009414 ?_arccosh@math@@SAXPAPBUuReal@1@PAPAN@Z  (Idle)
01:00009490 ?_get_tanhBoundsForValue@math@@SAXPANPAAAUinCircle@1@@Z  (Idle)
01:000094C4 ?_tanh@math@@SAXPANPAAAUinCircle@1@@Z  (Idle)
01:00009594 ?_arctanh@math@@SAXPAPBUinCircle@1@PAPAN@Z  (Idle)
01:0000968C ?_cotanh@math@@SAXPANPAPAN@Z  (Idle)
01:00009754 ?_arccotanh@math@@SAXPANPAPAN@Z  (Idle)
01:0000984C ?_sqr@math@@SAXPANPAAAUuReal@1@@Z 
--- From 'obj\time.6AFD2988.obj'
01:00009888 ?_round@math@@SAXPANPAH@Z 
--- From 'obj\time_api.0FD0D46D.obj'
01:000098CC ?_roundToUnsigned@math@@SAXPANPAI@Z 
--- From 'obj\time.6AFD2988.obj'
01:00009910 ?_roundToInteger64@math@@SAXPANPAPA_J@Z 
--- From 'obj\math.5D7D6037.obj'
01:0000996C ?_roundToUnsigned64@math@@SAXPANPAPA_K@Z  (Idle)
--- From 'obj\time.6AFD2988.obj'
01:000099C8 ?_trunc@math@@SAXPANPAH@Z 
01:00009A0C ?_fraction@math@@SAXPANPAPAN@Z 
--- From 'obj\math.5D7D6037.obj'
01:00009A60 ?_ceil@math@@SAXPANPAH@Z 
01:00009A90 ?_ceilToReal@math@@SAXPANPAPAN@Z 
--- From 'obj\time.6AFD2988.obj'
01:00009B44 ?_floor@math@@SAXPANPAH@Z 
--- From 'obj\math.5D7D6037.obj'
01:00009B98 ?_floorToReal@math@@SAXPANPAPAN@Z  (Idle)
--- From 'obj\filesystem.5B0F823E.obj'
01:00009C04 ?_max@math@@SAXHHPAH@Z 
--- From 'obj\math.5D7D6037.obj'
01:00009C24 ?_max@math@@SAXHHHPAH@Z  (Idle)
--- From 'obj\binary.248EF86D.obj'
01:00009C4C ?_min@math@@SAXHHPAH@Z 
--- From 'obj\math.5D7D6037.obj'
01:00009C6C ?_min@math@@SAXHHHPAH@Z  (Idle)
01:00009C94 ?_restrict@math@@SAXHHHPAH@Z  (Idle)
01:00009CC8 ?divides_dt@math@@SAXHH@Z  (Idle)
01:00009D04 ?_sign@math@@SAXPANPAH@Z  (Idle)
--- From 'obj\varm.B882E173.obj'
01:00009D34 ?_max@math@@SAXIIPAI@Z 
--- From 'obj\math.5D7D6037.obj'
01:00009D54 ?_max@math@@SAXPANPANPAPAN@Z  (Idle)
01:00009D78 ?_max@math@@SAXMMPAM@Z  (Idle)
01:00009DF0 ?_max@math@@SAXPA_J0PAPA_J@Z  (Idle)
01:00009E24 ?_max@math@@SAXPBUintegerNative@_builtIn@@0AAU23@@Z  (Idle)
01:00009E44 ?_max@math@@SAXPA_K0PAPA_K@Z  (Idle)
01:00009E78 ?_max@math@@SAXPBUunsignedNative@_builtIn@@0AAU23@@Z  (Idle)
01:00009E98 ?_max@math@@SAXIIIPAI@Z  (Idle)
01:00009EC8 ?_max@math@@SAXPANPANPANPAPAN@Z  (Idle)
01:00009EF8 ?_max@math@@SAXMMMPAM@Z  (Idle)
--- From 'obj\varm.B882E173.obj'
01:00009F40 ?_min@math@@SAXIIPAI@Z 
--- From 'obj\math.5D7D6037.obj'
01:00009F60 ?_min@math@@SAXPANPANPAPAN@Z  (Idle)
01:00009F84 ?_min@math@@SAXMMPAM@Z  (Idle)
01:00009FFC ?_min@math@@SAXPA_J0PAPA_J@Z  (Idle)
01:0000A030 ?_min@math@@SAXPBUintegerNative@_builtIn@@0AAU23@@Z  (Idle)
01:0000A050 ?_min@math@@SAXPA_K0PAPA_K@Z  (Idle)
01:0000A084 ?_min@math@@SAXPBUunsignedNative@_builtIn@@0AAU23@@Z  (Idle)
01:0000A0A4 ?_min@math@@SAXIIIPAI@Z  (Idle)
01:0000A0D4 ?_min@math@@SAXPANPANPANPAPAN@Z  (Idle)
01:0000A104 ?_min@math@@SAXMMMPAM@Z  (Idle)
01:0000A14C ?_restrict@math@@SAXIIIPAI@Z  (Idle)
01:0000A180 ?_restrict@math@@SAXPANPANPANPAPAN@Z  (Idle)
01:0000A1B4 ?divides_dt@math@@SAXII@Z  (Idle)
--- From 'obj\console.E8EB4F3C.obj'
01:0000A1D0 ?run@mainExe@@SAXXPAUrunMode_struct@exe_api@@@Z 
--- From 'obj\main.789E136F.obj'
01:0000A1E4 ?run@mainExe@@SAXX@Z 
--- From 'obj\exe.D80FC844.obj'
01:0000A278 ?runCallback@mainExe@@SAXX@Z 
01:0000A28C ?runCallback@mainExe@@SAXXPAUrunMode_struct@exe_api@@@Z 
--- From 'obj\commandlineparser.67E728BA.obj'
01:0000A2F0 ?_getCommandLine@mainExe@@SAXPAPB_W@Z 
--- From 'obj\exe.D80FC844.obj'
01:0000A360 ?_parseCommandLine@mainExe@@SAXPB_W_W0PAPB_W@Z 
01:0000A430 ?_getPosition@mainExe@@SAXPB_W_WAAUcharCount@core@@@Z 
--- From 'obj\commandlineparser.67E728BA.obj'
01:0000A474 ?getFilename@mainExe@@SAXPAPB_W0@Z 
01:0000A4B0 ?_getFilename@mainExe@@SAXPAPB_W@Z 
--- From 'obj\gui_api.16868AAC.obj'
01:0000A4CC ?_getCurrentHinstance@mainExe@@SAXAAUhModule@core@@@Z 
--- From 'obj\multithread.32507C62.obj'
01:0000A4E0 ?runMode@mainExe@@SGPAUrunMode_struct@exe_api@@XZ 
--- From 'obj\exe.D80FC844.obj'
01:0000A4E8 ?exceptionDumper@mainExe@@SGXX@Z  (Idle)
--- From 'obj\multithread.32507C62.obj'
01:0000A4F4 ?exceptionDumper@mainExe@@SGXXZ 
--- From 'obj\shell_api.E8D4E14B.obj'
01:0000A500 ?shellOpen@shell_api@@SAXPB_W@Z  (Idle)
01:0000A524 ?shellRun@shell_api@@SAXPB_W@Z  (Idle)
01:0000A548 ?shellExecute@shell_api@@SAXPBUhwnd@core@@PB_W1@Z 
01:0000A560 ?shellExecute@shell_api@@SAXPBUhwnd@core@@PB_W11@Z 
01:0000A578 ?shellExecute@shell_api@@SAXPBUhwnd@core@@PB_W111@Z 
01:0000A590 ?shellExecute@shell_api@@SAXPBUhwnd@core@@PB_W111H@Z 
01:0000A618 ?shellExecuteEx@shell_api@@SAXPAUshellExecuteInfo_struct@shell_native@@@Z  (Idle)
01:0000A650 ?_shellExecuteErrorDescription@shell_api@@SAXIPAPB_W@Z 
01:0000A78C ?_sHCreateStreamOnFileEx@shell_api@@SAXPB_WIPAPAViStream_native@@@@Z  (Idle)
01:0000A7AC ?_sHCreateStreamOnFileEx@shell_api@@SAXPB_WIIPAUboolean_struct@_builtIn@@PAPAViStream_native@@@@Z 
--- From 'obj\commandlineparser.67E728BA.obj'
01:0000A800 ?_commandLineToArgv@shell_api@@SAXPB_WPAPAU?$__packedList_struct@PAPB_W@@@Z 
--- From 'obj\shell_api.E8D4E14B.obj'
01:0000A8D4 ?_extractAssociatedIcon@shell_api@@SAXPB_WPAIPAPB_WAAUhIcon@gui_native@@@Z  (Idle)
--- From 'obj\vpidomains.E7102A6D.obj'
01:0000A940 ?_toFont_logfont@vpiDomains@@SAXPAUlogfont_struct@gui_native@@AAU41@@Z  (Idle)
01:0000A968 ?_fromFont_logfont@vpiDomains@@SAXPBU21@PAPAUlogfont_struct@gui_native@@@Z  (Idle)
01:0000A978 ?_presenter_event@vpiDomains@@SAXPAUevent_struct@1@PAPAUpresentation_struct@presenter@@@Z 
--- From 'obj\gui_api.16868AAC.obj'
01:0000AAC0 ?_createDialog@gui_native@@SAXPBUhModule@core@@HPBUhwnd@3@XAAU43@@Z  (Idle)
01:0000AAE0 ?_createDialogIndirect@gui_native@@SAXPBUhModule@core@@PAUdlgTemplate_struct@1@PBUhwnd@3@XAAU63@@Z  (Idle)
01:0000AB00 ?_createDialog@gui_native@@SAXPBUhModule@core@@PB_WPBUhwnd@3@XAAU43@@Z  (Idle)
01:0000AB20 ?_createDialogIndirect@gui_native@@SAXPBUhModule@core@@PAUdlgTemplateEx_struct@1@PBUhwnd@3@XAAU63@@Z  (Idle)
01:0000AB40 ?setScrollRange@gui_api@@SAXPBUhwnd@core@@PBUscrollBar@gui_native@@HHPAUboolean_struct@_builtIn@@@Z  (Idle)
01:0000AB98 ?getScrollRange@gui_api@@SAXPBUhwnd@core@@PBUscrollBar@gui_native@@PAHPAH@Z  (Idle)
01:0000ABD8 ?_getScrollInfo@gui_api@@SAXPBUhwnd@core@@PBUscrollBar@gui_native@@IPAPAUscrollInfo_struct@1@@Z  (Idle)
01:0000AC98 ?_setScrollInfo@gui_api@@SAXPBUhwnd@core@@PBUscrollBar@gui_native@@PAUscrollInfo_struct@1@PAUboolean_struct@_builtIn@@IPAH@Z  (Idle)
01:0000AD20 ?_scrollWindowEx@gui_api@@SAXPBUhwnd@core@@HHPAUrct_struct@vpiDomains@@I3PBUhRgn@gui_native@@PAPAU45@PAH@Z  (Idle)
01:0000AD4C ?_scrollWindowEx2@gui_api@@SAXPBUhwnd@core@@HHPAUrct_struct@vpiDomains@@I3PBUhRgn@gui_native@@3PAH@Z 
01:0000ADA0 ?_getScrollBarInfo@gui_api@@SAXPBUhwnd@core@@IPAPAUscrollBarInfo_struct@1@@Z  (Idle)
01:0000AE98 ?_getUpdateRgn@gui_api@@SAXPBUhwnd@core@@PBUhRgn@gui_native@@PAUboolean_struct@_builtIn@@PAH@Z  (Idle)
01:0000AEF0 ?_tryGetUpdateRect@gui_api@@SAXPBUhwnd@core@@PAUboolean_struct@_builtIn@@PAPAUrct_struct@vpiDomains@@@Z  (Idle)
01:0000AF3C ?isWindowObscured@gui_api@@SAXPBUhwnd@core@@@Z  (Idle)
01:0000AFD8 ?_makePoints@gui_api@@SAXPBUlParam@gui_native@@PAPAUpnt_struct@vpiDomains@@@Z  (Idle)
01:0000B030 ?getInteger16@gui_api@@SAXPBUunsignedNative@_builtIn@@AAUinteger16@core@@1@Z  (Idle)
01:0000B068 ?getUnsigned16@gui_api@@SAXPBUunsignedNative@_builtIn@@AAUunsigned16@core@@1@Z 
01:0000B0A4 ?_makeLParam@gui_api@@SAXPAUpnt_struct@vpiDomains@@AAUlParam@gui_native@@@Z  (Idle)
01:0000B108 ?_getWindowPlacement@gui_api@@SAXPBUhwnd@core@@PAPAUwindowPlacement_struct@1@@Z  (Idle)
01:0000B1B4 ?setWindowPlacement@gui_api@@SAXPBUhwnd@core@@PAUwindowPlacement_struct@1@@Z  (Idle)
01:0000B25C ?_getTextExtentPoint32@gui_api@@SAXPBUhDC@gui_native@@PB_WPAPAUsize_struct@3@@Z  (Idle)
01:0000B290 ?_getTextExtentPoint32@gui_api@@SAXPBUhDC@gui_native@@PB_WPBUcharCount@core@@PAPAUsize_struct@3@@Z 
01:0000B2F8 ?_getTextMetrics@gui_api@@SAXPBUhDC@gui_native@@PAPAUtextmetric_struct@3@@Z  (Idle)
01:0000B34C ?_registerClassEx@gui_api@@SAXIXHHPBUhModule@core@@PBUhIcon@gui_native@@PBUhCursor@5@PBUhBrush@5@PB_W85AAUatom@5@@Z  (Idle)
01:0000B440 ?unregisterClass@gui_api@@SAXPB_WPBUhModule@core@@@Z  (Idle)
01:0000B4D4 ?_createWindowEx@gui_api@@SAXIPB_W1IHHHHPBUhwnd@core@@PBUhMenu@gui_native@@PBUhModule@3@PAXAAU23@@Z  (Idle)
01:0000B590 ?_mkDlgTemplate@gui_api@@SAXPAUdlgTemplate_struct@1@PAPAU2gui_native@@@Z  (Idle)
01:0000BD7C ?writeVarArray@gui_api@@SAXQAVoutputStream@@@PAUvarArray_struct@1@@Z 
01:0000BEA4 ?align32@gui_api@@SAXQAVoutputStream@@@@Z 
01:0000BF68 ?_createDialogIndirectParam@gui_api@@SAXPBUhModule@core@@PAUdlgTemplate_struct@1@PBUhwnd@3@XPBUlParam@gui_native@@AAU63@@Z  (Idle)
01:0000BFC4 ?_beginPaint@gui_api@@SAXPBUhwnd@core@@PAPAUpaintStruct_struct@gui_native@@AAUhDC@5@@Z  (Idle)
01:0000C01C ?endPaint@gui_api@@SAXPBUhwnd@core@@PAUpaintStruct_struct@gui_native@@@Z  (Idle)
01:0000C030 ?_getClientRect@gui_api@@SAXPBUhwnd@core@@PAPAUrct_struct@vpiDomains@@@Z  (Idle)
01:0000C084 ?_getWindow_handle@gui_api@@SAXPBUhwnd@core@@HAAU4_builtIn@@@Z  (Idle)
01:0000C184 ?_setWindow_handle@gui_api@@SAXPBUhwnd@core@@HPBU4_builtIn@@AAU45@@Z  (Idle)
01:0000C1D4 ?_getWindow_integer@gui_api@@SAXPBUhwnd@core@@HPAH@Z  (Idle)
01:0000C204 ?_setWindow_integer@gui_api@@SAXPBUhwnd@core@@HHPAH@Z  (Idle)
01:0000C238 ?_getWindow_unsigned@gui_api@@SAXPBUhwnd@core@@HPAI@Z  (Idle)
01:0000C268 ?_setWindow_unsigned@gui_api@@SAXPBUhwnd@core@@HIPAI@Z  (Idle)
01:0000C29C ?_getWindow_style@gui_api@@SAXPBUhwnd@core@@PAI@Z  (Idle)
01:0000C2B8 ?setWindow_style@gui_api@@SAXPBUhwnd@core@@I@Z  (Idle)
01:0000C2D8 ?_getWindow_exstyle@gui_api@@SAXPBUhwnd@core@@PAI@Z  (Idle)
01:0000C2F4 ?setWindow_exstyle@gui_api@@SAXPBUhwnd@core@@I@Z  (Idle)
01:0000C314 ?_getWindow_wndProc@gui_api@@SAXPBUhwnd@core@@PAX@Z  (Idle)
01:0000C33C ?_setWindow_wndProc@gui_api@@SAXPBUhwnd@core@@XPAX@Z  (Idle)
01:0000C364 ?_getClass_handle@gui_api@@SAXPBUhwnd@core@@HAAU4_builtIn@@@Z  (Idle)
01:0000C3B0 ?_setClass_handle@gui_api@@SAXPBUhwnd@core@@HPBU4_builtIn@@AAU45@@Z  (Idle)
01:0000C400 ?_getClass_integer@gui_api@@SAXPBUhwnd@core@@HPAH@Z  (Idle)
01:0000C430 ?_setClass_integer@gui_api@@SAXPBUhwnd@core@@HHPAH@Z  (Idle)
01:0000C464 ?_getClass_unsigned@gui_api@@SAXPBUhwnd@core@@HPAI@Z  (Idle)
01:0000C494 ?_setClass_unsigned@gui_api@@SAXPBUhwnd@core@@HIPAI@Z  (Idle)
01:0000C4C8 ?extTextOut@gui_api@@SAXPBUhDC@gui_native@@HHIPAUrct_struct@vpiDomains@@PB_W@Z  (Idle)
01:0000C4F4 ?extTextOut@gui_api@@SAXPBUhDC@gui_native@@HHIPAUrct_struct@vpiDomains@@PB_WPAX@Z  (Idle)
01:0000C528 ?extTextOut@gui_api@@SAXPBUhDC@gui_native@@HHIPAUrct_struct@vpiDomains@@PB_WPBUcharCount@core@@PAX@Z 
01:0000C574 ?invalidateRect@gui_api@@SAXPBUhwnd@core@@PAUrct_struct@vpiDomains@@PBUbooleanInt@3@@Z  (Idle)
01:0000C5B4 ?invalidate@gui_api@@SAXPBUhwnd@core@@PBUbooleanInt@3@@Z  (Idle)
01:0000C5CC ?bringWindowToTop@gui_api@@SAXPBUhwnd@core@@@Z  (Idle)
01:0000C604 ?_tryGetForegroundWindow@gui_api@@SAXAAUhwnd@core@@@Z  (Idle)
01:0000C624 ?_setForegroundWindow@gui_api@@SAXPBUhwnd@core@@PAPAUboolean_struct@_builtIn@@@Z  (Idle)
01:0000C654 ?_setFocus@gui_api@@SAXPBUhwnd@core@@AAU23@@Z  (Idle)
01:0000C694 ?_getParent@gui_api@@SAXPBUhwnd@core@@AAU23@@Z  (Idle)
01:0000C6D4 ?_tryGetParent@gui_api@@SAXPBUhwnd@core@@AAU23@@Z  (Idle)
01:0000C6F4 ?_setParent@gui_api@@SAXPBUhwnd@core@@0AAU23@@Z  (Idle)
01:0000C734 ?_clientToScreen@gui_api@@SAXPBUhwnd@core@@PAUpnt_struct@vpiDomains@@PAPAU45@@Z  (Idle)
01:0000C788 ?_screenToClient@gui_api@@SAXPBUhwnd@core@@PAUpnt_struct@vpiDomains@@PAPAU45@@Z  (Idle)
01:0000C7DC ?_alloc_pnt@gui_api@@SAXHHPAPAUpnt_struct@vpiDomains@@@Z 
01:0000C808 ?_adjustWindowRectEx@gui_api@@SAXPAUrct_struct@vpiDomains@@IPAUboolean_struct@_builtIn@@IPAPAU23@@Z  (Idle)
01:0000C880 ?deleteObject@gui_api@@SAXPBUhandle@_builtIn@@@Z  (Idle)
01:0000C890 ?_deleteObject@gui_api@@SAXPBUhandle@_builtIn@@PAPAUboolean_struct@3@@Z  (Idle)
01:0000C8A8 ?_selectObject@gui_api@@SAXPBUhDC@gui_native@@PBUhandle@_builtIn@@AAU45@@Z  (Idle)
01:0000C91C ?_selectObject_region@gui_api@@SAXPBUhDC@gui_native@@PBUhandle@_builtIn@@PAI@Z  (Idle)
01:0000C99C ?selectObjectDeleteOld@gui_api@@SAXPBUhDC@gui_native@@PBUhandle@_builtIn@@@Z  (Idle)
01:0000C9C4 ?_createFontIndirect@gui_api@@SAXPAUlogfont_struct@gui_native@@AAUhFont@3@@Z  (Idle)
01:0000CA14 ?_createAcceleratorTable@gui_api@@SAXPAU?$__packedList_struct@PAUaccel_struct@gui_native@@@@AAUhandle@_builtIn@@@Z  (Idle)
01:0000CAA0 ?fillAccelTable@gui_api@@SAXPAXPAU?$__packedList_struct@PAUaccel_struct@gui_native@@@@@Z 
01:0000CAE8 ?_allocMsg@gui_api@@SAXPAPAUmsg_struct@gui_native@@@Z  (Idle)
01:0000CB0C ?_getMessage_update@gui_api@@SAXPAUmsg_struct@gui_native@@PBUhwnd@core@@IIPAPAUboolean_struct@_builtIn@@@Z  (Idle)
01:0000CB70 ?deleteDC@gui_api@@SAXPBUhDC@gui_native@@@Z  (Idle)
01:0000CB9C ?releaseDC@gui_api@@SAXPBUhwnd@core@@PBUhDC@gui_native@@@Z  (Idle)
01:0000CBB0 ?_releaseDC_result@gui_api@@SAXPBUhwnd@core@@PBUhDC@gui_native@@PAPAUboolean_struct@_builtIn@@@Z  (Idle)
01:0000CBD4 ?_tryGetDC@gui_api@@SAXPBUhwnd@core@@AAUhDC@gui_native@@@Z  (Idle)
01:0000CBF4 ?_getDC@gui_api@@SAXPBUhwnd@core@@AAUhDC@gui_native@@@Z  (Idle)
01:0000CC7C ?_getMenu@gui_api@@SAXPBUhwnd@core@@AAUhMenu@gui_native@@@Z  (Idle)
01:0000CD08 ?_tryGetMenu@gui_api@@SAXPBUhwnd@core@@AAUhMenu@gui_native@@@Z 
01:0000CD4C ?_getMenuItemCount@gui_api@@SAXPBUhMenu@gui_native@@AAUpositive@core@@@Z  (Idle)
01:0000CDC0 ?_getMenuItemInfo_index@gui_api@@SAXPBUhMenu@gui_native@@PBUpositive@core@@IPAPAUmenuItemInfo_struct@3@@Z  (Idle)
01:0000CDF4 ?_getMenuItemInfo_id@gui_api@@SAXPBUhMenu@gui_native@@IIPAPAUmenuItemInfo_struct@3@@Z  (Idle)
01:0000CE1C ?_getMenuItemInfo2@gui_api@@SAXPBUhMenu@gui_native@@IPBUbooleanInt@core@@IPAPAUmenuItemInfo_struct@3@@Z 
01:0000CF5C ?_getMenuItemString_index@gui_api@@SAXPBUhMenu@gui_native@@PBUpositive@core@@PAPB_W@Z  (Idle)
01:0000CF88 ?_getMenuItemString_id@gui_api@@SAXPBUhMenu@gui_native@@IPAPB_W@Z  (Idle)
01:0000CFB4 ?insertMenuItem_first@gui_api@@SAXPBUhMenu@gui_native@@PAUmenuItemInfo_struct@3@@Z  (Idle)
01:0000CFD0 ?insertMenuItem_last@gui_api@@SAXPBUhMenu@gui_native@@PAUmenuItemInfo_struct@3@@Z  (Idle)
01:0000CFEC ?insertMenuItem_beforeIndex@gui_api@@SAXPBUhMenu@gui_native@@PBUpositiveOptional@core@@PAUmenuItemInfo_struct@3@@Z 
01:0000D014 ?insertMenuItem_beforeId@gui_api@@SAXPBUhMenu@gui_native@@IPAUmenuItemInfo_struct@3@@Z  (Idle)
01:0000D030 ?insertMenuItem2@gui_api@@SAXPBUhMenu@gui_native@@IPBUbooleanInt@core@@PAUmenuItemInfo_struct@3@@Z 
01:0000D070 ?endMenu@gui_api@@SAXXZ  (Idle)
01:0000D0A4 ?_messageBox@gui_api@@SAXPBUhwnd@core@@PB_W1IPAH@Z  (Idle)
01:0000D0EC ?_messageBoxEx@gui_api@@SAXPBUhwnd@core@@PB_W1IPBUinteger16@3@PAH@Z  (Idle)
01:0000D138 ?moveWindow@gui_api@@SAXPBUhwnd@core@@HHHHPAUboolean_struct@_builtIn@@@Z  (Idle)
01:0000D190 ?_mkW@gui_api@@SAXHAAUwParam@gui_native@@@Z  (Idle)
01:0000D1A0 ?_mkL@gui_api@@SAXHAAUlParam@gui_native@@@Z  (Idle)
01:0000D1B0 ?_mkR@gui_api@@SAXHAAUlResult@gui_native@@@Z  (Idle)
01:0000D1C0 ?_makeIntResource@gui_api@@SAXIPAPB_W@Z  (Idle)
01:0000D1E4 ?isCtrlColorMsg@gui_api@@SAXI@Z  (Idle)
01:0000D230 ?destroyWindow@gui_api@@SAXPBUhwnd@core@@@Z  (Idle)
01:0000D268 ?_getText@gui_api@@SAXPBUhwnd@core@@PAPB_W@Z  (Idle)
01:0000D2D8 ?setText@gui_api@@SAXPBUhwnd@core@@PB_W@Z  (Idle)
01:0000D30C ?_getWindowRect@gui_api@@SAXPBUhwnd@core@@PAPAUrct_struct@vpiDomains@@@Z  (Idle)
01:0000D360 ?_loadImage_file@gui_api@@SAXPB_WIPBUpositive@core@@2IAAUhandle@_builtIn@@@Z  (Idle)
01:0000D3E4 ?_loadImage_oem@gui_api@@SAXPBUresid@vpiDomains@@IPBUpositive@core@@2IAAUhandle@_builtIn@@@Z  (Idle)
01:0000D448 ?_loadImage_resId@gui_api@@SAXPBUresid@vpiDomains@@IPBUpositive@core@@2IAAUhandle@_builtIn@@@Z  (Idle)
01:0000D4C4 ?_loadImage_resId@gui_api@@SAXPBUhModule@core@@PBUresid@vpiDomains@@IPBUpositive@3@3IAAUhandle@_builtIn@@@Z  (Idle)
01:0000D524 ?_loadImage@gui_api@@SAXPBUhModule@core@@PB_WIPBUpositive@3@3IPAUvalue_struct@3@AAUhandle@_builtIn@@@Z 
01:0000D5C0 ?_getWindowThreadProcessId@gui_api@@SAXPBUhwnd@core@@AAUprocessID@multiThread_native@@AAUthreadID@5@@Z  (Idle)
01:0000D600 ?attachThreadInput@gui_api@@SAXIIPAUboolean_struct@_builtIn@@@Z  (Idle)
01:0000D650 ?_setActiveWindow@gui_api@@SAXPBUhwnd@core@@AAU23@@Z  (Idle)
01:0000D68C ?rectangle@gui_api@@SAXPBUhDC@gui_native@@PAUrct_struct@vpiDomains@@@Z  (Idle)
01:0000D6D0 ?rectangle@gui_api@@SAXPBUhDC@gui_native@@HHHH@Z 
01:0000D708 ?angleArc@gui_api@@SAXPBUhDC@gui_native@@HHIPANPAN@Z  (Idle)
01:0000D794 ?arc@gui_api@@SAXPBUhDC@gui_native@@HHHHHHHH@Z  (Idle)
01:0000D7D8 ?arcTo@gui_api@@SAXPBUhDC@gui_native@@HHHHHHHH@Z  (Idle)
01:0000D81C ?_getArcDirection@gui_api@@SAXPBUhDC@gui_native@@PAH@Z  (Idle)
01:0000D834 ?_setArcDirection@gui_api@@SAXPBUhDC@gui_native@@HPAH@Z  (Idle)
01:0000D86C ?_moveTo@gui_api@@SAXPBUhDC@gui_native@@HHPAPAUpnt_struct@vpiDomains@@@Z  (Idle)
01:0000D93C ?moveTo@gui_api@@SAXPBUhDC@gui_native@@HH@Z  (Idle)
01:0000D9F4 ?lineTo@gui_api@@SAXPBUhDC@gui_native@@HH@Z  (Idle)
01:0000DAAC ?polyBezier@gui_api@@SAXPBUhDC@gui_native@@PAU?$__packedList_struct@PAUpnt_struct@vpiDomains@@@@@Z  (Idle)
01:0000DB7C ?polyBezierTo@gui_api@@SAXPBUhDC@gui_native@@PAU?$__packedList_struct@PAUpnt_struct@vpiDomains@@@@@Z  (Idle)
01:0000DC4C ?polyDraw@gui_api@@SAXPBUhDC@gui_native@@PAU?$__packedList_struct@PAUpnt_struct@vpiDomains@@@@PAU?$__packedList_struct@PBUunsigned8@core@@@@@Z  (Idle)
01:0000DDA4 ?polyline@gui_api@@SAXPBUhDC@gui_native@@PAU?$__packedList_struct@PAUpnt_struct@vpiDomains@@@@@Z  (Idle)
01:0000DE74 ?polylineTo@gui_api@@SAXPBUhDC@gui_native@@PAU?$__packedList_struct@PAUpnt_struct@vpiDomains@@@@@Z  (Idle)
01:0000DF44 ?polyPolyline@gui_api@@SAXPBUhDC@gui_native@@PAU?$__packedList_struct@PAUpnt_struct@vpiDomains@@@@PAU?$__packedList_struct@H@@@Z  (Idle)
01:0000E040 ?chord@gui_api@@SAXPBUhDC@gui_native@@HHHHHHHH@Z  (Idle)
01:0000E084 ?chord@gui_api@@SAXPBUhDC@gui_native@@PAUrct_struct@vpiDomains@@HHHH@Z  (Idle)
01:0000E0F8 ?ellipse@gui_api@@SAXPBUhDC@gui_native@@HHHH@Z  (Idle)
01:0000E1C0 ?ellipse@gui_api@@SAXPBUhDC@gui_native@@PAUrct_struct@vpiDomains@@@Z  (Idle)
01:0000E204 ?fillRect@gui_api@@SAXPBUhDC@gui_native@@PAUrct_struct@vpiDomains@@PBUhBrush@3@@Z  (Idle)
01:0000E2A0 ?fillRectSystemColor@gui_api@@SAXPBUhDC@gui_native@@PAUrct_struct@vpiDomains@@H@Z  (Idle)
01:0000E344 ?frameRect@gui_api@@SAXPBUhDC@gui_native@@PAUrct_struct@vpiDomains@@PBUhBrush@3@@Z  (Idle)
01:0000E3E0 ?invertRect@gui_api@@SAXPBUhDC@gui_native@@PAUrct_struct@vpiDomains@@@Z  (Idle)
01:0000E47C ?pie@gui_api@@SAXPBUhDC@gui_native@@PAUrct_struct@vpiDomains@@HHHH@Z  (Idle)
01:0000E4F0 ?pie@gui_api@@SAXPBUhDC@gui_native@@HHHHHHHH@Z 
01:0000E534 ?roundRect@gui_api@@SAXPBUhDC@gui_native@@PAUrct_struct@vpiDomains@@HH@Z  (Idle)
01:0000E590 ?roundRect@gui_api@@SAXPBUhDC@gui_native@@HHHHHH@Z 
01:0000E5D0 ?drawFocusRect@gui_api@@SAXPBUhDC@gui_native@@PAUrct_struct@vpiDomains@@@Z  (Idle)
01:0000E66C ?polygon@gui_api@@SAXPBUhDC@gui_native@@PAU?$__packedList_struct@PAUpnt_struct@vpiDomains@@@@@Z  (Idle)
01:0000E73C ?polyPolygon@gui_api@@SAXPBUhDC@gui_native@@PAU?$__packedList_struct@PAU?$__packedList_struct@PAUpnt_struct@vpiDomains@@@@@@@Z  (Idle)
01:0000E8B4 ?_getROP2@gui_api@@SAXPBUhDC@gui_native@@PAI@Z  (Idle)
01:0000E8E8 ?_setROP2@gui_api@@SAXPBUhDC@gui_native@@IPAI@Z  (Idle)
01:0000E920 ?_setPixel@gui_api@@SAXPBUhDC@gui_native@@HHPBUcolor@vpiDomains@@AAU45@@Z  (Idle)
01:0000E940 ?trackMouseEvent@gui_api@@SAXPAUtrackMouseEvent_struct@gui_native@@@Z  (Idle)
01:0000E978 ?trackMouseHover@gui_api@@SAXPBUhwnd@core@@@Z  (Idle)
01:0000E9B0 ?trackMouseLeave@gui_api@@SAXPBUhwnd@core@@@Z  (Idle)
01:0000E9E8 ?setWindowPos@gui_api@@SAXPBUhwnd@core@@0HHHHI@Z  (Idle)
01:0000EA34 ?updateLayeredWindow@gui_api@@SAXPBUhwnd@core@@PBUhDC@gui_native@@PAUpnt_struct@vpiDomains@@PAUsize_struct@5@12PBUcolor@7@PAUblendFunction_struct@5@I@Z  (Idle)
01:0000EA84 ?_getStockObject@gui_api@@SAXHAAUhandle@_builtIn@@@Z  (Idle)
01:0000EAF0 ?_monitorFromPoint@gui_api@@SAXPAUpnt_struct@vpiDomains@@IAAUhMonitor@gui_native@@@Z  (Idle)
01:0000EB10 ?_monitorFromRect@gui_api@@SAXPAUrct_struct@vpiDomains@@IAAUhMonitor@gui_native@@@Z  (Idle)
01:0000EB28 ?_monitorFromWindow@gui_api@@SAXPBUhwnd@core@@IAAUhMonitor@gui_native@@@Z  (Idle)
01:0000EB40 ?_getMonitorInfo@gui_api@@SAXPBUhMonitor@gui_native@@PAPAUmonitorInfo_struct@1@@Z  (Idle)
01:0000EC44 ?_getDummy@gui_api@@SAXPAH@Z 
01:0000EC58 ?_mkKeyDown@gui_api@@SAXPBUunsigned16@core@@PAPAUinput_struct@gui_native@@@Z  (Idle)
01:0000EC88 ?_mkKeyUp@gui_api@@SAXPBUunsigned16@core@@PAPAUinput_struct@gui_native@@@Z  (Idle)
01:0000ECBC ?_mkKeyInputStructure@gui_api@@SAXPBUunsigned16@core@@0IIPBUlParam@gui_native@@PAPAUinput_struct@7@@Z 
01:0000ED48 ?sendinput/1np$1@gui_api@@SAXPAUsendinput/1np$1_struct@1@PAXPAUinput_struct@gui_native@@@Z 
01:0000ED64 ?sendInput@gui_api@@SAXPAU?$__packedList_struct@PAUinput_struct@gui_native@@@@@Z  (Idle)
01:0000EE7C ?_getMenuItemRect@gui_api@@SAXPBUhwnd@core@@PBUhMenu@gui_native@@PBUpositive@3@PAPAUrct_struct@vpiDomains@@@Z  (Idle)
01:0000EED8 ?_setTimer@gui_api@@SAXPBUunsignedNative@_builtIn@@PBUpositive@core@@XAAU23@@Z  (Idle)
01:0000EF10 ?setTimer@gui_api@@SAXPBUhwnd@core@@PBUunsignedNative@_builtIn@@PBUpositive@3@X@Z  (Idle)
01:0000EF34 ?_setTimer@gui_api@@SAXPBUhwnd@core@@PBUunsignedNative@_builtIn@@PBUpositive@3@XAAU45@@Z 
01:0000EF80 ?killTimer@gui_api@@SAXPBUhwnd@core@@PBUunsignedNative@_builtIn@@@Z  (Idle)
01:0000EFBC ?_getIconInfo@gui_api@@SAXPBUhIcon@gui_native@@PAPAUiconInfo_struct@3@@Z  (Idle)
01:0000F068 ?destroyIcon@gui_api@@SAXPBUhIcon@gui_native@@@Z  (Idle)
01:0000F0A0 ?_enableWindow@gui_api@@SAXPBUhwnd@core@@PAUboolean_struct@_builtIn@@PAPAU45@@Z  (Idle)
01:0000F0D8 ?tryTranslateAccelerator@gui_api@@SAXPBUhwnd@core@@PBUhandle@_builtIn@@PAUmsg_struct@gui_native@@@Z  (Idle)
01:0000F0F8 ?isDialogMessage@gui_api@@SAXPBUhwnd@core@@PAUmsg_struct@gui_native@@@Z  (Idle)
01:0000F118 ?_tryGetNameOfMessage@gui_api@@SAXIPAPB_W@Z 
01:0000F170 ?postMessage@gui_api@@SAXPBUhwnd@core@@IPBUwParam@gui_native@@PBUlParam@5@@Z  (Idle)
01:0000F1B0 ?_getObject_logfont@gui_api@@SAXPBUhFont@gui_native@@PAPAUlogfont_struct@3@@Z  (Idle)
01:0000F1DC ?_getObject@gui_api@@SAXQAVrTypeLibrary@TypeLibraries@RunTime@VIP@@PBUhandle@_builtIn@@PAX@Z 
01:0000F23C ?showScrollBar@gui_api@@SAXPBUhwnd@core@@PBUscrollBar@gui_native@@PAUboolean_struct@_builtIn@@@Z  (Idle)
01:0000F28C ?_createPen@gui_api@@SAXHHPBUcolor@vpiDomains@@AAUhPen@gui_native@@@Z  (Idle)
01:0000F2C4 ?_createPalette@gui_api@@SAXPAUlogPalette_struct@gui_native@@AAUhPalette@3@@Z  (Idle)
01:0000F2F8 ?_selectPalette@gui_api@@SAXPBUhDC@gui_native@@PBUhPalette@3@PAUboolean_struct@_builtIn@@AAU43@@Z  (Idle)
01:0000F344 ?_realizePalette@gui_api@@SAXPBUhDC@gui_native@@PAI@Z  (Idle)
01:0000F378 ?_getTextFace@gui_api@@SAXPBUhDC@gui_native@@PAPB_W@Z  (Idle)
01:0000F3E8 ?_drawText@gui_api@@SAXPBUhDC@gui_native@@PB_WPAUrct_struct@vpiDomains@@IPAH@Z  (Idle)
01:0000F418 ?_drawText@gui_api@@SAXPBUhDC@gui_native@@PB_WPBUcharCountOptional@core@@PAUrct_struct@vpiDomains@@IPAH@Z 
01:0000F458 ?_selectClipRgn@gui_api@@SAXPBUhDC@gui_native@@PBUhRgn@3@PAH@Z  (Idle)
01:0000F490 ?_setBkColor@gui_api@@SAXPBUhDC@gui_native@@PBUcolor@vpiDomains@@AAU45@@Z  (Idle)
01:0000F4C8 ?_setBkMode@gui_api@@SAXPBUhDC@gui_native@@HPAH@Z  (Idle)
01:0000F500 ?_setTextColor@gui_api@@SAXPBUhDC@gui_native@@PBUcolor@vpiDomains@@AAU45@@Z  (Idle)
01:0000F538 ?_getDlgItem@gui_api@@SAXPBUhwnd@core@@HAAU23@@Z  (Idle)
01:0000F608 ?_getCursorPosX@gui_api@@SAXPAPAUpnt_struct@vpiDomains@@@Z  (Idle)
01:0000F658 ?_getCursorPos@gui_api@@SAXPAPAUpnt_struct@vpiDomains@@@Z  (Idle)
01:0000F690 ?_getCursorPos@gui_api@@SAXPBUhwnd@core@@PAPAUpnt_struct@vpiDomains@@@Z  (Idle)
01:0000F6C0 ?_getMessagePos@gui_api@@SAXPAPAUpnt_struct@vpiDomains@@@Z 
01:0000F734 ?_compareToInt@gui_api@@SAXPAUcompareResult_struct@_builtIn@@PAH@Z  (Idle)
01:0000F764 gui_api_getParam 
01:0000F774 ?getInteger16@gui_api@@SAXPBUintegerNative@_builtIn@@AAUinteger16@core@@1@Z  (Idle)
01:0000F7AC ?getInteger16@gui_api@@SAXPBUwParam@gui_native@@AAUinteger16@core@@1@Z  (Idle)
01:0000F7E4 ?getInteger16@gui_api@@SAXPBUlParam@gui_native@@AAUinteger16@core@@1@Z 
01:0000F81C ?getInteger16@gui_api@@SAXPBUlResult@gui_native@@AAUinteger16@core@@1@Z  (Idle)
01:0000F854 ?getUnsigned16@gui_api@@SAXPBUintegerNative@_builtIn@@AAUunsigned16@core@@1@Z 
01:0000F890 ?getUnsigned16@gui_api@@SAXPBUwParam@gui_native@@AAUunsigned16@core@@1@Z 
01:0000F8CC ?getUnsigned16@gui_api@@SAXPBUlParam@gui_native@@AAUunsigned16@core@@1@Z 
01:0000F908 ?getUnsigned16@gui_api@@SAXPBUlResult@gui_native@@AAUunsigned16@core@@1@Z 
01:0000F944 ?_createWindowEx@gui_api@@SAXIPBUatom@gui_native@@PB_WIHHHHPBUhwnd@core@@PBUhMenu@3@PBUhModule@5@PAXAAU45@@Z  (Idle)
01:0000FA08 ?_createFontIndirect@gui_api@@SAXPBUfont@vpiDomains@@AAUhFont@gui_native@@@Z  (Idle)
01:0000FA58 ?_mkW@gui_api@@SAXIAAUwParam@gui_native@@@Z  (Idle)
01:0000FA68 ?_mkL@gui_api@@SAXIAAUlParam@gui_native@@@Z  (Idle)
01:0000FA78 ?_mkR@gui_api@@SAXIAAUlResult@gui_native@@@Z  (Idle)
--- From 'obj\registry.917E8C91.obj'
01:0000FA90 ?_regOpenKeyEx@registry_api@@SAXPBUhKey@registry_native@@PB_WPBUregsAM@3@AAU23@@Z 
01:0000FAD4 ?_regTryOpenKeyEx@registry_api@@SAXPBUhKey@registry_native@@PB_WPBUregsAM@3@AAU23@@Z 
01:0000FAFC ?regCloseKey@registry_api@@SAXPBUhKey@registry_native@@@Z 
01:0000FB88 ?_regCreateKeyEx@registry_api@@SAXPBUhKey@registry_native@@PB_WIPBUregsAM@3@PAUsecurityAttr_struct@3@PAIAAU23@@Z 
01:0000FBD0 ?regDeleteKey@registry_api@@SAXPBUhKey@registry_native@@PB_W@Z 
01:0000FC0C ?regDeleteKeyEx@registry_api@@SAXPBUhKey@registry_native@@PB_WPBUregsAM@3@@Z 
01:0000FC4C ?_regEnumKeyEx@registry_api@@SAXPBUhKey@registry_native@@PAPAU?$__packedList_struct@PAPB_W@@@Z 
--- From 'obj\registry_api.337CB6E1.obj'
01:0000FCE4 ?_regEnumKeyEx1@registry_api@@SAXPBUhKey@registry_native@@IPB_WPBUcharCount@core@@PAPAU?$__packedList_struct@PAPB_W@@@Z 
01:0000FD5C ?_tryRegEnumKeyExOne@registry_api@@SAXPBUhKey@registry_native@@IPB_WPBUcharCount@core@@PAPB_W@Z 
--- From 'obj\registry.917E8C91.obj'
01:0000FE8C ?regSetValueEx@registry_api@@SAXPBUhKey@registry_native@@PB_WPAUvalue_struct@core@@@Z 
01:0000FEFC ?_regQueryValueEx@registry_api@@SAXPBUhKey@registry_native@@PB_WPAPAUvalue_struct@core@@@Z 
01:0000FF60 ?_regTryQueryValueEx@registry_api@@SAXPBUhKey@registry_native@@PB_WPAPAUvalue_struct@core@@@Z 
--- From 'obj\registry_api.337CB6E1.obj'
01:0000FFB4 ?_regQueryValueEx1@registry_api@@SAXPBUhKey@registry_native@@PB_WPAUpByteCount_struct@memory@@PAPAUvalue_struct@core@@@Z 
01:00010030 ?regDeleteValue@registry_api@@SAXPBUhKey@registry_native@@PB_W@Z  (Idle)
--- From 'obj\registry.917E8C91.obj'
01:00010064 ?regDeleteValueIfExist@registry_api@@SAXPBUhKey@registry_native@@PB_W@Z 
01:000100A4 ?_regEnumValue@registry_api@@SAXPBUhKey@registry_native@@PAPAU?$__packedList_struct@PAPAUnamedValue_struct@core@@PAPAUvalue_struct@5@@@@Z 
--- From 'obj\registry_api.337CB6E1.obj'
01:000100E8 ?_regEnumValue1@registry_api@@SAXPBUhKey@registry_native@@IPB_WPBUcharCount@core@@PAPAU?$__packedList_struct@PAPAUnamedValue_struct@5@PAPAUvalue_struct@5@@@@Z 
01:00010160 ?_tryRegEnumValueOne@registry_api@@SAXPBUhKey@registry_native@@IPB_WPBUcharCount@core@@PAPAUnamedValue_struct@5@PAPAUvalue_struct@5@@Z 
01:000104AC ?_packValue@registry_api@@SAXIPAXPBUbyteCount@core@@PAPAUvalue_struct@3@@Z 
01:00010770 ?unpackValue@registry_api@@SAXPAUvalue_struct@core@@PAIPAPAXAAUbyteCount@3@@Z 
01:00010B94 ?_convertToStringList@registry_api@@SAXPAXPBUbyteCount@core@@PAPAU?$__packedList_struct@PAPB_W@@@Z 
01:00010C50 ?check_name_value@registry_api@@SAXPBUhResult@core@@PB_W1PAUvalue_struct@3@@Z 
01:00010D04 ?check_name@registry_api@@SAXPBUhResult@core@@PB_W1@Z 
--- From 'obj\list.A75CEA31.obj'
01:00010D90 ?_comparelexically/1nf$1@list@@SAXPAUcomparelexically/1nf$1_struct@1@PAU?$__packedList_struct@X@@1PAPAUcompareResult_struct@_builtIn@@@Z 
01:00010DE8 ?_compareLexically@list@@SAXQAVrTypeLibrary@TypeLibraries@RunTime@VIP@@0PA$?_comparator$2@core@@SAXXXPAPAUcompareResult_struct@_builtIn@@@Z$PAPA$?_comparator$2@core@@SAXPAU?$__packedList_struct@X@@0PAPAUcompareResult_struct@_builtIn@@@Z$@Z  (Idle)
01:00010E28 ?_compareLexically@list@@SAXQAVrTypeLibrary@TypeLibraries@RunTime@VIP@@0PA$?_comparator$2@core@@SAXXXPAPAUcompareResult_struct@_builtIn@@@Z$PAU?$__packedList_struct@X@@3PAPAU23@@Z 
01:00010EEC ?_length2@list@@SAXQAVrTypeLibrary@TypeLibraries@RunTime@VIP@@PAU?$__packedList_struct@X@@PBUpositive@core@@AAU23@@Z  (Idle)
--- From 'obj\memory.568C55F8.obj'
01:00010F20 ?_length@list@@SAXQAVrTypeLibrary@TypeLibraries@RunTime@VIP@@PAU?$__packedList_struct@X@@AAUpositive@core@@@Z 
--- From 'obj\list.A75CEA31.obj'
01:00010F38 ?isMember@list@@SAXQAVrTypeLibrary@TypeLibraries@RunTime@VIP@@XPAU?$__packedList_struct@X@@@Z  (Idle)
01:00010F9C ?isMemberEq@list@@SAXQAVrTypeLibrary@TypeLibraries@RunTime@VIP@@0PA$?predicate_dt$2@core@@SAXXX@Z$XPAU?$__packedList_struct@X@@@Z  (Idle)
01:0001101C ?isMemberBy@list@@SAXQAVrTypeLibrary@TypeLibraries@RunTime@VIP@@0PA$?_comparator$2@core@@SAXXXPAPAUcompareResult_struct@_builtIn@@@Z$XPAU?$__packedList_struct@X@@@Z  (Idle)
01:00011048 ?comp2eq/1nf$1@list@@SAXPAUcomp2eq/1nf$1_struct@1@XX@Z 
01:00011084 ?_comp2eq@list@@SAXQAVrTypeLibrary@TypeLibraries@RunTime@VIP@@0PA$?_comparator$2@core@@SAXXXPAPAUcompareResult_struct@_builtIn@@@Z$PAPA$?predicate_dt$2@core@@SAXXX@Z$@Z 
01:000110C4 ?_tryGetMemberBy@list@@SAXQAVrTypeLibrary@TypeLibraries@RunTime@VIP@@00PA$?_comparator$2@core@@SAXXXPAPAUcompareResult_struct@_builtIn@@@Z$XPAU?$__packedList_struct@X@@PAX@Z  (Idle)
01:000110EC ?_tryGetMemberEq@list@@SAXQAVrTypeLibrary@TypeLibraries@RunTime@VIP@@00PA$?predicate_dt$2@core@@SAXXX@Z$XPAU?$__packedList_struct@X@@PAX@Z 
01:00011178 ?_getMember_nd@list@@SAXQAVrTypeLibrary@TypeLibraries@RunTime@VIP@@PAU?$__packedList_struct@X@@PAX@Z  (Idle)
01:000111E4 ?_getTupleMember_nd@list@@SAXQAVrTypeLibrary@TypeLibraries@RunTime@VIP@@0PAUtuple_struct@core@@PAU?$__packedList_struct@X@@PAU?$__packedList_struct@X@@PAPAU23@PAXPAX@Z  (Idle)
01:00011218 ?memberIndexAcc_nd@list@@SAXQAVrTypeLibrary@TypeLibraries@RunTime@VIP@@PAXAAUpositive@core@@PAU?$__packedList_struct@X@@PBU23@@Z  (Idle)
--- From 'obj\exception.B6F320E8.obj'
01:00011284 ?memberIndex_nd@list@@SAXQAVrTypeLibrary@TypeLibraries@RunTime@VIP@@PAXAAUpositive@core@@PAU?$__packedList_struct@X@@@Z 
--- From 'obj\list.A75CEA31.obj'
01:00011294 ?_zipHead_nd@list@@SAXQAVrTypeLibrary@TypeLibraries@RunTime@VIP@@0PAU?$__packedList_struct@X@@2PAPAUtuple_struct@core@@PAXPAX@Z  (Idle)
01:00011338 ?_zip_nd@list@@SAXQAVrTypeLibrary@TypeLibraries@RunTime@VIP@@0PAU?$__packedList_struct@X@@2PAPAUtuple_struct@core@@PAXPAX@Z 
01:00011404 ?_zip_nd@list@@SAXQAVrTypeLibrary@TypeLibraries@RunTime@VIP@@00PAU?$__packedList_struct@X@@33PAPAUtuple_struct@core@@PAXPAXPAX@Z  (Idle)
01:00011568 ?_zip_nd@list@@SAXQAVrTypeLibrary@TypeLibraries@RunTime@VIP@@000PAU?$__packedList_struct@X@@444PAPAUtuple_struct@core@@PAXPAXPAXPAX@Z  (Idle)
01:000117CC ?_zip_nd@list@@SAXQAVrTypeLibrary@TypeLibraries@RunTime@VIP@@0000PAU?$__packedList_struct@X@@5555PAPAUtuple_struct@core@@PAXPAXPAXPAXPAX@Z  (Idle)
01:00011AB0 ?_zip_nd@list@@SAXQAVrTypeLibrary@TypeLibraries@RunTime@VIP@@00000PAU?$__packedList_struct@X@@66666PAPAUtuple_struct@core@@PAXPAXPAXPAXPAXPAX@Z  (Idle)
01:00011E08 ?_zip_nd@list@@SAXQAVrTypeLibrary@TypeLibraries@RunTime@VIP@@000000PAU?$__packedList_struct@X@@777777PAPAUtuple_struct@core@@PAXPAXPAXPAXPAXPAXPAX@Z  (Idle)
01:000121C4 ?_zip_nd@list@@SAXQAVrTypeLibrary@TypeLibraries@RunTime@VIP@@0000000PAU?$__packedList_struct@X@@8888888PAPAUtuple_struct@core@@PAXPAXPAXPAXPAXPAXPAXPAX@Z  (Idle)
01:00012630 ?_zip_nd@list@@SAXQAVrTypeLibrary@TypeLibraries@RunTime@VIP@@00000000PAU?$__packedList_struct@X@@99999999PAPAUtuple_struct@core@@PAXPAXPAXPAXPAXPAXPAXPAXPAX@Z  (Idle)
01:00012B58 ?_zip_nd@list@@SAXQAVrTypeLibrary@TypeLibraries@RunTime@VIP@@000000000PAU?$__packedList_struct@X@@101010101010101010PAPAUtuple_struct@core@@PAXPAXPAXPAXPAXPAXPAXPAXPAXPAX@Z  (Idle)
01:0001312C ?_zip_nd@list@@SAXQAVrTypeLibrary@TypeLibraries@RunTime@VIP@@0000000000PAU?$__packedList_struct@X@@11111111111111111111PAPAUtuple_struct@core@@PAXPAXPAXPAXPAXPAXPAXPAXPAXPAXPAX@Z  (Idle)
01:000137A0 ?_zip_nd@list@@SAXQAVrTypeLibrary@TypeLibraries@RunTime@VIP@@00000000000PAU?$__packedList_struct@X@@1212121212121212121212PAPAUtuple_struct@core@@PAXPAXPAXPAXPAXPAXPAXPAXPAXPAXPAXPAX@Z  (Idle)
01:00013EA8 ?_zipWith@list@@SAXQAVrTypeLibrary@TypeLibraries@RunTime@VIP@@00PA$?_function$3@core@@SAXXXPAX@Z$PAU?$__packedList_struct@X@@4PAPAU?$__packedList_struct@PAX@@@Z  (Idle)
01:00013F54 ?_zip@list@@SAXQAVrTypeLibrary@TypeLibraries@RunTime@VIP@@0PAU?$__packedList_struct@X@@2PAPAU?$__packedList_struct@PAPAUtuple_struct@core@@PAXPAX@@@Z  (Idle)
01:00013FC0 ?_zip@list@@SAXQAVrTypeLibrary@TypeLibraries@RunTime@VIP@@00PAU?$__packedList_struct@X@@33PAPAU?$__packedList_struct@PAPAUtuple_struct@core@@PAXPAXPAX@@@Z  (Idle)
01:00014030 ?_zip@list@@SAXQAVrTypeLibrary@TypeLibraries@RunTime@VIP@@000PAU?$__packedList_struct@X@@444PAPAU?$__packedList_struct@PAPAUtuple_struct@core@@PAXPAXPAXPAX@@@Z  (Idle)
01:000140A8 ?_zip@list@@SAXQAVrTypeLibrary@TypeLibraries@RunTime@VIP@@0000PAU?$__packedList_struct@X@@5555PAPAU?$__packedList_struct@PAPAUtuple_struct@core@@PAXPAXPAXPAXPAX@@@Z  (Idle)
01:00014124 ?_zip@list@@SAXQAVrTypeLibrary@TypeLibraries@RunTime@VIP@@00000PAU?$__packedList_struct@X@@66666PAPAU?$__packedList_struct@PAPAUtuple_struct@core@@PAXPAXPAXPAXPAXPAX@@@Z  (Idle)
01:000141A8 ?_zip@list@@SAXQAVrTypeLibrary@TypeLibraries@RunTime@VIP@@000000PAU?$__packedList_struct@X@@777777PAPAU?$__packedList_struct@PAPAUtuple_struct@core@@PAXPAXPAXPAXPAXPAXPAX@@@Z  (Idle)
01:00014230 ?_zip@list@@SAXQAVrTypeLibrary@TypeLibraries@RunTime@VIP@@0000000PAU?$__packedList_struct@X@@8888888PAPAU?$__packedList_struct@PAPAUtuple_struct@core@@PAXPAXPAXPAXPAXPAXPAXPAX@@@Z  (Idle)
01:000142C0 ?_zip@list@@SAXQAVrTypeLibrary@TypeLibraries@RunTime@VIP@@00000000PAU?$__packedList_struct@X@@99999999PAPAU?$__packedList_struct@PAPAUtuple_struct@core@@PAXPAXPAXPAXPAXPAXPAXPAXPAX@@@Z  (Idle)
01:00014354 ?_zip@list@@SAXQAVrTypeLibrary@TypeLibraries@RunTime@VIP@@000000000PAU?$__packedList_struct@X@@101010101010101010PAPAU?$__packedList_struct@PAPAUtuple_struct@core@@PAXPAXPAXPAXPAXPAXPAXPAXPAXPAX@@@Z  (Idle)
01:000143F0 ?_zip@list@@SAXQAVrTypeLibrary@TypeLibraries@RunTime@VIP@@0000000000PAU?$__packedList_struct@X@@11111111111111111111PAPAU?$__packedList_struct@PAPAUtuple_struct@core@@PAXPAXPAXPAXPAXPAXPAXPAXPAXPAXPAX@@@Z  (Idle)
01:00014490 ?_zip@list@@SAXQAVrTypeLibrary@TypeLibraries@RunTime@VIP@@00000000000PAU?$__packedList_struct@X@@1212121212121212121212PAPAU?$__packedList_struct@PAPAUtuple_struct@core@@PAXPAXPAXPAXPAXPAXPAXPAXPAXPAXPAXPAX@@@Z  (Idle)
01:00014538 ?unzip@list@@SAXQAVrTypeLibrary@TypeLibraries@RunTime@VIP@@0PAU?$__packedList_struct@PAUtuple_struct@core@@XX@@PAPAU?$__packedList_struct@PAX@@3@Z  (Idle)
01:000145E8 ?unzip@list@@SAXQAVrTypeLibrary@TypeLibraries@RunTime@VIP@@00PAU?$__packedList_struct@PAUtuple_struct@core@@XXX@@PAPAU?$__packedList_struct@PAX@@44@Z  (Idle)
01:000146DC ?unzip@list@@SAXQAVrTypeLibrary@TypeLibraries@RunTime@VIP@@000PAU?$__packedList_struct@PAUtuple_struct@core@@XXXX@@PAPAU?$__packedList_struct@PAX@@555@Z  (Idle)
01:00014810 ?unzip@list@@SAXQAVrTypeLibrary@TypeLibraries@RunTime@VIP@@0000PAU?$__packedList_struct@PAUtuple_struct@core@@XXXXX@@PAPAU?$__packedList_struct@PAX@@6666@Z  (Idle)
01:00014988 ?unzip@list@@SAXQAVrTypeLibrary@TypeLibraries@RunTime@VIP@@00000PAU?$__packedList_struct@PAUtuple_struct@core@@XXXXXX@@PAPAU?$__packedList_struct@PAX@@77777@Z  (Idle)
01:00014B44 ?unzip@list@@SAXQAVrTypeLibrary@TypeLibraries@RunTime@VIP@@000000PAU?$__packedList_struct@PAUtuple_struct@core@@XXXXXXX@@PAPAU?$__packedList_struct@PAX@@888888@Z  (Idle)
01:00014D44 ?unzip@list@@SAXQAVrTypeLibrary@TypeLibraries@RunTime@VIP@@0000000PAU?$__packedList_struct@PAUtuple_struct@core@@XXXXXXXX@@PAPAU?$__packedList_struct@PAX@@9999999@Z  (Idle)
01:00014FAC ?unzip@list@@SAXQAVrTypeLibrary@TypeLibraries@RunTime@VIP@@00000000PAU?$__packedList_struct@PAUtuple_struct@core@@XXXXXXXXX@@PAPAU?$__packedList_struct@PAX@@1010101010101010@Z  (Idle)
01:00015274 ?unzip@list@@SAXQAVrTypeLibrary@TypeLibraries@RunTime@VIP@@000000000PAU?$__packedList_struct@PAUtuple_struct@core@@XXXXXXXXXX@@PAPAU?$__packedList_struct@PAX@@111111111111111111@Z  (Idle)
01:000155B0 ?unzip@list@@SAXQAVrTypeLibrary@TypeLibraries@RunTime@VIP@@0000000000PAU?$__packedList_struct@PAUtuple_struct@core@@XXXXXXXXXXX@@PAPAU?$__packedList_struct@PAX@@12121212121212121212@Z  (Idle)
01:00015954 ?unzip@list@@SAXQAVrTypeLibrary@TypeLibraries@RunTime@VIP@@00000000000PAU?$__packedList_struct@PAUtuple_struct@core@@XXXXXXXXXXXX@@PAPAU?$__packedList_struct@PAX@@1313131313131313131313@Z  (Idle)
01:00015D64 ?_sortby/3nf$1@list@@SAXPAUsortby/3nf$1_struct@1@XXPAPAUcompareResult_struct@_builtIn@@@Z 
01:00015DB4 ?_sortBy@list@@SAXQAVrTypeLibrary@TypeLibraries@RunTime@VIP@@0PA$?_comparator$1@core@@SAXXXPAPAUcompareResult_struct@_builtIn@@@Z$PAU?$__packedList_struct@X@@PAUsortOrder_struct@3@PAPAU?$__packedList_struct@PAX@@@Z  (Idle)
01:00015E40 ?_sort/2$1@list@@SAXPAUsort/2$1_struct@1@XXPAPAUcompareResult_struct@_builtIn@@@Z 
01:00015E58 ?_sort@list@@SAXQAVrTypeLibrary@TypeLibraries@RunTime@VIP@@PAU?$__packedList_struct@X@@PAUsortOrder_struct@core@@PAPAU?$__packedList_struct@PAX@@@Z  (Idle)
01:00015EB8 ?_merge@list@@SAXQAVrTypeLibrary@TypeLibraries@RunTime@VIP@@0PA$?_comparator$1@core@@SAXXXPAPAUcompareResult_struct@_builtIn@@@Z$PAU?$__packedList_struct@PAU?$__packedList_struct@X@@@@PAPAU?$__packedList_struct@PAX@@@Z 
01:00015F20 ?mergeL@list@@SAXQAVrTypeLibrary@TypeLibraries@RunTime@VIP@@0PA$?_comparator$1@core@@SAXXXPAPAUcompareResult_struct@_builtIn@@@Z$PAU?$__packedList_struct@PAU?$__packedList_struct@X@@@@PAPAU?$__packedList_struct@PAPAU?$__packedList_struct@PAX@@@@@Z 
01:00015FAC ?_merge2@list@@SAXQAVrTypeLibrary@TypeLibraries@RunTime@VIP@@0PA$?_comparator$1@core@@SAXXXPAPAUcompareResult_struct@_builtIn@@@Z$PAU?$__packedList_struct@X@@3PAPAU?$__packedList_struct@PAX@@@Z 
01:000160A4 ?_mkRuns@list@@SAXQAVrTypeLibrary@TypeLibraries@RunTime@VIP@@0PA$?_comparator$1@core@@SAXXXPAPAUcompareResult_struct@_builtIn@@@Z$PAU?$__packedList_struct@X@@PAPAU?$__packedList_struct@PAPAU?$__packedList_struct@PAX@@@@@Z 
01:000161D8 ?takeRun@list@@SAXQAVrTypeLibrary@TypeLibraries@RunTime@VIP@@0PA$?_comparator$1@core@@SAXXXPAPAUcompareResult_struct@_builtIn@@@Z$XPAU?$__packedList_struct@X@@PAPAU?$__packedList_struct@PAX@@5@Z 
01:000162D0 ?takeRunDown@list@@SAXQAVrTypeLibrary@TypeLibraries@RunTime@VIP@@0PA$?_comparator$1@core@@SAXXXPAPAUcompareResult_struct@_builtIn@@@Z$XPAU?$__packedList_struct@X@@4PAPAU?$__packedList_struct@PAX@@6@Z 
01:000163B8 ?_append@list@@SAXQAVrTypeLibrary@TypeLibraries@RunTime@VIP@@PAU?$__packedList_struct@X@@1PAPAU?$__packedList_struct@PAX@@@Z  (Idle)
01:000163D8 ?_append1@list@@SAXQAVrTypeLibrary@TypeLibraries@RunTime@VIP@@PAU?$__packedList_struct@X@@1PAPAU?$__packedList_struct@PAX@@@Z 
01:00016448 ?_append@list@@SAXQAVrTypeLibrary@TypeLibraries@RunTime@VIP@@PAU?$__packedList_struct@X@@11PAPAU?$__packedList_struct@PAX@@@Z  (Idle)
01:0001647C ?_append@list@@SAXQAVrTypeLibrary@TypeLibraries@RunTime@VIP@@PAU?$__packedList_struct@X@@111PAPAU?$__packedList_struct@PAX@@@Z  (Idle)
01:000164AC ?_append@list@@SAXQAVrTypeLibrary@TypeLibraries@RunTime@VIP@@PAU?$__packedList_struct@X@@1111PAPAU?$__packedList_struct@PAX@@@Z  (Idle)
01:000164DC ?_appendList@list@@SAXQAVrTypeLibrary@TypeLibraries@RunTime@VIP@@PAU?$__packedList_struct@PAU?$__packedList_struct@X@@@@PAPAU?$__packedList_struct@PAX@@@Z 
01:0001653C ?_appendList2@list@@SAXQAVrTypeLibrary@TypeLibraries@RunTime@VIP@@PAU?$__packedList_struct@X@@PAU?$__packedList_struct@PAU?$__packedList_struct@X@@@@PAPAU?$__packedList_struct@PAX@@@Z 
--- From 'obj\reflection.ACE59E5C.obj'
01:000165B4 ?_reverse@list@@SAXQAVrTypeLibrary@TypeLibraries@RunTime@VIP@@PAU?$__packedList_struct@X@@PAPAU?$__packedList_struct@PAX@@@Z 
--- From 'obj\list.A75CEA31.obj'
01:000165D0 ?_reverse1@list@@SAXQAVrTypeLibrary@TypeLibraries@RunTime@VIP@@PAU?$__packedList_struct@X@@1PAPAU?$__packedList_struct@PAX@@@Z 
01:00016630 ?_remove@list@@SAXQAVrTypeLibrary@TypeLibraries@RunTime@VIP@@PAU?$__packedList_struct@X@@XPAPAU?$__packedList_struct@PAX@@@Z  (Idle)
01:000166E0 ?_removeBy@list@@SAXQAVrTypeLibrary@TypeLibraries@RunTime@VIP@@00PA$?_comparator$2@core@@SAXXXPAPAUcompareResult_struct@_builtIn@@@Z$PAU?$__packedList_struct@X@@XPAPAU?$__packedList_struct@PAX@@@Z  (Idle)
01:0001670C ?_removeEq@list@@SAXQAVrTypeLibrary@TypeLibraries@RunTime@VIP@@00PA$?predicate_dt$2@core@@SAXXX@Z$PAU?$__packedList_struct@X@@XPAPAU?$__packedList_struct@PAX@@@Z 
01:000167C8 ?_removeAll@list@@SAXQAVrTypeLibrary@TypeLibraries@RunTime@VIP@@PAU?$__packedList_struct@X@@XPAPAU?$__packedList_struct@PAX@@@Z  (Idle)
01:00016884 ?_removeAllBy@list@@SAXQAVrTypeLibrary@TypeLibraries@RunTime@VIP@@00PA$?_comparator$2@core@@SAXXXPAPAUcompareResult_struct@_builtIn@@@Z$PAU?$__packedList_struct@X@@XPAPAU?$__packedList_struct@PAX@@@Z  (Idle)
01:000168B0 ?_removeAllEq@list@@SAXQAVrTypeLibrary@TypeLibraries@RunTime@VIP@@00PA$?predicate_dt$2@core@@SAXXX@Z$PAU?$__packedList_struct@X@@XPAPAU?$__packedList_struct@PAX@@@Z 
--- From 'obj\main.789E136F.obj'
01:00016970 ?_removeDuplicates@list@@SAXQAVrTypeLibrary@TypeLibraries@RunTime@VIP@@PAU?$__packedList_struct@X@@PAPAU?$__packedList_struct@PAX@@@Z 
--- From 'obj\list.A75CEA31.obj'
01:000169B8 ?_removeDuplicatesBy@list@@SAXQAVrTypeLibrary@TypeLibraries@RunTime@VIP@@0PA$?_comparator$1@core@@SAXXXPAPAUcompareResult_struct@_builtIn@@@Z$PAU?$__packedList_struct@X@@PAPAU?$__packedList_struct@PAX@@@Z  (Idle)
01:00016A04 ?_removeDuplicates1@list@@SAXQAVrTypeLibrary@TypeLibraries@RunTime@VIP@@0PAU?$__packedList_struct@X@@QAVsetM@@@XPAPAU?$__packedList_struct@PAX@@@Z 
01:00016AE0 ?_removeDuplicatesEq@list@@SAXQAVrTypeLibrary@TypeLibraries@RunTime@VIP@@0PA$?predicate_dt$2@core@@SAXXX@Z$PAU?$__packedList_struct@X@@PAPAU?$__packedList_struct@PAX@@@Z  (Idle)
01:00016BA0 ?_removeConsecutiveDuplicates/1$1@list@@SAXPAUremoveConsecutiveDuplicates/1$1_struct@1@XXPAPAUcompareResult_struct@_builtIn@@@Z 
01:00016BB8 ?_removeConsecutiveDuplicates@list@@SAXQAVrTypeLibrary@TypeLibraries@RunTime@VIP@@PAU?$__packedList_struct@X@@PAPAU?$__packedList_struct@PAX@@@Z  (Idle)
01:00016C10 ?_removeConsecutiveDuplicatesEq@list@@SAXQAVrTypeLibrary@TypeLibraries@RunTime@VIP@@0PA$?predicate_dt$2@core@@SAXXX@Z$PAU?$__packedList_struct@X@@PAPAU?$__packedList_struct@PAX@@@Z  (Idle)
01:00016D1C ?_removeConsecutiveDuplicatesBy@list@@SAXQAVrTypeLibrary@TypeLibraries@RunTime@VIP@@0PA$?_comparator$1@core@@SAXXXPAPAUcompareResult_struct@_builtIn@@@Z$PAU?$__packedList_struct@X@@PAPAU?$__packedList_struct@PAX@@@Z 
01:00016E1C ?_difference@list@@SAXQAVrTypeLibrary@TypeLibraries@RunTime@VIP@@PAU?$__packedList_struct@X@@1PAPAU?$__packedList_struct@PAX@@@Z  (Idle)
01:00016EE0 ?_differenceBy@list@@SAXQAVrTypeLibrary@TypeLibraries@RunTime@VIP@@00PA$?_comparator$2@core@@SAXXXPAPAUcompareResult_struct@_builtIn@@@Z$PAU?$__packedList_struct@X@@4PAPAU?$__packedList_struct@PAX@@@Z  (Idle)
01:00016F0C ?_differenceEq@list@@SAXQAVrTypeLibrary@TypeLibraries@RunTime@VIP@@00PA$?predicate_dt$2@core@@SAXXX@Z$PAU?$__packedList_struct@X@@4PAPAU?$__packedList_struct@PAX@@@Z 
01:00016FD4 ?_nDuplicates@list@@SAXQAVrTypeLibrary@TypeLibraries@RunTime@VIP@@XPBUpositive@core@@PAPAU?$__packedList_struct@PAX@@@Z  (Idle)
01:00017024 ?_tryGetIndex@list@@SAXQAVrTypeLibrary@TypeLibraries@RunTime@VIP@@XPAU?$__packedList_struct@X@@AAUpositive@core@@@Z 
01:00017040 ?_tryGetIndex@list@@SAXQAVrTypeLibrary@TypeLibraries@RunTime@VIP@@XPAU?$__packedList_struct@X@@PBUpositive@core@@AAU23@@Z 
01:000170A8 ?_tryGetIndexBy@list@@SAXQAVrTypeLibrary@TypeLibraries@RunTime@VIP@@0PA$?_comparator$2@core@@SAXXXPAPAUcompareResult_struct@_builtIn@@@Z$XPAU?$__packedList_struct@X@@AAUpositive@3@@Z  (Idle)
01:000170F8 ?_tryGetIndexEq@list@@SAXQAVrTypeLibrary@TypeLibraries@RunTime@VIP@@0PA$?predicate_dt$2@core@@SAXXX@Z$XPAU?$__packedList_struct@X@@AAUpositive@3@@Z  (Idle)
01:00017114 ?_tryGetIndexEq@list@@SAXQAVrTypeLibrary@TypeLibraries@RunTime@VIP@@0PA$?predicate_dt$2@core@@SAXXX@Z$XPAU?$__packedList_struct@X@@PBUpositive@3@AAU23@@Z 
--- From 'obj\exception.B6F320E8.obj'
01:00017198 ?_tryGetLast@list@@SAXQAVrTypeLibrary@TypeLibraries@RunTime@VIP@@PAU?$__packedList_struct@X@@PAX@Z 
--- From 'obj\list.A75CEA31.obj'
01:000171EC ?_nth@list@@SAXQAVrTypeLibrary@TypeLibraries@RunTime@VIP@@PBUpositive@core@@PAU?$__packedList_struct@X@@PAX@Z 
01:00017280 ?_tryGetNth@list@@SAXQAVrTypeLibrary@TypeLibraries@RunTime@VIP@@PBUpositive@core@@PAU?$__packedList_struct@X@@PAX@Z 
01:000172F0 ?_tryGetSublist@1@SAXQAVrTypeLibrary@TypeLibraries@RunTime@VIP@@PAU?$__packedList_struct@PBUpositive@core@@@@PAU?$__packedList_struct@X@@PAPAU?$__packedList_struct@PAX@@@Z  (Idle)
01:00017328 ?_tryGetSublist1@list@@SAXQAVrTypeLibrary@TypeLibraries@RunTime@VIP@@PBUpositive@core@@PAU?$__packedList_struct@PBU23@@@PAU?$__packedList_struct@X@@3PAPAU?$__packedList_struct@PAX@@@Z 
01:00017478 ?_setNth@list@@SAXQAVrTypeLibrary@TypeLibraries@RunTime@VIP@@PBUpositive@core@@PAU?$__packedList_struct@X@@XPAPAU?$__packedList_struct@PAX@@@Z  (Idle)
01:00017568 ?split@list@@SAXQAVrTypeLibrary@TypeLibraries@RunTime@VIP@@PBUpositive@core@@PAU?$__packedList_struct@X@@PAPAU?$__packedList_struct@PAX@@3@Z  (Idle)
--- From 'obj\exception.B6F320E8.obj'
01:00017608 ?_take@list@@SAXQAVrTypeLibrary@TypeLibraries@RunTime@VIP@@PBUpositive@core@@PAU?$__packedList_struct@X@@PAPAU?$__packedList_struct@PAX@@@Z 
--- From 'obj\list.A75CEA31.obj'
01:0001762C ?_takeWhile@list@@SAXQAVrTypeLibrary@TypeLibraries@RunTime@VIP@@0PAU?$__packedList_struct@X@@PA$?predicate_dt$1@core@@SAXX@Z$PAPAU?$__packedList_struct@PAX@@@Z  (Idle)
01:000176DC ?_drop@list@@SAXQAVrTypeLibrary@TypeLibraries@RunTime@VIP@@PBUpositive@core@@PAU?$__packedList_struct@X@@PAPAU?$__packedList_struct@PAX@@@Z  (Idle)
01:0001771C ?splitAfter@list@@SAXQAVrTypeLibrary@TypeLibraries@RunTime@VIP@@0PA$?predicate_dt$1@core@@SAXX@Z$PAU?$__packedList_struct@X@@PAPAU?$__packedList_struct@PAX@@4@Z  (Idle)
01:00017800 ?_splitafter/2nf$1@list@@SAXPAUsplitafter/2nf$1_struct@1@PAU?$__packedList_struct@X@@PAPAUtuple_struct@core@@PAPAU?$__packedList_struct@PAX@@PAPAU?$__packedList_struct@PAX@@@Z 
01:0001787C ?_splitAfter@list@@SAXQAVrTypeLibrary@TypeLibraries@RunTime@VIP@@PA$?predicate_dt$1@core@@SAXX@Z$PAU?$__packedList_struct@X@@PAPAU?$__packedList_struct@PAPAU?$__packedList_struct@PAX@@@@@Z  (Idle)
01:00017908 ?_maximumBy@list@@SAXQAVrTypeLibrary@TypeLibraries@RunTime@VIP@@0PA$?_comparator$1@core@@SAXXXPAPAUcompareResult_struct@_builtIn@@@Z$PAU?$__packedList_struct@X@@PAX@Z  (Idle)
01:00017968 ?_maximum/1$1@list@@SAXPAUmaximum/1$1_struct@1@XXPAPAUcompareResult_struct@_builtIn@@@Z 
01:00017980 ?_maximum@list@@SAXQAVrTypeLibrary@TypeLibraries@RunTime@VIP@@PAU?$__packedList_struct@X@@PAX@Z  (Idle)
01:000179D8 ?_minimumby/2nf$1@list@@SAXPAUminimumby/2nf$1_struct@1@XXPAPAUcompareResult_struct@_builtIn@@@Z 
01:00017A28 ?_minimumBy@list@@SAXQAVrTypeLibrary@TypeLibraries@RunTime@VIP@@0PA$?_comparator$1@core@@SAXXXPAPAUcompareResult_struct@_builtIn@@@Z$PAU?$__packedList_struct@X@@PAX@Z  (Idle)
01:00017AD4 ?_minimum/1$1@list@@SAXPAUminimum/1$1_struct@1@XXPAPAUcompareResult_struct@_builtIn@@@Z 
01:00017AEC ?_minimum@list@@SAXQAVrTypeLibrary@TypeLibraries@RunTime@VIP@@PAU?$__packedList_struct@X@@PAX@Z  (Idle)
01:00017B44 ?_extremum@list@@SAXQAVrTypeLibrary@TypeLibraries@RunTime@VIP@@0PA$?_comparator$1@core@@SAXXXPAPAUcompareResult_struct@_builtIn@@@Z$XPAU?$__packedList_struct@X@@PAX@Z 
01:00017BC4 ?_sum/1nf0$1@list@@SAXHHPAH@Z 
01:00017BD8 ?_sum@list@@SAXPAU?$__packedList_struct@H@@PAH@Z  (Idle)
01:00017C18 ?_union@list@@SAXQAVrTypeLibrary@TypeLibraries@RunTime@VIP@@PAU?$__packedList_struct@X@@1PAPAU?$__packedList_struct@PAX@@@Z  (Idle)
01:00017CDC ?_unionBy@list@@SAXQAVrTypeLibrary@TypeLibraries@RunTime@VIP@@0PA$?_comparator$1@core@@SAXXXPAPAUcompareResult_struct@_builtIn@@@Z$PAU?$__packedList_struct@X@@3PAPAU?$__packedList_struct@PAX@@@Z  (Idle)
01:00017D08 ?_unionEq@list@@SAXQAVrTypeLibrary@TypeLibraries@RunTime@VIP@@0PA$?predicate_dt$2@core@@SAXXX@Z$PAU?$__packedList_struct@X@@3PAPAU?$__packedList_struct@PAX@@@Z 
01:00017DD0 ?_intersection@list@@SAXQAVrTypeLibrary@TypeLibraries@RunTime@VIP@@PAU?$__packedList_struct@X@@1PAPAU?$__packedList_struct@PAX@@@Z  (Idle)
01:00017E7C ?_intersectionBy@list@@SAXQAVrTypeLibrary@TypeLibraries@RunTime@VIP@@0PA$?_comparator$1@core@@SAXXXPAPAUcompareResult_struct@_builtIn@@@Z$PAU?$__packedList_struct@X@@3PAPAU?$__packedList_struct@PAX@@@Z  (Idle)
01:00017EA8 ?_intersectionEq@list@@SAXQAVrTypeLibrary@TypeLibraries@RunTime@VIP@@0PA$?predicate_dt$2@core@@SAXXX@Z$PAU?$__packedList_struct@X@@3PAPAU?$__packedList_struct@PAX@@@Z 
01:00017F5C ?_filter@list@@SAXQAVrTypeLibrary@TypeLibraries@RunTime@VIP@@0PAU?$__packedList_struct@X@@PA$?predicate_dt$1@core@@SAXX@Z$PAPAU?$__packedList_struct@PAX@@@Z  (Idle)
01:00017FD4 ?filter@list@@SAXQAVrTypeLibrary@TypeLibraries@RunTime@VIP@@0PAU?$__packedList_struct@X@@PA$?predicate_dt$1@core@@SAXX@Z$PAPAU?$__packedList_struct@PAX@@4@Z  (Idle)
01:000180D0 ?_decompose@list@@SAXQAVrTypeLibrary@TypeLibraries@RunTime@VIP@@00PAU?$__packedList_struct@X@@PA$?_function$2@core@@SAXXPAX@Z$PAPAU?$__packedList_struct@PAPAUtuple_struct@3@PAXPAPAU?$__packedList_struct@PAX@@@@@Z  (Idle)
01:00018288 ?_identityTransformation@list@@SAXQAVrTypeLibrary@TypeLibraries@RunTime@VIP@@XPAX@Z  (Idle)
01:00018298 ?_countBy@list@@SAXQAVrTypeLibrary@TypeLibraries@RunTime@VIP@@00PAU?$__packedList_struct@X@@PA$?_function$2@core@@SAXXPAX@Z$PAPAU?$__packedList_struct@PAPAUtuple_struct@3@PAXAAUpositive@3@@@@Z  (Idle)
01:000183E4 ?_interleave@list@@SAXQAVrTypeLibrary@TypeLibraries@RunTime@VIP@@PAU?$__packedList_struct@X@@XPAPAU?$__packedList_struct@PAX@@@Z  (Idle)
01:0001849C ?groupbyeq/2nf$1@list@@SAXPAUgroupbyeq/2nf$1_struct@1@X@Z 
01:000184E0 ?_groupByEq@list@@SAXQAVrTypeLibrary@TypeLibraries@RunTime@VIP@@0PA$?predicate_dt$2@core@@SAXXX@Z$PAU?$__packedList_struct@X@@PAPAU?$__packedList_struct@PAPAU?$__packedList_struct@PAX@@@@@Z  (Idle)
01:000185B4 ?groupbycmp/2nf$1@list@@SAXPAUgroupbycmp/2nf$1_struct@1@XX@Z 
01:000185F0 ?_groupByCmp@list@@SAXQAVrTypeLibrary@TypeLibraries@RunTime@VIP@@0PA$?_comparator$1@core@@SAXXXPAPAUcompareResult_struct@_builtIn@@@Z$PAU?$__packedList_struct@X@@PAPAU?$__packedList_struct@PAPAU?$__packedList_struct@PAX@@@@@Z  (Idle)
--- From 'obj\core.5D9B9483.obj'
01:0001863C ?_map@list@@SAXQAVrTypeLibrary@TypeLibraries@RunTime@VIP@@0PAU?$__packedList_struct@X@@PA$?_function$2@core@@SAXXPAX@Z$PAPAU?$__packedList_struct@PAX@@@Z 
--- From 'obj\list.A75CEA31.obj'
01:000186B4 ?_filteredMap@list@@SAXQAVrTypeLibrary@TypeLibraries@RunTime@VIP@@0PAU?$__packedList_struct@X@@PA$?_function_dt$2@core@@SAXXPAX@Z$PAPAU?$__packedList_struct@PAX@@@Z  (Idle)
01:00018738 ?_tryMap@list@@SAXQAVrTypeLibrary@TypeLibraries@RunTime@VIP@@0PAU?$__packedList_struct@X@@PA$?_function_dt$2@core@@SAXXPAX@Z$PAPAU?$__packedList_struct@PAX@@@Z  (Idle)
01:000187B4 ?_mapacc@list@@SAXQAVrTypeLibrary@TypeLibraries@RunTime@VIP@@00PAU?$__packedList_struct@X@@XPA$?_function$3@core@@SAXXXPAPAUtuple_struct@1@PAXPAX@Z$PAXPAPAU?$__packedList_struct@PAX@@@Z  (Idle)
01:0001887C ?_fold@list@@SAXQAVrTypeLibrary@TypeLibraries@RunTime@VIP@@0PAU?$__packedList_struct@X@@PA$?_function$3@core@@SAXXXPAX@Z$XPAX@Z  (Idle)
01:0001890C ?_foldl@list@@SAXQAVrTypeLibrary@TypeLibraries@RunTime@VIP@@0PAU?$__packedList_struct@X@@PA$?_function$3@core@@SAXXXPAX@Z$XPAX@Z 
01:00018974 ?_foldl1@list@@SAXQAVrTypeLibrary@TypeLibraries@RunTime@VIP@@PAU?$__packedList_struct@X@@PA$?_function$3@core@@SAXXXPAX@Z$PAX@Z  (Idle)
01:000189E4 ?_foldl_dt@list@@SAXQAVrTypeLibrary@TypeLibraries@RunTime@VIP@@0PAU?$__packedList_struct@X@@PA$?_function_dt$3@core@@SAXXXPAX@Z$XPAX@Z  (Idle)
01:00018A4C ?_foldr/3nf$1@list@@SAXPAUfoldr/3nf$1_struct@1@XXPAX@Z 
01:00018A9C ?_foldr@list@@SAXQAVrTypeLibrary@TypeLibraries@RunTime@VIP@@0PAU?$__packedList_struct@X@@PA$?_function$3@core@@SAXXXPAX@Z$XPAX@Z  (Idle)
01:00018AFC ?_unfold@list@@SAXQAVrTypeLibrary@TypeLibraries@RunTime@VIP@@0XPA$?_function_dt$2@core@@SAXXPAPAUtuple_struct@1@PAXPAX@Z$PAPAU?$__packedList_struct@PAX@@@Z 
01:00018B94 ?forAll@list@@SAXQAVrTypeLibrary@TypeLibraries@RunTime@VIP@@PAU?$__packedList_struct@X@@PA$?predicate$1@core@@SAXX@Z$@Z  (Idle)
01:00018BD8 ?_exists@list@@SAXQAVrTypeLibrary@TypeLibraries@RunTime@VIP@@PAU?$__packedList_struct@X@@PA$?predicate_dt$1@core@@SAXX@Z$PAX@Z  (Idle)
01:00018C60 ?exists@list@@SAXQAVrTypeLibrary@TypeLibraries@RunTime@VIP@@PAU?$__packedList_struct@X@@PA$?predicate_dt$1@core@@SAXX@Z$@Z  (Idle)
01:00018C84 ?all@list@@SAXQAVrTypeLibrary@TypeLibraries@RunTime@VIP@@PAU?$__packedList_struct@X@@PA$?predicate_dt$1@core@@SAXX@Z$@Z  (Idle)
01:00018CD8 ?exceptionDifferentLength_explicit@list@@SAXPAUprogramPoint_struct@core@@@Z 
01:00018D0C ?exceptionEmpty_explicit@list@@SAXPAUprogramPoint_struct@core@@@Z 
01:00018D40 ?_sum/1nf1$1@list@@SAXPANPANPAPAN@Z 
01:00018D74 ?_sum@list@@SAXPAU?$__packedList_struct@PAN@@PAPAN@Z  (Idle)
--- From 'obj\multithread.32507C62.obj'
01:00018DC0 ?create$@waitableTimer@@SAXQAV1@@PAUboolean_struct@_builtIn@@@Z  (Idle)
01:00018DDC ?createNamed$@waitableTimer@@SAXQAV1@@PB_WPAUboolean_struct@_builtIn@@@Z 
01:00018E0C ?openTimer$@waitableTimer@@SAXQAV1@@PB_W@Z  (Idle)
01:00018E3C ?setTimer$@waitableTimer@@SAXQAV1@@PAPBUdurationValue@core@@HPAUboolean_struct@_builtIn@@@Z 
01:00018E54 ?setTimer$@waitableTimer@@SAXQAV1@@PAPBUdurationValue@core@@HXPAXPAUboolean_struct@_builtIn@@@Z 
01:00018E6C ?freeze$@waitableTimer@@SAXQAV1@@@Z 
01:00018E84 ?_create@waitableTimer@@SAXPAUboolean_struct@_builtIn@@PAPAV1@@@Z  (Idle)
01:00018EAC ?_createNamed@waitableTimer@@SAXPB_WPAUboolean_struct@_builtIn@@PAPAV1@@@Z  (Idle)
01:00018ED8 ?_openTimer@waitableTimer@@SAXPB_WPAPAV1@@@Z  (Idle)
01:00018F00 ?start_explicit$@thread@@SAXQAV1@@PAUprogramPoint_struct@core@@XPBUbyteCount@4@@Z  (Idle)
01:00018F18 ?start_comMultiThread_explicit$@thread@@SAXQAV1@@PAUprogramPoint_struct@core@@XPBUbyteCount@4@@Z  (Idle)
01:00018F3C ?createSuspended_explicit$@thread@@SAXQAV1@@PAUprogramPoint_struct@core@@XPBUbyteCount@4@@Z  (Idle)
01:00018F54 ?threadEntry@thread@@SGIPAX@Z 
01:0001914C ?create$@thread@@SAXQAV1@@PAUprogramPoint_struct@core@@XPBUbyteCount@4@I@Z 
01:00019364 ?attach$@thread@@SAXQAV1@@PBUthreadHandle@multiThread_native@@PBUthreadId@4@@Z  (Idle)
01:00019380 ?priority@thread@@SGPBUthreadPriority@multiThread_native@@QAV1@@@Z 
01:000193C0 ?priority@thread@@SGXQAV1@@PBUthreadPriority@multiThread_native@@@Z 
01:00019400 ?_suspend$@thread@@SAXQAV1@@PAI@Z 
01:00019438 ?_resume$@thread@@SAXQAV1@@PAI@Z 
01:00019470 ?isActive$@thread@@SAXQAV1@@@Z 
01:0001949C ?exitCode@thread@@SGIQAV1@@@Z 
01:000194E0 ?terminate$@thread@@SAXQAV1@@I@Z 
01:00019518 ?getTimes$@thread@@SAXQAV1@@PAAAUgmtTimeValue@core@@111@Z 
01:000195AC ?assertKeepAlive@thread@@SAXPAUthreadEntryParam_struct@1@@Z 
01:0001967C ?retractKeepAlive@thread@@SAXPAUthreadEntryParam_struct@1@@Z 
01:000197F0 ?raise_$@thread@@SAXQAV1@@PB_W@Z 
01:00019878 ?setThreadName@thread@@SAXPB_W@Z  (Idle)
01:00019890 ?setThreadName@thread@@SAXPB_WPBUthreadID@multiThread_native@@@Z 
01:00019920 ?threadName@thread@@SGXQAV1@@PB_W@Z 
01:00019948 ?threadName@thread@@SGPB_WQAV1@@@Z 
01:00019954 ?_start_explicit@thread@@SAXPAUprogramPoint_struct@core@@XPBUbyteCount@3@PAPAV1@@@Z  (Idle)
01:00019984 ?_start_comMultiThread_explicit@thread@@SAXPAUprogramPoint_struct@core@@XPBUbyteCount@3@PAPAV1@@@Z  (Idle)
01:000199B4 ?_createSuspended_explicit@thread@@SAXPAUprogramPoint_struct@core@@XPBUbyteCount@3@PAPAV1@@@Z  (Idle)
01:000199E4 ?_attach@thread@@SAXPBUthreadHandle@multiThread_native@@PBUthreadId@3@PAPAV1@@@Z  (Idle)
01:00019A10 ?__lateFactInit$criticalsection$0$thread@classDB@1@SAXPAPAVcriticalSection@@@@Z 
01:00019A3C ?_object_facts_initializer$@thread@@SGXQAV1@@@Z 
01:00019A60 ?threadId@thread@@SGPBUthreadID@multiThread_native@@QAV1@@@Z 
01:00019A6C ?codeForExit@thread@@SGXQAV1@@I@Z 
01:00019A7C ?codeForExit@thread@@SGIQAV1@@@Z 
01:00019A88 ?runMode@thread@@SGXQAV1@@PAUrunMode_struct@exe_api@@@Z 
01:00019A98 ?runMode@thread@@SGPAUrunMode_struct@exe_api@@QAV1@@@Z 
01:00019AD4 ?new$@syncObject@@SAXQAV1@@PBUsyncHandle@windowsAPI@@PAUboolean_struct@_builtIn@@@Z 
01:00019B10 ?wait$@syncObject@@SAXQAV1@@@Z 
01:00019B44 ?_wait$@syncObject@@SAXQAV1@@IPAI@Z 
01:00019C3C ?tryWait$@syncObject@@SAXQAV1@@I@Z 
01:00019C68 ?isSet$@syncObject@@SAXQAV1@@@Z 
01:00019C94 ?_waitAll@syncObject@@SAXPAU?$__packedList_struct@QAV1@@@@IPAI@Z  (Idle)
01:00019CBC ?_waitAny@syncObject@@SAXPAU?$__packedList_struct@QAV1@@@@IPAI@Z  (Idle)
01:00019CE4 ?close$@syncObject@@SAXQAV1@@@Z 
01:00019D04 ?finalize$@syncObject@@SGXQAV1@@@Z 
01:00019D30 ?_waitArray_inner@syncObject@@SAXQAVarrayM_inline@@@PBUhandle@_builtIn@@PBUbooleanInt@core@@IPAI@Z  (Idle)
01:00019EFC ?_waitArray@syncObject@@SAXQAVarrayM_inline@@@PBUhandle@_builtIn@@PAUboolean_struct@4@IPAI@Z  (Idle)
01:00019F24 ?_makeHandleArray@syncObject@@SAXPAU?$__packedList_struct@QAV1@@@@PAPAVarrayM_inline@@@AAUhandle@_builtIn@@@Z  (Idle)
01:00019FA0 ?_waitList@syncObject@@SAXPAU?$__packedList_struct@QAV1@@@@PBUbooleanInt@core@@IPAI@Z 
01:00019FC8 ?copyHandles@syncObject@@SAXPAU?$__packedList_struct@QAV1@@@@PAX@Z 
01:0001A034 ?_new@syncObject@@SAXPBUsyncHandle@windowsAPI@@PAUboolean_struct@_builtIn@@PAPAV1@@@Z  (Idle)
01:0001A060 ?handle@syncObject@@SGPBUsyncHandle@windowsAPI@@QAV1@@@Z 
01:0001A06C ?new$@srwLock@@SAXQAV1@@@Z  (Idle)
01:0001A084 ?enter$@srwLock@@SAXQAVcriticalSection@@@@Z 
01:0001A098 ?tryEnter$@srwLock@@SAXQAVcriticalSection@@@@Z 
01:0001A0B8 ?leave$@srwLock@@SAXQAVcriticalSection@@@@Z 
01:0001A0CC ?enterShared$@srwLock@@SAXQAV1@@@Z 
01:0001A0E0 ?tryEnterShared$@srwLock@@SAXQAV1@@@Z 
01:0001A100 ?leaveShared$@srwLock@@SAXQAV1@@@Z 
01:0001A114 ?synchronizeShared$@srwLock@@SAXQAV1@@X@Z 
01:0001A190 ?_synchronizeShared$@srwLock@@SAXQAV1@@QAVrTypeLibrary@TypeLibraries@RunTime@VIP@@PA$?_function$1@core@@SAXPAX@Z$PAX@Z 
01:0001A218 ?close$@srwLock@@SAXQAVcriticalSection@@@@Z 
01:0001A220 ?_new@srwLock@@SAXPAPAV1@@@Z 
01:0001A248 ?_object_facts_initializer$@srwLock@@SGXQAV1@@@Z 
01:0001A270 ?create$@semaphore@@SAXQAV1@@II@Z  (Idle)
01:0001A298 ?createNamed$@semaphore@@SAXQAV1@@PB_WII@Z 
01:0001A2CC ?openSemaphore$@semaphore@@SAXQAV1@@PB_W@Z  (Idle)
01:0001A2FC ?_release$@semaphore@@SAXQAV1@@IPAI@Z 
01:0001A314 ?_create@semaphore@@SAXIIPAPAV1@@@Z  (Idle)
01:0001A340 ?_createNamed@semaphore@@SAXPB_WIIPAPAV1@@@Z  (Idle)
01:0001A370 ?_openSemaphore@semaphore@@SAXPB_WPAPAV1@@@Z  (Idle)
01:0001A398 ?create$@mutex@@SAXQAV1@@PAUboolean_struct@_builtIn@@@Z  (Idle)
01:0001A3E0 ?createNamed$@mutex@@SAXQAV1@@PB_W@Z  (Idle)
01:0001A428 ?enter$@mutex@@SAXQAVcriticalSection@@@@Z 
01:0001A430 ?tryEnter$@mutex@@SAXQAVcriticalSection@@@@Z 
01:0001A444 ?leave$@mutex@@SAXQAVcriticalSection@@@@Z 
01:0001A45C ?release$@mutex@@SAXQAV1@@@Z 
01:0001A474 ?_create@mutex@@SAXPAUboolean_struct@_builtIn@@PAPAV1@@@Z  (Idle)
01:0001A49C ?_createNamed@mutex@@SAXPB_WPAPAV1@@@Z  (Idle)
01:0001A4C4 ?create$@event@@SAXQAV1@@PAUboolean_struct@_builtIn@@1@Z  (Idle)
01:0001A4EC ?createNamed$@event@@SAXQAV1@@PB_WPAUboolean_struct@_builtIn@@2@Z 
01:0001A520 ?createOrOpenNamed$@event@@SAXQAV1@@PB_WPAUboolean_struct@_builtIn@@2@Z  (Idle)
01:0001A554 ?openEvent$@event@@SAXQAV1@@PB_WI@Z  (Idle)
01:0001A584 ?createByHandle$@event@@SAXQAV1@@PBUsyncHandle@windowsAPI@@@Z  (Idle)
01:0001A59C ?setSignaled$@event@@SAXQAV1@@PAUboolean_struct@_builtIn@@@Z 
01:0001A5D0 ?pulse$@event@@SAXQAV1@@@Z 
01:0001A5E8 ?_tryOpenEvent@event@@SAXPB_WIPAPAV1@@@Z  (Idle)
01:0001A6A8 ?_create@event@@SAXPAUboolean_struct@_builtIn@@0PAPAV1@@@Z  (Idle)
01:0001A6D4 ?_createNamed@event@@SAXPB_WPAUboolean_struct@_builtIn@@1PAPAV1@@@Z  (Idle)
01:0001A704 ?_createOrOpenNamed@event@@SAXPB_WPAUboolean_struct@_builtIn@@1PAPAV1@@@Z  (Idle)
01:0001A734 ?_openEvent@event@@SAXPB_WIPAPAV1@@@Z  (Idle)
01:0001A760 ?_createByHandle@event@@SAXPBUsyncHandle@windowsAPI@@PAPAV1@@@Z 
01:0001A788 ?new$@criticalSection@@SAXQAV1@@I@Z  (Idle)
01:0001A7E4 ?enter$@criticalSection@@SAXQAV1@@@Z 
01:0001A7F8 ?tryEnter$@criticalSection@@SAXQAV1@@@Z 
01:0001A818 ?leave$@criticalSection@@SAXQAV1@@@Z 
01:0001A82C ?close$@criticalSection@@SAXQAV1@@@Z 
01:0001A88C ?finalize$@criticalSection@@SGXQAV1@@@Z 
--- From 'obj\exception.B6F320E8.obj'
01:0001A8A4 ?_new@criticalSection@@SAXIPAPAV1@@@Z 
--- From 'obj\multithread.32507C62.obj'
01:0001A8CC ?create$@consoleSync@@SAXQAV1@@@Z  (Idle)
01:0001A92C ?_create@consoleSync@@SAXPAPAVsyncObject@@@@Z  (Idle)
01:0001A9E8 waitableTimer?_initObject@@@QAGXQAV1@H@Z 
01:0001AA18 ?@create_object@waitableTimer@@SGQAV1@@XZ 
01:0001AA34 waitableTimer?_InternalFinalizer@@@QAGXQAV1@@Z 
01:0001AB1C thread?_initObject@@@QAGXQAV1@H@Z 
01:0001AB5C ?@create_object@thread@@SGQAV1@@XZ 
01:0001AB78 thread?_InternalFinalizer@@@QAGXQAV1@@Z 
01:0001ABA0 syncObject?_initObject@@@QAGXQAV1@H@Z 
01:0001ABB8 ?@create_object@syncObject@@SGQAV1@@XZ 
01:0001ABD4 syncObject?_InternalFinalizer@@@QAGXQAV1@@Z 
01:0001ACD4 srwLock?_initObject@@@QAGXQAV1@H@Z 
01:0001AD0C ?@create_object@srwLock@@SGQAV1@@XZ 
01:0001AD28 srwLock?_InternalFinalizer@@@QAGXQAV1@@Z 
01:0001ADD0 semaphore?_initObject@@@QAGXQAV1@H@Z 
01:0001AE00 ?@create_object@semaphore@@SGQAV1@@XZ 
01:0001AE1C semaphore?_InternalFinalizer@@@QAGXQAV1@@Z 
01:0001B008 mutex?_initObject@@@QAGXQAV1@H@Z 
01:0001B04C ?@create_object@mutex@@SGQAV1@@XZ 
01:0001B068 mutex?_InternalFinalizer@@@QAGXQAV1@@Z 
01:0001B118 event?_initObject@@@QAGXQAV1@H@Z 
01:0001B148 ?@create_object@event@@SGQAV1@@XZ 
01:0001B164 event?_InternalFinalizer@@@QAGXQAV1@@Z 
01:0001B230 criticalSection?_initObject@@@QAGXQAV1@H@Z 
01:0001B25C ?@create_object@criticalSection@@SGQAV1@@XZ 
01:0001B278 criticalSection?_InternalFinalizer@@@QAGXQAV1@@Z 
01:0001B348 consoleSync?_initObject@@@QAGXQAV1@H@Z 
01:0001B378 ?@create_object@consoleSync@@SGQAV1@@XZ 
01:0001B394 consoleSync?_InternalFinalizer@@@QAGXQAV1@@Z 
--- From 'obj\arraym_inline.F665267A.obj'
01:0001B3B0 ?new$@arrayM_inline@@SAXQAV1@@XQAVrTypeLibrary@TypeLibraries@RunTime@VIP@@PBUpositive@core@@@Z  (Idle)
01:0001B8D0 ?isInlineAtomicFunctor@arrayM_inline@@SAXQAVtypeLibrary@@reflection@pfc@@@Z 
01:0001BB30 ?_atLocation_explicit$@arrayM_inline@@SAXQAV1@@XPAUprogramPoint_struct@core@@PBUpositive@4@PAPAX@Z  (Idle)
01:0001BB88 ?_tryAtLocation$@arrayM_inline@@SAXQAV1@@XPBUpositive@core@@PAPAX@Z  (Idle)
01:0001BBDC ?setInline$@arrayM_inline@@SAXQAV1@@XPAXX@Z 
01:0001BBF8 ?_getInline$@arrayM_inline@@SAXQAV1@@XPAXPAX@Z 
01:0001BC34 ?_get1$@arrayM_inline@@SAXQAV1@@XPAXPAX@Z 
01:0001BC4C ?_get2$@arrayM_inline@@SAXQAV1@@XPAXPAX@Z 
01:0001BC68 ?_get4$@arrayM_inline@@SAXQAV1@@XPAXPAX@Z 
01:0001BC80 ?_get8$@arrayM_inline@@SAXQAV1@@XPAXPAX@Z 
01:0001BCAC ?set1$@arrayM_inline@@SAXQAV1@@XPAXX@Z 
01:0001BCDC ?set2$@arrayM_inline@@SAXQAV1@@XPAXX@Z 
01:0001BD0C ?set4$@arrayM_inline@@SAXQAV1@@XPAXX@Z 
01:0001BD3C ?set8$@arrayM_inline@@SAXQAV1@@XPAXX@Z 
01:0001BD6C ?newPointer$@arrayM_inline@@SAXQAV1@@XQAVrTypeLibrary@TypeLibraries@RunTime@VIP@@PAXPBUpositive@core@@@Z  (Idle)
01:0001BD94 ?newHead$@arrayM_inline@@SAXQAV1@@XQAVrTypeLibrary@TypeLibraries@RunTime@VIP@@XPBUpositive@core@@@Z  (Idle)
01:0001BD98 ?newFromList$@arrayM_inline@@SAXQAV1@@XQAVrTypeLibrary@TypeLibraries@RunTime@VIP@@PAU?$__packedList_struct@X@@@Z  (Idle)
01:0001BE08 ?_clone$@arrayM_inline@@SAXQAVmapM@@@XXPAPAV2@@PAXPAX@Z 
01:0001BE34 ?_tryGet_site$@arrayM_inline@@SAXQAVmapSupportSite@@collectionSupport@@XXXPAX@Z 
01:0001BE74 ?set_site$@arrayM_inline@@SAXQAVmapMSupportSite@@collectionSupport@@XXXX@Z 
01:0001BEB8 ?removeKey_site$@arrayM_inline@@SAXQAVmapMSupportSite@@collectionSupport@@XXX@Z 
01:0001BED0 ?clear$@arrayM_inline@@SAXQAVmodifiable@@@X@Z 
01:0001BEE8 ?_getAll_nd_site$@arrayM_inline@@SAXQAVmapSupportSite@@collectionSupport@@XXPAPAUtuple_struct@core@@PAXPAX@Z 
01:0001BF04 ?_upFrom_nd_site$@arrayM_inline@@SAXQAVmapSupportSite@@collectionSupport@@XXXPAPAUtuple_struct@core@@PAXPAX@Z 
01:0001BF88 ?_downFrom_nd$@arrayM_inline@@SAXQAVmap@@@XXXPAPAUtuple_struct@core@@PAXPAX@Z 
01:0001C004 ?_headPtr@arrayM_inline@@SAXQAV1@@XPAX@Z 
01:0001C018 ?_new@arrayM_inline@@SAXQAVrTypeLibrary@TypeLibraries@RunTime@VIP@@PBUpositive@core@@PAPAV1@@PAX@Z  (Idle)
01:0001C048 ?_newHead@arrayM_inline@@SAXQAVrTypeLibrary@TypeLibraries@RunTime@VIP@@XPBUpositive@core@@PAPAV1@@PAX@Z  (Idle)
01:0001C07C ?_newPointer@arrayM_inline@@SAXQAVrTypeLibrary@TypeLibraries@RunTime@VIP@@PAXPBUpositive@core@@PAPAV1@@PAX@Z 
01:0001C0B0 ?_newFromList@arrayM_inline@@SAXQAVrTypeLibrary@TypeLibraries@RunTime@VIP@@PAU?$__packedList_struct@X@@PAPAV1@@PAX@Z 
01:0001C0E0 ?_object_typelib_initializer$@arrayM_inline@@SGXQAV1@@XQAVrTypeLibrary@TypeLibraries@RunTime@VIP@@@Z 
01:0001C0F8 ?_object_facts_initializer$@arrayM_inline@@SGXQAV1@@X@Z 
01:0001C11C ?data@arrayM_inline@@SGPAXQAV1@@X@Z 
01:0001C128 ?size@arrayM_inline@@SGPBUpositive@core@@QAV1@@X@Z 
01:0001C6A4 arrayM_inline{@ItemType}?_initObject@@@QAGXQAV1@H@Z 
01:0001C6F4 ?@create_object@arrayM_inline@@SGQAV1@@XQAVrTypeLibrary@TypeLibraries@RunTime@VIP@@@Z 
01:0001C718 arrayM_inline{@ItemType}?_InternalFinalizer@@@QAGXQAV1@@Z 
--- From 'obj\exceptiondump.2B9C9E40.obj'
01:0001C730 ?_tryMapLookUp@namedValue@@SAXQAVrTypeLibrary@TypeLibraries@RunTime@VIP@@PAU?$__packedList_struct@PAUnamedValue_struct@core@@X@@PB_WPAX@Z 
--- From 'obj\namedvalue.6D52B2A6.obj'
01:0001C7A0 ?_tryMapLookUpIgnoreCase@namedValue@@SAXQAVrTypeLibrary@TypeLibraries@RunTime@VIP@@PAU?$__packedList_struct@PAUnamedValue_struct@core@@X@@PB_WPAX@Z  (Idle)
01:0001C818 ?_mapLookUp@namedValue@@SAXQAVrTypeLibrary@TypeLibraries@RunTime@VIP@@PAU?$__packedList_struct@PAUnamedValue_struct@core@@X@@PB_WPAX@Z  (Idle)
01:0001C968 ?_mapLookUp@namedValue@@SAXQAVrTypeLibrary@TypeLibraries@RunTime@VIP@@PAU?$__packedList_struct@PAUnamedValue_struct@core@@X@@PB_WXPAX@Z  (Idle)
01:0001C9A4 ?_lookUp_nd@namedValue@@SAXQAVrTypeLibrary@TypeLibraries@RunTime@VIP@@PAU?$__packedList_struct@PAUnamedValue_struct@core@@X@@PB_WPAX@Z  (Idle)
01:0001CA1C ?_getNamed_integer@namedValue@@SAXPAU?$__packedList_struct@PAUnamedValue_struct@core@@PAUvalue_struct@3@@@PB_WPAH@Z  (Idle)
01:0001CAA4 ?_tryGetNamed_integer@namedValue@@SAXPAU?$__packedList_struct@PAUnamedValue_struct@core@@PAUvalue_struct@3@@@PB_WPAH@Z  (Idle)
01:0001CAFC ?_getNamedDefault_integer@namedValue@@SAXPAU?$__packedList_struct@PAUnamedValue_struct@core@@PAUvalue_struct@3@@@PB_WHPAH@Z  (Idle)
01:0001CB70 ?_getNamed_unsigned@namedValue@@SAXPAU?$__packedList_struct@PAUnamedValue_struct@core@@PAUvalue_struct@3@@@PB_WPAI@Z  (Idle)
01:0001CBF8 ?_tryGetNamed_unsigned@namedValue@@SAXPAU?$__packedList_struct@PAUnamedValue_struct@core@@PAUvalue_struct@3@@@PB_WPAI@Z  (Idle)
01:0001CC50 ?_getNamedDefault_unsigned@namedValue@@SAXPAU?$__packedList_struct@PAUnamedValue_struct@core@@PAUvalue_struct@3@@@PB_WIPAI@Z  (Idle)
01:0001CCC4 ?_getNamed_real@namedValue@@SAXPAU?$__packedList_struct@PAUnamedValue_struct@core@@PAUvalue_struct@3@@@PB_WPAPAN@Z  (Idle)
01:0001CD4C ?_tryGetNamed_real@namedValue@@SAXPAU?$__packedList_struct@PAUnamedValue_struct@core@@PAUvalue_struct@3@@@PB_WPAPAN@Z  (Idle)
01:0001CDA4 ?_getNamedDefault_real@namedValue@@SAXPAU?$__packedList_struct@PAUnamedValue_struct@core@@PAUvalue_struct@3@@@PB_WPANPAPAN@Z  (Idle)
01:0001CE18 ?_getNamed_char@namedValue@@SAXPAU?$__packedList_struct@PAUnamedValue_struct@core@@PAUvalue_struct@3@@@PB_WPA_W@Z  (Idle)
01:0001CEA0 ?_tryGetNamed_char@namedValue@@SAXPAU?$__packedList_struct@PAUnamedValue_struct@core@@PAUvalue_struct@3@@@PB_WPA_W@Z  (Idle)
01:0001CEF8 ?_getNamedDefault_char@namedValue@@SAXPAU?$__packedList_struct@PAUnamedValue_struct@core@@PAUvalue_struct@3@@@PB_W_WPA_W@Z  (Idle)
01:0001CF70 ?_getNamed_string@namedValue@@SAXPAU?$__packedList_struct@PAUnamedValue_struct@core@@PAUvalue_struct@3@@@PB_WPAPB_W@Z  (Idle)
--- From 'obj\exception.B6F320E8.obj'
01:0001CFF8 ?_tryGetNamed_string@namedValue@@SAXPAU?$__packedList_struct@PAUnamedValue_struct@core@@PAUvalue_struct@3@@@PB_WPAPB_W@Z 
--- From 'obj\namedvalue.6D52B2A6.obj'
01:0001D050 ?_getNamedDefault_string@namedValue@@SAXPAU?$__packedList_struct@PAUnamedValue_struct@core@@PAUvalue_struct@3@@@PB_W1PAPB_W@Z  (Idle)
01:0001D0C4 ?_getNamed_boolean@namedValue@@SAXPAU?$__packedList_struct@PAUnamedValue_struct@core@@PAUvalue_struct@3@@@PB_WPAPAUboolean_struct@_builtIn@@@Z  (Idle)
01:0001D13C ?_tryGetNamed_boolean@namedValue@@SAXPAU?$__packedList_struct@PAUnamedValue_struct@core@@PAUvalue_struct@3@@@PB_WPAPAUboolean_struct@_builtIn@@@Z  (Idle)
01:0001D180 ?_getNamedDefault_boolean@namedValue@@SAXPAU?$__packedList_struct@PAUnamedValue_struct@core@@PAUvalue_struct@3@@@PB_WPAUboolean_struct@_builtIn@@PAPAU67@@Z  (Idle)
01:0001D1E0 ?_getNamed_binary@namedValue@@SAXPAU?$__packedList_struct@PAUnamedValue_struct@core@@PAUvalue_struct@3@@@PB_WQAPAE@Z  (Idle)
01:0001D278 ?_tryGetNamed_binary@namedValue@@SAXPAU?$__packedList_struct@PAUnamedValue_struct@core@@PAUvalue_struct@3@@@PB_WQAPAE@Z  (Idle)
01:0001D2D0 ?_getNamedDefault_binary@namedValue@@SAXPAU?$__packedList_struct@PAUnamedValue_struct@core@@PAUvalue_struct@3@@@PB_WQAEQAPAE@Z  (Idle)
01:0001D358 ?_getNamed_object@namedValue@@SAXPAU?$__packedList_struct@PAUnamedValue_struct@core@@PAUvalue_struct@3@@@PB_WPAPAV6@@@Z  (Idle)
01:0001D3F0 ?_tryGetNamed_object@namedValue@@SAXPAU?$__packedList_struct@PAUnamedValue_struct@core@@PAUvalue_struct@3@@@PB_WPAPAV6@@@Z  (Idle)
01:0001D448 ?_getNamedDefault_object@namedValue@@SAXPAU?$__packedList_struct@PAUnamedValue_struct@core@@PAUvalue_struct@3@@@PB_WQAV6@@PAPAV6@@@Z  (Idle)
01:0001D4D0 ?_getNamed_pointer@namedValue@@SAXPAU?$__packedList_struct@PAUnamedValue_struct@core@@PAUvalue_struct@3@@@PB_WPAPAX@Z  (Idle)
01:0001D568 ?_tryGetNamed_pointer@namedValue@@SAXPAU?$__packedList_struct@PAUnamedValue_struct@core@@PAUvalue_struct@3@@@PB_WPAPAX@Z  (Idle)
01:0001D5C0 ?_getNamedDefault_pointer@namedValue@@SAXPAU?$__packedList_struct@PAUnamedValue_struct@core@@PAUvalue_struct@3@@@PB_WPAXPAPAX@Z  (Idle)
01:0001D634 ?_getNamed_handle@namedValue@@SAXPAU?$__packedList_struct@PAUnamedValue_struct@core@@PAUvalue_struct@3@@@PB_WAAU6_builtIn@@@Z  (Idle)
01:0001D6CC ?_tryGetNamed_handle@namedValue@@SAXPAU?$__packedList_struct@PAUnamedValue_struct@core@@PAUvalue_struct@3@@@PB_WAAU6_builtIn@@@Z  (Idle)
01:0001D724 ?_getNamedDefault_handle@namedValue@@SAXPAU?$__packedList_struct@PAUnamedValue_struct@core@@PAUvalue_struct@3@@@PB_WPBU6_builtIn@@AAU67@@Z  (Idle)
01:0001D798 ?_getNamed_gmtTimeValue@namedValue@@SAXPAU?$__packedList_struct@PAUnamedValue_struct@core@@PAUvalue_struct@3@@@PB_WPAAAU63@@Z  (Idle)
01:0001D820 ?_tryGetNamed_gmtTimeValue@namedValue@@SAXPAU?$__packedList_struct@PAUnamedValue_struct@core@@PAUvalue_struct@3@@@PB_WPAAAU63@@Z  (Idle)
01:0001D878 ?_getNamedDefault_gmtTimeValue@namedValue@@SAXPAU?$__packedList_struct@PAUnamedValue_struct@core@@PAUvalue_struct@3@@@PB_WPAPBU63@PAAAU63@@Z  (Idle)
01:0001D8EC ?_getNamed_integer64@namedValue@@SAXPAU?$__packedList_struct@PAUnamedValue_struct@core@@PAUvalue_struct@3@@@PB_WPAPA_J@Z  (Idle)
01:0001D978 ?_tryGetNamed_integer64@namedValue@@SAXPAU?$__packedList_struct@PAUnamedValue_struct@core@@PAUvalue_struct@3@@@PB_WPAPA_J@Z  (Idle)
01:0001D9C0 ?_getNamedDefault_integer64@namedValue@@SAXPAU?$__packedList_struct@PAUnamedValue_struct@core@@PAUvalue_struct@3@@@PB_WPA_JPAPA_J@Z  (Idle)
01:0001DA3C ?_getNamed_unsigned64@namedValue@@SAXPAU?$__packedList_struct@PAUnamedValue_struct@core@@PAUvalue_struct@3@@@PB_WPAPA_K@Z  (Idle)
01:0001DAC8 ?_tryGetNamed_unsigned64@namedValue@@SAXPAU?$__packedList_struct@PAUnamedValue_struct@core@@PAUvalue_struct@3@@@PB_WPAPA_K@Z  (Idle)
01:0001DB10 ?_getNamedDefault_unsigned64@namedValue@@SAXPAU?$__packedList_struct@PAUnamedValue_struct@core@@PAUvalue_struct@3@@@PB_WPA_KPAPA_K@Z  (Idle)
--- From 'obj\segmented_binary.C16992E7.obj'
01:0001DB90 ?_fromTo@std@@SAXHHPAH@Z 
--- From 'obj\std.2DE0EC97.obj'
01:0001DBE4 ?_downTo@std@@SAXHHPAH@Z 
01:0001DC38 ?_between@std@@SAXHHPAH@Z  (Idle)
01:0001DCDC ?_fromToInStep@std@@SAXHHPBUpositive@core@@PAH@Z  (Idle)
01:0001DD20 ?_downToInStep@std@@SAXHHPBUpositive@core@@PAH@Z  (Idle)
01:0001DD64 ?_betweenInStep@std@@SAXHHPBUpositive@core@@PAH@Z  (Idle)
01:0001DE10 ?_countFrom@std@@SAXHPAH@Z  (Idle)
01:0001DE4C ?_countFromInStep@std@@SAXHPBUpositive@core@@PAH@Z  (Idle)
01:0001DE88 ?_countDownFrom@std@@SAXHPAH@Z  (Idle)
01:0001DEC4 ?_countDownFromInStep@std@@SAXHPBUpositive@core@@PAH@Z  (Idle)
01:0001DF00 ?repeat@std@@SAXXZ  (Idle)
--- From 'obj\reflection.ACE59E5C.obj'
01:0001DF1C ?_cIterate@std@@SAXHPAH@Z 
--- From 'obj\std.2DE0EC97.obj'
01:0001DF4C ?_lazy/1nf$1@std@@SAXPAUlazy/1nf$1_struct@1@PAX@Z 
01:0001DFD8 ?_lazy@std@@SAXQAVrTypeLibrary@TypeLibraries@RunTime@VIP@@PA$?_function$1@core@@SAXPAX@Z$PAPA$?_function$1@core@@SAXPAX@Z$@Z  (Idle)
01:0001E02C ?_fromTo@std@@SAXPA_J0PAPA_J@Z 
01:0001E0D0 ?_fromTo@std@@SAXPBUintegerNative@_builtIn@@0AAU23@@Z  (Idle)
--- From 'obj\time.6AFD2988.obj'
01:0001E128 ?_fromTo@std@@SAXIIPAI@Z 
--- From 'obj\std.2DE0EC97.obj'
01:0001E17C ?_fromTo@std@@SAXPA_K0PAPA_K@Z  (Idle)
01:0001E220 ?_fromTo@std@@SAXPBUunsignedNative@_builtIn@@0AAU23@@Z  (Idle)
01:0001E278 ?_downTo@std@@SAXPA_J0PAPA_J@Z  (Idle)
01:0001E31C ?_downTo@std@@SAXPBUintegerNative@_builtIn@@0AAU23@@Z  (Idle)
01:0001E374 ?_downTo@std@@SAXIIPAI@Z  (Idle)
01:0001E3C8 ?_downTo@std@@SAXPA_K0PAPA_K@Z  (Idle)
01:0001E46C ?_downTo@std@@SAXPBUunsignedNative@_builtIn@@0AAU23@@Z  (Idle)
01:0001E4C4 ?_between@std@@SAXIIPAI@Z  (Idle)
01:0001E568 ?_cIterate@std@@SAXHPAI@Z  (Idle)
--- From 'obj\reflection.ACE59E5C.obj'
01:0001E598 ?_cIterate@std@@SAXIPAI@Z 
--- From 'obj\std.2DE0EC97.obj'
01:0001E5C8 ?_cIterate@std@@SAXIPAH@Z  (Idle)
--- From 'obj\runtime_api.8B32D2DD.obj'
01:0001E600 ?_getUnsigned@runtime_api@@SAXPBUhKey@registry_native@@PB_WPAI@Z  (Idle)
01:0001E688 ?_getString@runtime_api@@SAXPBUhKey@registry_native@@PB_WPAPB_W@Z  (Idle)
--- From 'obj\exception.B6F320E8.obj'
01:0001E714 ?getOSVersionShort@runtime_api@@SAXQAVoutputStream@@@@Z 
--- From 'obj\runtime_api.8B32D2DD.obj'
01:0001E9A4 ?getOSVersion@runtime_api@@SAXQAVoutputStream@@@@Z  (Idle)
01:0001EA60 ?_getSysInfoStr@runtime_api@@SAXPAPB_W@Z 
01:0001EAE4 ?_getNativeSysInfo@runtime_api@@SAXPAPB_W@Z 
01:0001EB68 ?_getRegInfo@runtime_api@@SAXPAPB_W@Z 
01:0001EC0C ?_getRegInfoK@runtime_api@@SAXPB_WPAPB_W@Z 
01:0001EC78 ?_printString@runtime_api@@SAXPAUvalue_struct@core@@PAPB_W@Z 
01:0001ECE0 ?vip_checkStack@Kernel@VIP@@YAXXZ  (Idle)
--- From 'obj\varm.B882E173.obj'
01:0001ECF0 ?new$@varM_unsigned@@SAXQAV1@@I@Z  (Idle)
01:0001ED10 ?newModel_unary$@varM_unsigned@@SAXQAV1@@QAVvarM@@@IPA$?_function$2@core@@SAXIPAI@Z$@Z  (Idle)
01:0001ED3C ?newModel_binary$@varM_unsigned@@SAXQAV1@@QAVvarM@@@I1PA$?_function$3@core@@SAXIIPAI@Z$@Z  (Idle)
01:0001ED70 ?_add$@varM_unsigned@@SAXQAV1@@IPAI@Z 
01:0001EDA0 ?_sub$@varM_unsigned@@SAXQAV1@@IPAI@Z 
01:0001EDD0 ?_max$@varM_unsigned@@SAXQAV1@@IPAI@Z 
01:0001EE0C ?_min$@varM_unsigned@@SAXQAV1@@IPAI@Z 
01:0001EE48 ?_inc$@varM_unsigned@@SAXQAV1@@PAI@Z 
01:0001EE84 ?_dec$@varM_unsigned@@SAXQAV1@@PAI@Z 
01:0001EEC0 ?_setF$@varM_unsigned@@SAXQAV1@@IPAI@Z 
01:0001EED4 ?add$@varM_unsigned@@SAXQAV1@@I@Z 
01:0001EEF4 ?sub$@varM_unsigned@@SAXQAV1@@I@Z 
01:0001EF14 ?max$@varM_unsigned@@SAXQAV1@@I@Z 
01:0001EF34 ?min$@varM_unsigned@@SAXQAV1@@I@Z 
01:0001EF54 ?inc$@varM_unsigned@@SAXQAV1@@@Z 
01:0001EF70 ?dec$@varM_unsigned@@SAXQAV1@@@Z 
01:0001EF8C ?_new@varM_unsigned@@SAXIPAPAV1@@@Z  (Idle)
01:0001EFB4 ?_newModel_unary@varM_unsigned@@SAXQAVvarM@@@IPA$?_function$2@core@@SAXIPAI@Z$PAPAV1@@@Z  (Idle)
01:0001EFE0 ?_newModel_binary@varM_unsigned@@SAXQAVvarM@@@I0PA$?_function$3@core@@SAXIIPAI@Z$PAPAV1@@@Z  (Idle)
01:0001F010 ?new$@varM_reference@@SAXQAV1@@XQAVrTypeLibrary@TypeLibraries@RunTime@VIP@@PAUpointerTo_struct@memory@@X@Z  (Idle)
01:0001F024 ?_value@varM_reference@@SAXQAVvarM@@@XPAX@Z 
01:0001F050 ?value@varM_reference@@SAXQAVvarM@@@XX@Z 
01:0001F0A8 ?modified@varM_reference@@SGQAVevent0@@@QAVvarM@@@X@Z 
01:0001F0C0 ?_presenter$@varM_reference@@SAXQAVvarM@@@XPAPAUpresentation_struct@presenter@@@Z 
01:0001F100 ?_new@varM_reference@@SAXQAVrTypeLibrary@TypeLibraries@RunTime@VIP@@PAUpointerTo_struct@memory@@XPAPAVvarM@@@PAX@Z  (Idle)
01:0001F130 ?_object_typelib_initializer$@varM_reference@@SGXQAV1@@XQAVrTypeLibrary@TypeLibraries@RunTime@VIP@@@Z 
01:0001F148 ?new$@varM_optional@@SAXQAV1@@XQAVrTypeLibrary@TypeLibraries@RunTime@VIP@@@Z  (Idle)
01:0001F188 ?new$@varM_optional@@SAXQAV1@@XQAVrTypeLibrary@TypeLibraries@RunTime@VIP@@X@Z  (Idle)
01:0001F1DC ?_tryGet$@varM_optional@@SAXQAV1@@XPAX@Z 
01:0001F224 ?noValue$@varM_optional@@SAXQAV1@@X@Z 
01:0001F24C ?set$@varM_optional@@SAXQAV1@@XX@Z 
01:0001F274 ?unset$@varM_optional@@SAXQAV1@@X@Z 
01:0001F28C ?_new@varM_optional@@SAXQAVrTypeLibrary@TypeLibraries@RunTime@VIP@@PAPAV1@@PAX@Z 
01:0001F2B8 ?_new@varM_optional@@SAXQAVrTypeLibrary@TypeLibraries@RunTime@VIP@@XPAPAV1@@PAX@Z  (Idle)
01:0001F2E8 ?_object_typelib_initializer$@varM_optional@@SGXQAV1@@XQAVrTypeLibrary@TypeLibraries@RunTime@VIP@@@Z 
01:0001F300 ?_mk_tl_0_varM{@Term}$imp$$@varM_optional@@SGQAVrTypeLibrary@TypeLibraries@RunTime@VIP@@QAV1@@X@Z 
01:0001F33C ?new$@varM_lazy@@SAXQAV1@@XQAVrTypeLibrary@TypeLibraries@RunTime@VIP@@PA$?_function$1@core@@SAXPAX@Z$@Z  (Idle)
01:0001F350 ?modified@varM_lazy@@SGQAVevent0@@@QAVvarM@@@X@Z 
01:0001F3C4 ?_value@varM_lazy@@SAXQAVvarM@@@XPAX@Z 
01:0001F428 ?value@varM_lazy@@SAXQAVvarM@@@XX@Z 
01:0001F450 ?plainSet$@varM_lazy@@SAXQAV1@@XX@Z 
01:0001F474 ?listenerSet$@varM_lazy@@SAXQAV1@@XX@Z 
01:0001F52C ?clear$@varM_lazy@@SAXQAV1@@X@Z 
01:0001F580 ?clear$@varM_lazy@@SAXQAV1@@XPA$?_function$1@core@@SAXPAX@Z$@Z 
01:0001F594 ?_presenter$@varM_lazy@@SAXQAVvarM@@@XPAPAUpresentation_struct@presenter@@@Z 
01:0001F61C ?_new@varM_lazy@@SAXQAVrTypeLibrary@TypeLibraries@RunTime@VIP@@PA$?_function$1@core@@SAXPAX@Z$PAPAV1@@PAX@Z  (Idle)
01:0001F64C ?_object_typelib_initializer$@varM_lazy@@SGXQAV1@@XQAVrTypeLibrary@TypeLibraries@RunTime@VIP@@@Z 
01:0001F664 ?_object_facts_initializer$_1$@varM_lazy@@SGXQAV1@@X@Z 
01:0001F680 ?_object_facts_initializer$_2$@varM_lazy@@SGXQAV1@@X@Z 
01:0001F6B4 ?_object_facts_initializer$@varM_lazy@@SGXQAV1@@X@Z 
01:0001F6D4 ?new$@varM_integer@@SAXQAV1@@H@Z  (Idle)
01:0001F6F4 ?newModel_unary$@varM_integer@@SAXQAV1@@QAVvarM@@@HPA$?_function$2@core@@SAXHPAH@Z$@Z  (Idle)
01:0001F720 ?newModel_binary$@varM_integer@@SAXQAV1@@QAVvarM@@@H1PA$?_function$3@core@@SAXHHPAH@Z$@Z  (Idle)
01:0001F754 ?_add$@varM_integer@@SAXQAV1@@HPAH@Z 
01:0001F780 ?_sub$@varM_integer@@SAXQAV1@@HPAH@Z 
01:0001F7AC ?_max$@varM_integer@@SAXQAV1@@HPAH@Z 
01:0001F7E8 ?_min$@varM_integer@@SAXQAV1@@HPAH@Z 
01:0001F824 ?_inc$@varM_integer@@SAXQAV1@@PAH@Z 
01:0001F85C ?_dec$@varM_integer@@SAXQAV1@@PAH@Z 
01:0001F894 ?_setF$@varM_integer@@SAXQAV1@@HPAH@Z 
01:0001F8A8 ?add$@varM_integer@@SAXQAV1@@H@Z 
01:0001F8C8 ?sub$@varM_integer@@SAXQAV1@@H@Z 
01:0001F8E8 ?max$@varM_integer@@SAXQAV1@@H@Z 
01:0001F908 ?min$@varM_integer@@SAXQAV1@@H@Z 
01:0001F928 ?inc$@varM_integer@@SAXQAV1@@@Z 
01:0001F944 ?dec$@varM_integer@@SAXQAV1@@@Z 
--- From 'obj\segmented_binary.C16992E7.obj'
01:0001F960 ?_new@varM_integer@@SAXHPAPAV1@@@Z 
--- From 'obj\varm.B882E173.obj'
01:0001F988 ?_newModel_unary@varM_integer@@SAXQAVvarM@@@HPA$?_function$2@core@@SAXHPAH@Z$PAPAV1@@@Z  (Idle)
01:0001F9B4 ?_newModel_binary@varM_integer@@SAXQAVvarM@@@H0PA$?_function$3@core@@SAXHHPAH@Z$PAPAV1@@@Z  (Idle)
01:0001F9E4 ?new$@varM_boolean@@SAXQAV1@@PAUboolean_struct@_builtIn@@@Z  (Idle)
01:0001FA04 ?newModel_and$@varM_boolean@@SAXQAV1@@QAVvarM@@@PAUboolean_struct@_builtIn@@1@Z  (Idle)
01:0001FA38 ?newModel_or$@varM_boolean@@SAXQAV1@@QAVvarM@@@PAUboolean_struct@_builtIn@@1@Z  (Idle)
01:0001FA6C ?newModel_xor$@varM_boolean@@SAXQAV1@@QAVvarM@@@PAUboolean_struct@_builtIn@@1@Z  (Idle)
01:0001FAA0 ?newModel_not$@varM_boolean@@SAXQAV1@@QAVvarM@@@PAUboolean_struct@_builtIn@@@Z  (Idle)
01:0001FAC8 ?and_$@varM_boolean@@SAXQAV1@@PAUboolean_struct@_builtIn@@@Z 
01:0001FAE8 ?or_$@varM_boolean@@SAXQAV1@@PAUboolean_struct@_builtIn@@@Z 
01:0001FB08 ?xor$@varM_boolean@@SAXQAV1@@PAUboolean_struct@_builtIn@@@Z 
01:0001FB4C ?not_$@varM_boolean@@SAXQAV1@@@Z 
01:0001FB8C ?isTrue$@varM_boolean@@SAXQAV1@@@Z 
01:0001FBB4 ?isFalse$@varM_boolean@@SAXQAV1@@@Z 
01:0001FBDC ?setTrue$@varM_boolean@@SAXQAV1@@@Z 
01:0001FBF4 ?setFalse$@varM_boolean@@SAXQAV1@@@Z 
--- From 'obj\reflection.ACE59E5C.obj'
01:0001FC0C ?_new@varM_boolean@@SAXPAUboolean_struct@_builtIn@@PAPAV1@@@Z 
--- From 'obj\varm.B882E173.obj'
01:0001FC34 ?_newModel_and@varM_boolean@@SAXQAVvarM@@@PAUboolean_struct@_builtIn@@0PAPAV1@@@Z  (Idle)
01:0001FC60 ?_newModel_or@varM_boolean@@SAXQAVvarM@@@PAUboolean_struct@_builtIn@@0PAPAV1@@@Z  (Idle)
01:0001FC8C ?_newModel_xor@varM_boolean@@SAXQAVvarM@@@PAUboolean_struct@_builtIn@@0PAPAV1@@@Z  (Idle)
01:0001FCB8 ?_newModel_not@varM_boolean@@SAXQAVvarM@@@PAUboolean_struct@_builtIn@@PAPAV1@@@Z  (Idle)
01:0001FCE0 ?new$@varM@@SAXQAV1@@XQAVrTypeLibrary@TypeLibraries@RunTime@VIP@@X@Z 
01:0001FCF4 ?newmodel_unary/2np$1@varM@@SAXPAUnewmodel_unary/2np$1_struct@1/1@QAV1@@X@Z 
01:0001FD4C ?newmodel_unary/2np$2@varM@@SAXPAUnewmodel_unary/2np$2_struct@1/1@@Z 
01:0001FDB8 ?newModel_unary$@varM@@SAXQAV1@@XQAVrTypeLibrary@TypeLibraries@RunTime@VIP@@0PA$?_function$2@core@@SAXXPAX@Z$@Z 
01:0001FEB8 ?newmodel_binary/3np$1@varM@@SAXPAUnewmodel_binary/3np$1_struct@1/1@QAV1@@X@Z 
01:0001FF2C ?newmodel_binary/3np$2@varM@@SAXPAUnewmodel_binary/3np$2_struct@1/1@@Z 
01:0001FFA0 ?newModel_binary$@varM@@SAXQAV1@@XQAVrTypeLibrary@TypeLibraries@RunTime@VIP@@00PA$?_function$3@core@@SAXXXPAX@Z$@Z 
01:000200F0 ?modified@varM@@SGQAVevent0@@@QAV1@@X@Z 
01:00020164 ?_value@varM@@SAXQAV1@@XPAX@Z 
01:00020178 ?value@varM@@SAXQAV1@@XX@Z 
01:000201A0 ?plainSet$@varM@@SAXQAV1@@XX@Z 
01:000201B4 ?listenerSet$@varM@@SAXQAV1@@XX@Z 
01:00020208 ?_presenter$@varM@@SAXQAV1@@XPAPAUpresentation_struct@presenter@@@Z 
--- From 'obj\reflection.ACE59E5C.obj'
01:00020238 ?_new@varM@@SAXQAVrTypeLibrary@TypeLibraries@RunTime@VIP@@XPAPAV1@@PAX@Z 
--- From 'obj\varm.B882E173.obj'
01:00020268 ?_newModel_unary@varM@@SAXQAVrTypeLibrary@TypeLibraries@RunTime@VIP@@QAV1@@XPA$?_function$2@core@@SAXXPAX@Z$PAPAV1@@PAX@Z  (Idle)
01:0002029C ?_newModel_binary@varM@@SAXQAVrTypeLibrary@TypeLibraries@RunTime@VIP@@QAV1@@X1PA$?_function$3@core@@SAXXXPAX@Z$PAPAV1@@PAX@Z  (Idle)
01:000202D0 ?_object_typelib_initializer$@varM@@SGXQAV1@@XQAVrTypeLibrary@TypeLibraries@RunTime@VIP@@@Z 
01:000202E8 ?_object_facts_initializer$_1$@varM@@SGXQAV1@@X@Z 
01:00020300 ?_object_facts_initializer$_2$@varM@@SGXQAV1@@X@Z 
01:00020334 ?_object_facts_initializer$@varM@@SGXQAV1@@X@Z 
01:000203EC varM_unsigned?_initObject@@@QAGXQAV1@H@Z 
01:00020420 ?@create_object@varM_unsigned@@SGQAV1@@XZ 
01:0002043C varM_unsigned?_InternalFinalizer@@@QAGXQAV1@@Z 
01:00020454 varM_reference{@Term}?_initObject@@@QAGXQAV1@H@Z 
01:0002047C ?@create_object@varM_reference@@SGQAV1@@XQAVrTypeLibrary@TypeLibraries@RunTime@VIP@@@Z 
01:000204A0 varM_reference{@Term}?_InternalFinalizer@@@QAGXQAV1@@Z 
01:00020524 varM_optional{@Term}?_initObject@@@QAGXQAV1@H@Z 
01:00020574 ?@create_object@varM_optional@@SGQAV1@@XQAVrTypeLibrary@TypeLibraries@RunTime@VIP@@@Z 
01:00020598 varM_optional{@Term}?_InternalFinalizer@@@QAGXQAV1@@Z 
01:000205B0 varM_lazy{@Term}?_initObject@@@QAGXQAV1@H@Z 
01:000205E4 ?@create_object@varM_lazy@@SGQAV1@@XQAVrTypeLibrary@TypeLibraries@RunTime@VIP@@@Z 
01:00020608 varM_lazy{@Term}?_InternalFinalizer@@@QAGXQAV1@@Z 
01:000206AC varM_integer?_initObject@@@QAGXQAV1@H@Z 
01:000206E0 ?@create_object@varM_integer@@SGQAV1@@XZ 
01:000206FC varM_integer?_InternalFinalizer@@@QAGXQAV1@@Z 
01:000207A4 varM_boolean?_initObject@@@QAGXQAV1@H@Z 
01:000207D8 ?@create_object@varM_boolean@@SGQAV1@@XZ 
01:000207F4 varM_boolean?_InternalFinalizer@@@QAGXQAV1@@Z 
01:0002080C varM{@Term}?_initObject@@@QAGXQAV1@H@Z 
01:00020840 ?@create_object@varM@@SGQAV1@@XQAVrTypeLibrary@TypeLibraries@RunTime@VIP@@@Z 
01:00020864 varM{@Term}?_InternalFinalizer@@@QAGXQAV1@@Z 
--- From 'obj\event.D92D3A63.obj'
01:00020870 ?addListener$@event7@@SAXQAV1@@XXXXXXXX@Z 
01:00020890 ?addlistener_once/1np$1@event7@@SAXPAUaddlistener_once/1np$1_struct@1/7@XXXXXXX@Z 
01:000208A4 ?addlistener_once/1np$2@event7@@SAXPAUaddlistener_once/1np$2_struct@1/7@XXXXXXX@Z 
01:0002093C ?addListener_once$@event7@@SAXQAV1@@XXXXXXXX@Z 
01:00020A78 ?addlistener/2np0$1@event7@@SAXPAUaddlistener/2np0$1_struct@1/7@@Z 
01:00020AA4 ?addListener$@event7@@SAXQAV1@@XXXXXXXXQAVevent0@@@@Z 
01:00020B2C ?removeListener$@event7@@SAXQAV1@@XXXXXXXX@Z 
01:00020BF8 ?removeAllListeners$@event7@@SAXQAV1@@XXXXXXX@Z 
01:00020C48 ?hasListeners$@event7@@SAXQAV1@@XXXXXXX@Z 
01:00020CA4 ?notify$@event7@@SAXQAV1@@XXXXXXXXXXXXXX@Z 
01:00020D38 ?new$@event7@@SAXQAV1@@XXXXXXXQAVrTypeLibrary@TypeLibraries@RunTime@VIP@@111111@Z  (Idle)
01:00020D40 ?_new@event7@@SAXQAVrTypeLibrary@TypeLibraries@RunTime@VIP@@000000PAPAV1@@PAXPAXPAXPAXPAXPAXPAX@Z  (Idle)
01:00020D8C ?_object_typelib_initializer$@event7@@SGXQAV1@@XXXXXXXQAVrTypeLibrary@TypeLibraries@RunTime@VIP@@111111@Z 
01:00020DC8 ?addlistener/2np1$1@event7@@SAXPAUaddlistener/2np1$1_struct@1/7@X@Z 
01:00020DEC ?addListener$@event7@@SAXQAV1@@XXXXXXXQAVrTypeLibrary@TypeLibraries@RunTime@VIP@@XQAVevent1@@@X@Z 
01:00020E7C ?addlistener/2np2$1@event7@@SAXPAUaddlistener/2np2$1_struct@1/7@XX@Z 
01:00020EA0 ?addListener$@event7@@SAXQAV1@@XXXXXXXQAVrTypeLibrary@TypeLibraries@RunTime@VIP@@1XQAVevent2@@@XX@Z 
01:00020F34 ?addlistener/2np3$1@event7@@SAXPAUaddlistener/2np3$1_struct@1/7@XXX@Z 
01:00020F58 ?addListener$@event7@@SAXQAV1@@XXXXXXXQAVrTypeLibrary@TypeLibraries@RunTime@VIP@@11XQAVevent3@@@XXX@Z 
01:00020FF4 ?addlistener/2np4$1@event7@@SAXPAUaddlistener/2np4$1_struct@1/7@XXXX@Z 
01:00021018 ?addListener$@event7@@SAXQAV1@@XXXXXXXQAVrTypeLibrary@TypeLibraries@RunTime@VIP@@111XQAVevent4@@@XXXX@Z 
01:000210B8 ?addlistener/2np5$1@event7@@SAXPAUaddlistener/2np5$1_struct@1/7@XXXXX@Z 
01:000210DC ?addListener$@event7@@SAXQAV1@@XXXXXXXQAVrTypeLibrary@TypeLibraries@RunTime@VIP@@1111XQAVevent5@@@XXXXX@Z 
01:00021184 ?addlistener/2np6$1@event7@@SAXPAUaddlistener/2np6$1_struct@1/7@XXXXXX@Z 
01:000211A8 ?addListener$@event7@@SAXQAV1@@XXXXXXXQAVrTypeLibrary@TypeLibraries@RunTime@VIP@@11111XQAVevent6@@@XXXXXX@Z 
01:00021254 ?addlistener/2np7$1@event7@@SAXPAUaddlistener/2np7$1_struct@1/7@XXXXXXX@Z 
01:00021278 ?addListener$@event7@@SAXQAV1@@XXXXXXXQAVrTypeLibrary@TypeLibraries@RunTime@VIP@@111111X0@Z 
01:0002132C ?addListener$@event6@@SAXQAV1@@XXXXXXX@Z 
01:0002134C ?addlistener_once/1np$1@event6@@SAXPAUaddlistener_once/1np$1_struct@1/6@XXXXXX@Z 
01:00021360 ?addlistener_once/1np$2@event6@@SAXPAUaddlistener_once/1np$2_struct@1/6@XXXXXX@Z 
01:000213EC ?addListener_once$@event6@@SAXQAV1@@XXXXXXX@Z 
01:00021518 ?addlistener/2np0$1@event6@@SAXPAUaddlistener/2np0$1_struct@1/6@@Z 
01:00021544 ?addListener$@event6@@SAXQAV1@@XXXXXXXQAVevent0@@@@Z 
01:000215C8 ?removeListener$@event6@@SAXQAV1@@XXXXXXX@Z 
01:00021690 ?removeAllListeners$@event6@@SAXQAV1@@XXXXXX@Z 
01:000216E0 ?hasListeners$@event6@@SAXQAV1@@XXXXXX@Z 
01:0002173C ?notify$@event6@@SAXQAV1@@XXXXXXXXXXXX@Z 
01:000217CC ?new$@event6@@SAXQAV1@@XXXXXXQAVrTypeLibrary@TypeLibraries@RunTime@VIP@@11111@Z  (Idle)
01:000217D4 ?_new@event6@@SAXQAVrTypeLibrary@TypeLibraries@RunTime@VIP@@00000PAPAV1@@PAXPAXPAXPAXPAXPAX@Z  (Idle)
01:0002181C ?_object_typelib_initializer$@event6@@SGXQAV1@@XXXXXXQAVrTypeLibrary@TypeLibraries@RunTime@VIP@@11111@Z 
01:00021850 ?addlistener/2np1$1@event6@@SAXPAUaddlistener/2np1$1_struct@1/6@X@Z 
01:00021874 ?addListener$@event6@@SAXQAV1@@XXXXXXQAVrTypeLibrary@TypeLibraries@RunTime@VIP@@XQAVevent1@@@X@Z 
01:000218FC ?addlistener/2np2$1@event6@@SAXPAUaddlistener/2np2$1_struct@1/6@XX@Z 
01:00021920 ?addListener$@event6@@SAXQAV1@@XXXXXXQAVrTypeLibrary@TypeLibraries@RunTime@VIP@@1XQAVevent2@@@XX@Z 
01:000219B0 ?addlistener/2np3$1@event6@@SAXPAUaddlistener/2np3$1_struct@1/6@XXX@Z 
01:000219D4 ?addListener$@event6@@SAXQAV1@@XXXXXXQAVrTypeLibrary@TypeLibraries@RunTime@VIP@@11XQAVevent3@@@XXX@Z 
01:00021A68 ?addlistener/2np4$1@event6@@SAXPAUaddlistener/2np4$1_struct@1/6@XXXX@Z 
01:00021A8C ?addListener$@event6@@SAXQAV1@@XXXXXXQAVrTypeLibrary@TypeLibraries@RunTime@VIP@@111XQAVevent4@@@XXXX@Z 
01:00021B28 ?addlistener/2np5$1@event6@@SAXPAUaddlistener/2np5$1_struct@1/6@XXXXX@Z 
01:00021B4C ?addListener$@event6@@SAXQAV1@@XXXXXXQAVrTypeLibrary@TypeLibraries@RunTime@VIP@@1111XQAVevent5@@@XXXXX@Z 
01:00021BEC ?addlistener/2np6$1@event6@@SAXPAUaddlistener/2np6$1_struct@1/6@XXXXXX@Z 
01:00021C10 ?addListener$@event6@@SAXQAV1@@XXXXXXQAVrTypeLibrary@TypeLibraries@RunTime@VIP@@11111X0@Z 
01:00021CB8 ?addListener$@event5@@SAXQAV1@@XXXXXX@Z 
01:00021CD8 ?addlistener_once/1np$1@event5@@SAXPAUaddlistener_once/1np$1_struct@1/5@XXXXX@Z 
01:00021CEC ?addlistener_once/1np$2@event5@@SAXPAUaddlistener_once/1np$2_struct@1/5@XXXXX@Z 
01:00021D70 ?addListener_once$@event5@@SAXQAV1@@XXXXXX@Z 
01:00021E88 ?addlistener/2np0$1@event5@@SAXPAUaddlistener/2np0$1_struct@1/5@@Z 
01:00021EB4 ?addListener$@event5@@SAXQAV1@@XXXXXXQAVevent0@@@@Z 
01:00021F30 ?removeListener$@event5@@SAXQAV1@@XXXXXX@Z 
01:00021FF0 ?removeAllListeners$@event5@@SAXQAV1@@XXXXX@Z 
01:00022040 ?hasListeners$@event5@@SAXQAV1@@XXXXX@Z 
01:0002209C ?notify$@event5@@SAXQAV1@@XXXXXXXXXX@Z 
01:00022128 ?new$@event5@@SAXQAV1@@XXXXXQAVrTypeLibrary@TypeLibraries@RunTime@VIP@@1111@Z  (Idle)
01:00022130 ?_new@event5@@SAXQAVrTypeLibrary@TypeLibraries@RunTime@VIP@@0000PAPAV1@@PAXPAXPAXPAXPAX@Z  (Idle)
01:00022170 ?_object_typelib_initializer$@event5@@SGXQAV1@@XXXXXQAVrTypeLibrary@TypeLibraries@RunTime@VIP@@1111@Z 
01:000221A0 ?addlistener/2np1$1@event5@@SAXPAUaddlistener/2np1$1_struct@1/5@X@Z 
01:000221C4 ?addListener$@event5@@SAXQAV1@@XXXXXQAVrTypeLibrary@TypeLibraries@RunTime@VIP@@XQAVevent1@@@X@Z 
01:00022248 ?addlistener/2np2$1@event5@@SAXPAUaddlistener/2np2$1_struct@1/5@XX@Z 
01:0002226C ?addListener$@event5@@SAXQAV1@@XXXXXQAVrTypeLibrary@TypeLibraries@RunTime@VIP@@1XQAVevent2@@@XX@Z 
01:000222F4 ?addlistener/2np3$1@event5@@SAXPAUaddlistener/2np3$1_struct@1/5@XXX@Z 
01:00022318 ?addListener$@event5@@SAXQAV1@@XXXXXQAVrTypeLibrary@TypeLibraries@RunTime@VIP@@11XQAVevent3@@@XXX@Z 
01:000223A8 ?addlistener/2np4$1@event5@@SAXPAUaddlistener/2np4$1_struct@1/5@XXXX@Z 
01:000223CC ?addListener$@event5@@SAXQAV1@@XXXXXQAVrTypeLibrary@TypeLibraries@RunTime@VIP@@111XQAVevent4@@@XXXX@Z 
01:00022460 ?addlistener/2np5$1@event5@@SAXPAUaddlistener/2np5$1_struct@1/5@XXXXX@Z 
01:00022484 ?addListener$@event5@@SAXQAV1@@XXXXXQAVrTypeLibrary@TypeLibraries@RunTime@VIP@@1111X0@Z 
01:00022520 ?addListener$@event4@@SAXQAV1@@XXXXX@Z 
01:00022540 ?addlistener_once/1np$1@event4@@SAXPAUaddlistener_once/1np$1_struct@1/4@XXXX@Z 
01:00022554 ?addlistener_once/1np$2@event4@@SAXPAUaddlistener_once/1np$2_struct@1/4@XXXX@Z 
01:000225D0 ?addListener_once$@event4@@SAXQAV1@@XXXXX@Z 
01:000226D8 ?addlistener/2np0$1@event4@@SAXPAUaddlistener/2np0$1_struct@1/4@@Z 
01:00022704 ?addListener$@event4@@SAXQAV1@@XXXXXQAVevent0@@@@Z 
01:0002277C ?removeListener$@event4@@SAXQAV1@@XXXXX@Z 
01:00022838 ?removeAllListeners$@event4@@SAXQAV1@@XXXX@Z 
01:00022888 ?hasListeners$@event4@@SAXQAV1@@XXXX@Z 
01:000228E4 ?notify$@event4@@SAXQAV1@@XXXXXXXX@Z 
01:0002296C ?new$@event4@@SAXQAV1@@XXXXQAVrTypeLibrary@TypeLibraries@RunTime@VIP@@111@Z  (Idle)
01:00022974 ?_new@event4@@SAXQAVrTypeLibrary@TypeLibraries@RunTime@VIP@@000PAPAV1@@PAXPAXPAXPAX@Z  (Idle)
01:000229B0 ?_object_typelib_initializer$@event4@@SGXQAV1@@XXXXQAVrTypeLibrary@TypeLibraries@RunTime@VIP@@111@Z 
01:000229D8 ?addlistener/2np1$1@event4@@SAXPAUaddlistener/2np1$1_struct@1/4@X@Z 
01:000229FC ?addListener$@event4@@SAXQAV1@@XXXXQAVrTypeLibrary@TypeLibraries@RunTime@VIP@@XQAVevent1@@@X@Z 
01:00022A78 ?addlistener/2np2$1@event4@@SAXPAUaddlistener/2np2$1_struct@1/4@XX@Z 
01:00022A9C ?addListener$@event4@@SAXQAV1@@XXXXQAVrTypeLibrary@TypeLibraries@RunTime@VIP@@1XQAVevent2@@@XX@Z 
01:00022B20 ?addlistener/2np3$1@event4@@SAXPAUaddlistener/2np3$1_struct@1/4@XXX@Z 
01:00022B44 ?addListener$@event4@@SAXQAV1@@XXXXQAVrTypeLibrary@TypeLibraries@RunTime@VIP@@11XQAVevent3@@@XXX@Z 
01:00022BCC ?addlistener/2np4$1@event4@@SAXPAUaddlistener/2np4$1_struct@1/4@XXXX@Z 
01:00022BF0 ?addListener$@event4@@SAXQAV1@@XXXXQAVrTypeLibrary@TypeLibraries@RunTime@VIP@@111X0@Z 
01:00022C80 ?addlistener/2np5$1@event4@@SAXPAUaddlistener/2np5$1_struct@1/4@XXXXX@Z 
01:00022CA4 ?addListener$@event4@@SAXQAV1@@XXXXQAVrTypeLibrary@TypeLibraries@RunTime@VIP@@1111XQAVevent5@@@XXXXX@Z 
01:00022D38 ?addListener$@event3@@SAXQAV1@@XXXX@Z 
01:00022D58 ?addlistener_once/1np$1@event3@@SAXPAUaddlistener_once/1np$1_struct@1/3@XXX@Z 
01:00022D6C ?addlistener_once/1np$2@event3@@SAXPAUaddlistener_once/1np$2_struct@1/3@XXX@Z 
01:00022DE0 ?addListener_once$@event3@@SAXQAV1@@XXXX@Z 
01:00022ED4 ?addlistener/2np0$1@event3@@SAXPAUaddlistener/2np0$1_struct@1/3@@Z 
01:00022F00 ?addListener$@event3@@SAXQAV1@@XXXXQAVevent0@@@@Z 
01:00022F70 ?removeListener$@event3@@SAXQAV1@@XXXX@Z 
01:00023024 ?removeAllListeners$@event3@@SAXQAV1@@XXX@Z 
01:00023074 ?hasListeners$@event3@@SAXQAV1@@XXX@Z 
01:000230D0 ?notify$@event3@@SAXQAV1@@XXXXXX@Z 
01:00023158 ?new$@event3@@SAXQAV1@@XXXQAVrTypeLibrary@TypeLibraries@RunTime@VIP@@11@Z  (Idle)
01:00023160 ?_new@event3@@SAXQAVrTypeLibrary@TypeLibraries@RunTime@VIP@@00PAPAV1@@PAXPAXPAX@Z  (Idle)
01:00023194 ?_object_typelib_initializer$@event3@@SGXQAV1@@XXXQAVrTypeLibrary@TypeLibraries@RunTime@VIP@@11@Z 
01:000231B8 ?addlistener/2np1$1@event3@@SAXPAUaddlistener/2np1$1_struct@1/3@X@Z 
01:000231DC ?addListener$@event3@@SAXQAV1@@XXXQAVrTypeLibrary@TypeLibraries@RunTime@VIP@@XQAVevent1@@@X@Z 
01:00023254 ?addlistener/2np2$1@event3@@SAXPAUaddlistener/2np2$1_struct@1/3@XX@Z 
01:00023278 ?addListener$@event3@@SAXQAV1@@XXXQAVrTypeLibrary@TypeLibraries@RunTime@VIP@@1XQAVevent2@@@XX@Z 
01:000232F4 ?addlistener/2np3$1@event3@@SAXPAUaddlistener/2np3$1_struct@1/3@XXX@Z 
01:00023318 ?addListener$@event3@@SAXQAV1@@XXXQAVrTypeLibrary@TypeLibraries@RunTime@VIP@@11X0@Z 
01:0002339C ?addlistener/2np4$1@event3@@SAXPAUaddlistener/2np4$1_struct@1/3@XXXX@Z 
01:000233C0 ?addListener$@event3@@SAXQAV1@@XXXQAVrTypeLibrary@TypeLibraries@RunTime@VIP@@111XQAVevent4@@@XXXX@Z 
01:00023448 ?addlistener/2np5$1@event3@@SAXPAUaddlistener/2np5$1_struct@1/3@XXXXX@Z 
01:0002346C ?addListener$@event3@@SAXQAV1@@XXXQAVrTypeLibrary@TypeLibraries@RunTime@VIP@@1111XQAVevent5@@@XXXXX@Z 
01:000234FC ?addListener$@event2@@SAXQAV1@@XXX@Z 
01:0002351C ?addlistener_once/1np$1@event2@@SAXPAUaddlistener_once/1np$1_struct@1/2@XX@Z 
01:00023530 ?addlistener_once/1np$2@event2@@SAXPAUaddlistener_once/1np$2_struct@1/2@XX@Z 
01:00023598 ?addListener_once$@event2@@SAXQAV1@@XXX@Z 
01:0002367C ?addlistener/2np0$1@event2@@SAXPAUaddlistener/2np0$1_struct@1/2@@Z 
01:000236A8 ?addListener$@event2@@SAXQAV1@@XXXQAVevent0@@@@Z 
01:00023714 ?removeListener$@event2@@SAXQAV1@@XXX@Z 
01:000237C0 ?removeAllListeners$@event2@@SAXQAV1@@XX@Z 
01:00023810 ?hasListeners$@event2@@SAXQAV1@@XX@Z 
01:0002386C ?notify$@event2@@SAXQAV1@@XXXX@Z 
01:000238F0 ?new$@event2@@SAXQAV1@@XXQAVrTypeLibrary@TypeLibraries@RunTime@VIP@@1@Z  (Idle)
01:000238F8 ?_new@event2@@SAXQAVrTypeLibrary@TypeLibraries@RunTime@VIP@@0PAPAV1@@PAXPAX@Z  (Idle)
01:00023928 ?_object_typelib_initializer$@event2@@SGXQAV1@@XXQAVrTypeLibrary@TypeLibraries@RunTime@VIP@@1@Z 
01:00023944 ?addlistener/2np1$1@event2@@SAXPAUaddlistener/2np1$1_struct@1/2@X@Z 
01:00023968 ?addListener$@event2@@SAXQAV1@@XXQAVrTypeLibrary@TypeLibraries@RunTime@VIP@@XQAVevent1@@@X@Z 
01:000239D8 ?addlistener/2np2$1@event2@@SAXPAUaddlistener/2np2$1_struct@1/2@XX@Z 
01:000239FC ?addListener$@event2@@SAXQAV1@@XXQAVrTypeLibrary@TypeLibraries@RunTime@VIP@@1X0@Z 
01:00023A74 ?addlistener/2np3$1@event2@@SAXPAUaddlistener/2np3$1_struct@1/2@XXX@Z 
01:00023A98 ?addListener$@event2@@SAXQAV1@@XXQAVrTypeLibrary@TypeLibraries@RunTime@VIP@@11XQAVevent3@@@XXX@Z 
01:00023B14 ?addlistener/2np4$1@event2@@SAXPAUaddlistener/2np4$1_struct@1/2@XXXX@Z 
01:00023B38 ?addListener$@event2@@SAXQAV1@@XXQAVrTypeLibrary@TypeLibraries@RunTime@VIP@@111XQAVevent4@@@XXXX@Z 
01:00023BBC ?addlistener/2np5$1@event2@@SAXPAUaddlistener/2np5$1_struct@1/2@XXXXX@Z 
01:00023BE0 ?addListener$@event2@@SAXQAV1@@XXQAVrTypeLibrary@TypeLibraries@RunTime@VIP@@1111XQAVevent5@@@XXXXX@Z 
01:00023C68 ?addListener$@event1@@SAXQAV1@@XX@Z 
01:00023C88 ?addlistener_once/1np$1@event1@@SAXPAUaddlistener_once/1np$1_struct@1/1@X@Z 
01:00023C9C ?addlistener_once/1np$2@event1@@SAXPAUaddlistener_once/1np$2_struct@1/1@X@Z 
01:00023CFC ?addListener_once$@event1@@SAXQAV1@@XX@Z 
01:00023DCC ?addlistener/2np0$1@event1@@SAXPAUaddlistener/2np0$1_struct@1/1@@Z 
01:00023DF8 ?addListener$@event1@@SAXQAV1@@XXQAVevent0@@@@Z 
01:00023E5C ?removeListener$@event1@@SAXQAV1@@XX@Z 
01:00023F00 ?removeAllListeners$@event1@@SAXQAV1@@X@Z 
01:00023F50 ?hasListeners$@event1@@SAXQAV1@@X@Z 
01:00023FAC ?notify$@event1@@SAXQAV1@@XX@Z 
01:0002402C ?new$@event1@@SAXQAV1@@XQAVrTypeLibrary@TypeLibraries@RunTime@VIP@@@Z  (Idle)
01:00024034 ?_new@event1@@SAXQAVrTypeLibrary@TypeLibraries@RunTime@VIP@@PAPAV1@@PAX@Z  (Idle)
01:0002405C ?_object_typelib_initializer$@event1@@SGXQAV1@@XQAVrTypeLibrary@TypeLibraries@RunTime@VIP@@@Z 
01:00024074 ?addlistener/2np1$1@event1@@SAXPAUaddlistener/2np1$1_struct@1/1@X@Z 
01:00024098 ?addListener$@event1@@SAXQAV1@@XQAVrTypeLibrary@TypeLibraries@RunTime@VIP@@X0@Z 
01:00024104 ?addlistener/2np2$1@event1@@SAXPAUaddlistener/2np2$1_struct@1/1@XX@Z 
01:00024128 ?addListener$@event1@@SAXQAV1@@XQAVrTypeLibrary@TypeLibraries@RunTime@VIP@@1XQAVevent2@@@XX@Z 
01:00024198 ?addlistener/2np3$1@event1@@SAXPAUaddlistener/2np3$1_struct@1/1@XXX@Z 
01:000241BC ?addListener$@event1@@SAXQAV1@@XQAVrTypeLibrary@TypeLibraries@RunTime@VIP@@11XQAVevent3@@@XXX@Z 
01:00024234 ?addlistener/2np4$1@event1@@SAXPAUaddlistener/2np4$1_struct@1/1@XXXX@Z 
01:00024258 ?addListener$@event1@@SAXQAV1@@XQAVrTypeLibrary@TypeLibraries@RunTime@VIP@@111XQAVevent4@@@XXXX@Z 
01:000242D4 ?addlistener/2np5$1@event1@@SAXPAUaddlistener/2np5$1_struct@1/1@XXXXX@Z 
01:000242F8 ?addListener$@event1@@SAXQAV1@@XQAVrTypeLibrary@TypeLibraries@RunTime@VIP@@1111XQAVevent5@@@XXXXX@Z 
01:0002437C ?addListener$@event0@@SAXQAV1@@X@Z 
01:0002439C ?addlistener_once/1np$1@event0@@SAXPAUaddlistener_once/1np$1_struct@1@@Z 
01:000243F0 ?addListener_once$@event0@@SAXQAV1@@X@Z 
01:00024464 ?addlistener/2np0$1@event0@@SAXPAUaddlistener/2np0$1_struct@1@@Z 
01:00024490 ?addListener$@event0@@SAXQAV1@@X0@Z 
01:000244EC ?removeListener$@event0@@SAXQAV1@@X@Z 
01:00024568 ?removeAllListeners$@event0@@SAXQAV1@@@Z 
01:000245B8 ?hasListeners$@event0@@SAXQAV1@@@Z 
01:00024614 ?notify$@event0@@SAXQAV1@@@Z 
01:00024690 ?new$@event0@@SAXQAV1@@@Z  (Idle)
--- From 'obj\weakreference.0A1AF11C.obj'
01:00024698 ?_new@event0@@SAXPAPAV1@@@Z 
--- From 'obj\event.D92D3A63.obj'
01:000246BC ?addlistener/2np1$1@event0@@SAXPAUaddlistener/2np1$1_struct@1@X@Z 
01:000246E0 ?addListener$@event0@@SAXQAV1@@QAVrTypeLibrary@TypeLibraries@RunTime@VIP@@XQAVevent1@@@X@Z 
01:00024740 ?addlistener/2np2$1@event0@@SAXPAUaddlistener/2np2$1_struct@1@XX@Z 
01:00024764 ?addListener$@event0@@SAXQAV1@@QAVrTypeLibrary@TypeLibraries@RunTime@VIP@@1XQAVevent2@@@XX@Z 
01:000247CC ?addlistener/2np3$1@event0@@SAXPAUaddlistener/2np3$1_struct@1@XXX@Z 
01:000247F0 ?addListener$@event0@@SAXQAV1@@QAVrTypeLibrary@TypeLibraries@RunTime@VIP@@11XQAVevent3@@@XXX@Z 
01:0002485C ?addlistener/2np4$1@event0@@SAXPAUaddlistener/2np4$1_struct@1@XXXX@Z 
01:00024880 ?addListener$@event0@@SAXQAV1@@QAVrTypeLibrary@TypeLibraries@RunTime@VIP@@111XQAVevent4@@@XXXX@Z 
01:000248F4 ?addlistener/2np5$1@event0@@SAXPAUaddlistener/2np5$1_struct@1@XXXXX@Z 
01:00024918 ?addListener$@event0@@SAXQAV1@@QAVrTypeLibrary@TypeLibraries@RunTime@VIP@@1111XQAVevent5@@@XXXXX@Z 
01:00024998 event7{@Type1,@Type2,@Type3,@Type4,@Type5,@Type6,@Type7}?_initObject@@@QAGXQAV1@H@Z 
01:000249D8 ?@create_object@event7@@SGQAV1@@XXXXXXXQAVrTypeLibrary@TypeLibraries@RunTime@VIP@@000000@Z 
01:00024A14 event7{@Type1,@Type2,@Type3,@Type4,@Type5,@Type6,@Type7}?_InternalFinalizer@@@QAGXQAV1@@Z 
01:00024A28 event6{@Type1,@Type2,@Type3,@Type4,@Type5,@Type6}?_initObject@@@QAGXQAV1@H@Z 
01:00024A64 ?@create_object@event6@@SGQAV1@@XXXXXXQAVrTypeLibrary@TypeLibraries@RunTime@VIP@@00000@Z 
01:00024A9C event6{@Type1,@Type2,@Type3,@Type4,@Type5,@Type6}?_InternalFinalizer@@@QAGXQAV1@@Z 
01:00024AB0 event5{@Type1,@Type2,@Type3,@Type4,@Type5}?_initObject@@@QAGXQAV1@H@Z 
01:00024AE8 ?@create_object@event5@@SGQAV1@@XXXXXQAVrTypeLibrary@TypeLibraries@RunTime@VIP@@0000@Z 
01:00024B1C event5{@Type1,@Type2,@Type3,@Type4,@Type5}?_InternalFinalizer@@@QAGXQAV1@@Z 
01:00024B30 event4{@Type1,@Type2,@Type3,@Type4}?_initObject@@@QAGXQAV1@H@Z 
01:00024B64 ?@create_object@event4@@SGQAV1@@XXXXQAVrTypeLibrary@TypeLibraries@RunTime@VIP@@000@Z 
01:00024B94 event4{@Type1,@Type2,@Type3,@Type4}?_InternalFinalizer@@@QAGXQAV1@@Z 
01:00024BA8 event3{@Type1,@Type2,@Type3}?_initObject@@@QAGXQAV1@H@Z 
01:00024BD8 ?@create_object@event3@@SGQAV1@@XXXQAVrTypeLibrary@TypeLibraries@RunTime@VIP@@00@Z 
01:00024C04 event3{@Type1,@Type2,@Type3}?_InternalFinalizer@@@QAGXQAV1@@Z 
01:00024C18 event2{@Type1,@Type2}?_initObject@@@QAGXQAV1@H@Z 
01:00024C44 ?@create_object@event2@@SGQAV1@@XXQAVrTypeLibrary@TypeLibraries@RunTime@VIP@@0@Z 
01:00024C6C event2{@Type1,@Type2}?_InternalFinalizer@@@QAGXQAV1@@Z 
01:00024C80 event1{@Type1}?_initObject@@@QAGXQAV1@H@Z 
01:00024CA8 ?@create_object@event1@@SGQAV1@@XQAVrTypeLibrary@TypeLibraries@RunTime@VIP@@@Z 
01:00024CCC event1{@Type1}?_InternalFinalizer@@@QAGXQAV1@@Z 
01:00024CE0 event0?_initObject@@@QAGXQAV1@H@Z 
01:00024CF8 ?@create_object@event0@@SGQAV1@@XZ 
01:00024D14 event0?_InternalFinalizer@@@QAGXQAV1@@Z 
--- From 'obj\exceptiondump.2B9C9E40.obj'
01:00024D20 ?dump@exceptionDump@@SAXQAVoutputStream@@@PBUtraceId@exception@@@Z  (Idle)
01:00024D48 ?dump_info@exceptionDump@@SAXQAVoutputStream@@@PAUtraceInfo_struct@exception@@@Z 
01:00024DAC ?dump_programPoint@exceptionDump@@SAXQAVoutputStream@@@PAUprogramPoint_struct@core@@@Z 
01:00024E24 ?dumpToStdOutput@exceptionDump@@SAXPBUtraceId@exception@@@Z 
01:00024E4C ?dumpToStdOutput_info@exceptionDump@@SAXPAUtraceInfo_struct@exception@@@Z 
01:00024E74 ?dumpToStdOutput_programpoint@exceptionDump@@SAXPAUprogramPoint_struct@core@@@Z  (Idle)
01:00024E9C ?_dumpToString@exceptionDump@@SAXPBUtraceId@exception@@PAPB_W@Z  (Idle)
01:00024EC4 ?_dumpToString_info@exceptionDump@@SAXPAUtraceInfo_struct@exception@@PAPB_W@Z 
01:00024EF8 ?_dumpToString_programpoint@exceptionDump@@SAXPAUprogramPoint_struct@core@@PAPB_W@Z  (Idle)
01:00024F2C ?dumpToStdOutputInTrap@exceptionDump@@SAXQAVrTypeLibrary@TypeLibraries@RunTime@VIP@@XPA$?predicate$2@core@@SAXQAVoutputStream@@@X@Z$@Z 
01:0002503C ?processErrorOnDumpToStdOutTrapped@exceptionDump@@SAXPBUtraceId@exception@@@Z 
01:00025108 ?_formatDescriptorList@exceptionDump@@SAXPAU?$__packedList_struct@PAUdescriptor_struct@exception@@@@PAPB_W@Z  (Idle)
01:0002513C ?_formatDescriptor@exceptionDump@@SAXPAUdescriptor_struct@exception@@PAPB_W@Z  (Idle)
01:00025170 ?_formatExtraInfo@exceptionDump@@SAXPAU?$__packedList_struct@PAUnamedValue_struct@core@@PAUvalue_struct@3@@@PAPB_W@Z  (Idle)
01:000251A4 ?_formatLineInfoList@exceptionDump@@SAXPAU?$__packedList_struct@PAUlineInfo_struct@exception@@@@PAPB_W@Z  (Idle)
01:000251D8 ?_fillUsrMsgTags@exceptionDump@@SAXPB_WPAU?$__packedList_struct@PAUnamedValue_struct@core@@PAUvalue_struct@3@@@PAPB_W@Z  (Idle)
01:000252B0 ?_substituteTag@exceptionDump@@SAXPB_WPAU?$__packedList_struct@PAUnamedValue_struct@core@@PAUvalue_struct@3@@@PAPB_W@Z 
01:00025300 ?_value2String@exceptionDump@@SAXPAUvalue_struct@core@@PAPB_W@Z 
01:00025368 ?getUserMsgFromNV_dt@exceptionDump@@SAXPAU?$__packedList_struct@PAUnamedValue_struct@core@@PAUvalue_struct@3@@@PAPB_W@Z  (Idle)
01:00025434 ?_getUserMsg@exceptionDump@@SAXPAU?$__packedList_struct@PAUdescriptor_struct@exception@@@@PAPB_W@Z  (Idle)
01:00025480 ?writeUserMsg@exceptionDump@@SAXQAVoutputStream@@@PAU?$__packedList_struct@PAUdescriptor_struct@exception@@@@@Z 
01:000254F4 ?_tryGetUserMsg@exceptionDump@@SAXPAUdescriptor_struct@exception@@PAPB_W@Z 
01:0002550C ?_tryGetUserMessage@exceptionDump@@SAXPBUtraceId@exception@@PAPB_W@Z  (Idle)
01:00025534 ?_tryGetUserMessage_info@exceptionDump@@SAXPAUtraceInfo_struct@exception@@PAPB_W@Z 
01:0002554C ?_tryGetUserMessageFromDescriptorList@exceptionDump@@SAXPAU?$__packedList_struct@PAUdescriptor_struct@exception@@@@PAPB_W@Z 
01:00025578 ?writeTraceInfo@exceptionDump@@SAXQAVoutputStream@@@PAUtraceInfo_struct@exception@@@Z 
01:000255D4 ?writeDescriptor_list@exceptionDump@@SAXQAVoutputStream@@@PAU?$__packedList_struct@PAUdescriptor_struct@exception@@@@@Z 
01:00025614 ?writeErrorDescriptorInformation@exceptionDump@@SAXQAVoutputStream@@@PAUdescriptor_struct@exception@@@Z 
01:000258A0 ?writeOSInformation@exceptionDump@@SAXQAVoutputStream@@@PB_W@Z 
01:000258DC ?writeLineInfo_list@exceptionDump@@SAXQAVoutputStream@@@PAU?$__packedList_struct@PAUlineInfo_struct@exception@@@@@Z 
01:00025980 ?writeLineInfo@exceptionDump@@SAXQAVoutputStream@@@PAUlineInfo_struct@exception@@@Z 
01:00025A38 ?writeExtraInfo@exceptionDump@@SAXQAVoutputStream@@@PAU?$__packedList_struct@PAUnamedValue_struct@core@@PAUvalue_struct@4@@@@Z 
01:00025ABC ?writePosition@exceptionDump@@SAXQAVoutputStream@@@IPB_W@Z 
01:00025B00 ?writeNamedValue@exceptionDump@@SAXQAVoutputStream@@@PAUnamedValue_struct@core@@PAUvalue_struct@4@@Z 
01:00025BB8 ?writeValue_or_NULL@exceptionDump@@SAXQAVoutputStream@@@PB_W@Z  (Idle)
01:00025C30 ?writeValue@exceptionDump@@SAXQAVoutputStream@@@PAUvalue_struct@core@@@Z 
01:00025F60 ?writeValue_or_NULL@exceptionDump@@SAXQAVoutputStream@@@PAD@Z 
01:00025FD8 ?writeValue_or_NULL@exceptionDump@@SAXQAVoutputStream@@@QAE@Z 
01:00026050 ?writeValue_or_NULL@exceptionDump@@SAXQAVoutputStream@@@PBUbinaryNonAtomic@_builtIn@@@Z 
01:000260C8 ?writeValue_or_NULL@exceptionDump@@SAXQAVoutputStream@@@QAVobject@@@@Z 
--- From '..\..\..\_intermediate\sourceVS\vipInit\Win32\ReleasePE\VIPDll.obj'
01:00026140 _PROLOG_Goal 
--- From 'obj\main.789E136F.obj'
01:0002615C ?kuzenko@main@@SAXHPAU?$__packedList_struct@H@@PAH@Z  (Idle)
01:000261CC ?shysh@main@@SAXPAU?$__packedList_struct@H@@0PAPAU?$__packedList_struct@PAH@@@Z  (Idle)
01:000262D0 ?negative@main@@SAXPAU?$__packedList_struct@H@@HPAPAU?$__packedList_struct@PAH@@@Z  (Idle)
01:0002636C ?run@main@@SAXXZ 
--- From 'obj\registry.917E8C91.obj'
01:000264F0 ?raise_wrongValue_explicit@registry_exception@@SAXPAUprogramPoint_struct@core@@PBUhResult@3@PAUrootKey_struct@registry@@PB_W3@Z  (Idle)
01:00026684 ?raise_noPath_explicit@registry_exception@@SAXPAUprogramPoint_struct@core@@PBUhResult@3@PAUrootKey_struct@registry@@PB_W3@Z  (Idle)
01:00026818 ?raise_cannotCreateKey_explicit@registry_exception@@SAXPAUprogramPoint_struct@core@@PBUhResult@3@PAUrootKey_struct@registry@@PB_W@Z  (Idle)
01:00026958 ?_getRootKeyName@registry_exception@@SAXPAUrootKey_struct@registry@@PAPB_W@Z 
01:000269BC ?createKey@registry@@SAXPAUrootKey_struct@1@PB_WPAUregistryView_struct@1@@Z  (Idle)
01:00026A18 ?existKey@registry@@SAXPAUrootKey_struct@1@PB_WPAUregistryView_struct@1@@Z  (Idle)
01:00026A6C ?deleteKey@registry@@SAXPAUrootKey_struct@1@PB_WPAUregistryView_struct@1@@Z  (Idle)
01:00026B60 ?is32on32@registry@@SAXI@Z 
01:00026BB0 ?deleteKeyList@registry@@SAXPAUrootKey_struct@1@PB_WPAU?$__packedList_struct@1@@PAUregistryView_struct@1@@Z 
01:00026C10 ?setValue@registry@@SAXPAUrootKey_struct@1@PB_WPAU?$__packedList_struct@PAUnamedValue_struct@core@@PAUvalue_struct@5@@@PAUregistryView_struct@1@@Z  (Idle)
01:00026D34 ?setValuesToKey@registry@@SAXPBUhkey@registry_native@@PAU?$__packedList_struct@PAUnamedValue_struct@core@@PAUvalue_struct@5@@@@Z 
--- From 'obj\time_api.0FD0D46D.obj'
01:00026D84 ?_getValue@registry@@SAXPAUrootKey_struct@1@PB_W1PAUregistryView_struct@1@PAPAUvalue_struct@core@@@Z 
--- From 'obj\registry.917E8C91.obj'
01:00026E38 ?_getValue@registry@@SAXPAUrootKey_struct@1@PB_W1PAUregistryView_struct@1@PAUvalue_struct@core@@PAPAU67@@Z  (Idle)
01:00026E98 ?_tryGetValue@registry@@SAXPAUrootKey_struct@1@PB_W1PAUregistryView_struct@1@PAPAUvalue_struct@core@@@Z 
01:00026F90 ?removeValue@registry@@SAXPAUrootKey_struct@1@PB_WPAU?$__packedList_struct@1@@PAUregistryView_struct@1@@Z  (Idle)
01:00027040 ?removeListValues@registry@@SAXPBUhkey@registry_native@@PAU?$__packedList_struct@PB_W@@@Z 
--- From 'obj\time_api.0FD0D46D.obj'
01:00027080 ?_getSubkeys@registry@@SAXPAUrootKey_struct@1@PB_WPAUregistryView_struct@1@PAPAU?$__packedList_struct@PAPB_W@@@Z 
--- From 'obj\registry.917E8C91.obj'
01:00027130 ?_getAllValues@registry@@SAXPAUrootKey_struct@1@PB_WPAUregistryView_struct@1@PAPAU?$__packedList_struct@PAPAUnamedValue_struct@core@@PAPAUvalue_struct@7@@@@Z  (Idle)
01:000271E0 ?_keyWrite@registry@@SAXPAUregistryView_struct@1@AAUregsAM@registry_native@@@Z 
01:000271FC ?_keyRead@registry@@SAXPAUregistryView_struct@1@AAUregsAM@registry_native@@@Z 
01:00027218 ?_applyView@registry@@SAXPAUregistryView_struct@1@PBUregsAM@registry_native@@AAU45@@Z 
01:00027258 ?_getRootKeyHandle@registry@@SAXPAUrootKey_struct@1@AAUhkey@registry_native@@@Z 
--- From 'obj\time.6AFD2988.obj'
01:000272C0 ?new_UTC$@timeFormatter@@SAXQAV1@@@Z  (Idle)
01:000272EC ?new_UTC$@timeFormatter@@SAXQAV1@@PBUlcId@locale_native@@@Z  (Idle)
01:00027324 ?new$@timeFormatter@@SAXQAV1@@PAUtimeZoneAPI_struct@time_native@@@Z 
01:00027348 ?new$@timeFormatter@@SAXQAV1@@PAUtimeZoneAPI_struct@time_native@@PBUlcId@locale_native@@@Z 
01:00027360 ?_getDefaultLCID@timeFormatter@@SAXPAI@Z 
01:0002739C ?getDateWeekAndTime$@timeFormatter@@SAXQAV1@@QAVgmtTime@@@PAHPAHPAHPAHPAHPAH@Z  (Idle)
01:00027418 ?getDateAndTime$@timeFormatter@@SAXQAV1@@QAVgmtTime@@@PAHPAHPAHPAHPAH@Z 
01:00027448 ?getDateAndTime$@timeFormatter@@SAXQAV1@@QAVgmtTime@@@PAHPAHPAHPAHPAHPAH@Z 
01:00027488 ?getDateAndTimeDetailed$@timeFormatter@@SAXQAV1@@QAVgmtTime@@@PAHPAHPAHPAHPAHPAPAN@Z 
01:00027528 ?setDateAndTime$@timeFormatter@@SAXQAV1@@QAVgmtTime@@@HHHHHH@Z 
01:0002757C ?setDateAndTimeDetailed$@timeFormatter@@SAXQAV1@@QAVgmtTime@@@HHHHHPAN@Z 
01:000275B0 ?getTime$@timeFormatter@@SAXQAV1@@QAVgmtTime@@@PAHPAHPAH@Z 
01:000275E4 ?setTime$@timeFormatter@@SAXQAV1@@QAVgmtTime@@@HHH@Z 
01:00027654 ?_getTime$@timeFormatter@@SAXQAV1@@QAVgmtTime@@@PAAAUlocalTimeValue@core@@@Z 
01:0002765C ?setTime$@timeFormatter@@SAXQAV1@@QAVgmtTime@@@PAPBUlocalTimeValue@core@@@Z 
01:00027664 ?getTimeDetailed$@timeFormatter@@SAXQAV1@@QAVgmtTime@@@PAHPAHPAPAN@Z 
01:00027698 ?setTimeDetailed$@timeFormatter@@SAXQAV1@@QAVgmtTime@@@HHPAN@Z 
01:00027708 ?getDate$@timeFormatter@@SAXQAV1@@QAVgmtTime@@@PAHPAHPAH@Z 
01:0002773C ?setDate$@timeFormatter@@SAXQAV1@@QAVgmtTime@@@HHH@Z 
01:000277F0 ?isDaylightTime$@timeFormatter@@SAXQAV1@@QAVgmtTime@@@@Z 
01:00027824 ?isLeapYear$@timeFormatter@@SAXQAV1@@QAVgmtTime@@@@Z 
01:00027858 ?_getLocalTime$@timeFormatter@@SAXQAV1@@QAVgmtTime@@@PAAAUlocalTimeValue@core@@@Z 
01:00027898 ?_getLocalTimeAsStruct$@timeFormatter@@SAXQAV1@@QAVgmtTime@@@PAPAUsystemTime_struct@time_native@@@Z  (Idle)
01:000278C4 ?setLocalTime$@timeFormatter@@SAXQAV1@@QAVgmtTime@@@PAPBUlocalTimeValue@core@@@Z 
01:000278F8 ?getMonthByDayOfYear@timeFormatter@@SAXIHIPAHPAI@Z  (Idle)
01:00027990 ?weekRule$@timeFormatter@@SGPAUweekRule_struct@1@QAV1@@@Z 
01:000279E4 ?getWeek$@timeFormatter@@SAXQAV1@@QAVgmtTime@@@PAHPAHPAH@Z 
01:00027A28 ?getWeek_rule$@timeFormatter@@SAXQAV1@@PAUweekRule_struct@1@QAVgmtTime@@@PAHPAHPAH@Z 
01:00027AA0 ?getWeek_firstDay$@timeFormatter@@SAXQAV1@@QAVgmtTime@@@PAHPAHPAH@Z 
01:00027C00 ?getWeek_firstFullWeek$@timeFormatter@@SAXQAV1@@QAVgmtTime@@@PAHPAHPAH@Z 
01:00027D98 ?getWeek_iso8601$@timeFormatter@@SAXQAV1@@QAVgmtTime@@@PAHPAHPAH@Z 
01:00027F6C ?_localeWeekday$@timeFormatter@@SAXQAV1@@HPAH@Z 
01:00027FD4 ?_daysBeforeFirstWeek$@timeFormatter@@SAXQAV1@@HPAH@Z 
01:00028070 ?daysBeforeFirstWeek_use1JanWeek@timeFormatter@@SAXPAUweekRule_struct@1@H@Z 
01:00028094 ?setWeek$@timeFormatter@@SAXQAV1@@QAVgmtTime@@@HHH@Z 
01:00028170 ?_toSimpleString$@timeFormatter@@SAXQAV1@@QAVgmtTime@@@PAPB_W@Z 
01:000281C0 ?setFromSimpleString$@timeFormatter@@SAXQAV1@@QAVgmtTime@@@PB_W@Z 
01:00028334 ?_formatDateTime$@timeFormatter@@SAXQAV1@@QAVgmtTime@@@PB_W2PAPB_W@Z 
01:00028388 ?_formatLongDate$@timeFormatter@@SAXQAV1@@QAVgmtTime@@@PAPB_W@Z 
01:000283D8 ?_formatShortDate$@timeFormatter@@SAXQAV1@@QAVgmtTime@@@PAPB_W@Z 
01:00028428 ?_formatDate$@timeFormatter@@SAXQAV1@@QAVgmtTime@@@PB_WPAPB_W@Z 
01:00028478 ?_formatTime$@timeFormatter@@SAXQAV1@@QAVgmtTime@@@PAPB_W@Z 
01:000284C4 ?_formatTime$@timeFormatter@@SAXQAV1@@QAVgmtTime@@@PB_WPAPB_W@Z 
01:00028528 ?_addFractionsIfPresent@timeFormatter@@SAXPB_WPAUsystemTime_struct@time_native@@PAPB_W@Z 
01:00028590 ?replaceFractionsInStringList@timeFormatter@@SAXQAVoutputStream_string@@@PAU?$__packedList_struct@PB_W@@PBUunsigned16@core@@@Z 
01:00028638 ?performReplacements@timeFormatter@@SAXQAVoutputStream_string@@@PB_W1PBUunsigned16@core@@@Z 
01:000287B0 ?setFromString$@timeFormatter@@SAXQAV1@@QAVgmtTime@@@PB_W@Z 
01:000288E0 ?wrongStringException@timeFormatter@@SAXPBUtraceId@exception@@@Z 
01:0002893C ?setFromString$@timeFormatter@@SAXQAV1@@QAVgmtTime@@@PB_W2@Z 
01:00028D78 ?getCommentPositionList@timeFormatter@@SAXPB_WHPAPAU?$__packedList_struct@PAPAUdateTimePos_struct@1@@@PAPB_W@Z 
01:00028FB0 ?_getNextQuote@timeFormatter@@SAXPB_WPAI@Z 
01:00029030 ?_checkDoubleQuote@timeFormatter@@SAXPBUcharCount@core@@HPAI@Z 
01:00029054 ?_addTemplatePosition@timeFormatter@@SAXPB_WPAU?$__packedList_struct@0@@PAUdateTime_struct@1@PAU?$__packedList_struct@PAUdateTimePos_struct@1@@@PAPAU?$__packedList_struct@PAPAU41@@@@Z 
01:0002910C ?_addDayTemplatePosition@timeFormatter@@SAXPB_WPAU?$__packedList_struct@PAUdateTimePos_struct@1@@@PAPAU?$__packedList_struct@PAPAU21@@@@Z 
01:000291FC ?_getOrderedList@timeFormatter@@SAXPAU?$__packedList_struct@PAUdateTimePos_struct@1@@@PAPAU?$__packedList_struct@PAPAU21@@@@Z 
01:000292A8 ?_getOrderedListEx@timeFormatter@@SAXPAU?$__packedList_struct@PAUdateTimePos_struct@1@@@PAU21@0PAPAU?$__packedList_struct@PAPAU21@@@@Z 
01:0002934C ?tryGetValues$@timeFormatter@@SAXQAV1@@PAU?$__packedList_struct@PAUdateTimePos_struct@1@@@PB_WIHHHHHHHPAN2PAUtimeDesignator_struct@1@PAHPAHPAHPAHPAHPAHPAPANPAPB_WPAPAU51@@Z 
01:00029480 ?tryGetValueForListItem$@timeFormatter@@SAXQAV1@@PAUdateTime_struct@1@PAUtemplateAndPosition_struct@1@PB_WIHHHHHHHPAN3PAUtimeDesignator_struct@1@PAHPAHPAHPAHPAHPAHPAHPAPANPAPB_WPAPAU71@@Z 
01:00029824 ?checkComment@timeFormatter@@SAXPAUtemplateAndPosition_struct@1@PB_WIH@Z 
01:000298E8 ?_tryGetYearValue@timeFormatter@@SAXPAUtemplateAndPosition_struct@1@PB_WIHPAH@Z 
01:00029948 ?_handlingCentury@timeFormatter@@SAXPBUcharCount@core@@HPAH@Z 
01:00029974 ?_tryGetFractionValue@timeFormatter@@SAXPAUtemplateAndPosition_struct@1@PB_WIHPAPAN@Z 
01:00029A54 ?tryGetValueFromTemplate@timeFormatter@@SAXPAUtemplateAndPosition_struct@1@PB_WIHPAHPAH@Z 
01:00029AE4 ?tryGetValueForOneCharTemplate@timeFormatter@@SAXPB_WIPBUcharCount@core@@HPAHPAH@Z 
01:00029B98 ?_tryGetValue@timeFormatter@@SAXPB_WIPBUcharCount@core@@H2PAH@Z 
01:00029C48 ?tryGetMonthValue$@timeFormatter@@SAXQAV1@@PAUtemplateAndPosition_struct@1@PB_WIHPAHPAH@Z 
01:00029D84 ?tryGetMonthFromString$@timeFormatter@@SAXQAV1@@IPB_WIPBUcharCount@core@@PAHPAI@Z 
01:00029EAC ?tryGetDayValue$@timeFormatter@@SAXQAV1@@PAUtemplateAndPosition_struct@1@PB_WIHHPAHPAH@Z 
01:0002A03C ?_tryGetDayNameLength$@timeFormatter@@SAXQAV1@@PBUlcType@locale_native@@PB_WIPBUcharCount@core@@PAI@Z 
01:0002A0DC ?tryGetTimeMarkerValue$@timeFormatter@@SAXQAV1@@PAUtemplateAndPosition_struct@1@PB_WIHPAPAUtimeDesignator_struct@1@PAH@Z 
01:0002A19C ?tryGetTimeMarker$@timeFormatter@@SAXQAV1@@PB_WIPBUcharCount@core@@HPAPAUtimeDesignator_struct@1@PAI@Z 
01:0002A248 ?_checkTimeMarker$@timeFormatter@@SAXQAV1@@PB_WI1PBUcharCount@core@@HPAI@Z 
01:0002A2F4 ?_convertTo24FormatIfNeeded@timeFormatter@@SAXIPB_WPAUtimeDesignator_struct@1@PAI@Z 
01:0002A37C ?_pm_am@timeFormatter@@SAXIPAUtimeDesignator_struct@1@PAI@Z 
01:0002A3DC ?_getAvailableTimeZones@timeFormatter@@SAXPAPAU?$__packedList_struct@PAPAUtimeZoneAPI_struct@time_native@@@@@Z  (Idle)
01:0002A460 ?_getTimeZoneInformation@timeFormatter@@SAXPAPAUtimeZoneAPI_struct@time_native@@@Z  (Idle)
01:0002A468 ?_getTimeZoneInformation@timeFormatter@@SAXPB_WPAPAUtimeZoneAPI_struct@time_native@@@Z 
01:0002A470 ?_gmtTimeToLocalTime$@timeFormatter@@SAXQAV1@@PAPBUgmtTimeValue@core@@PAAAUlocalTimeValue@4@@Z 
01:0002A49C ?_localTimeToGmtTime$@timeFormatter@@SAXQAV1@@PAPBUlocalTimeValue@core@@PAAAUgmtTimeValue@4@@Z 
01:0002A4C8 ?_getTimeZoneOffset$@timeFormatter@@SAXQAV1@@PAPBUgmtTimeValue@core@@PAH@Z 
01:0002A4F4 ?_newFromLocalTime$@timeFormatter@@SAXQAV1@@PAPBUlocalTimeValue@core@@PAPAVtime@@@@Z 
01:0002A534 ?_new_UTC@timeFormatter@@SAXPAPAV1@@@Z  (Idle)
01:0002A55C ?_new_UTC@timeFormatter@@SAXPBUlcId@locale_native@@PAPAV1@@@Z  (Idle)
01:0002A584 ?_new@timeFormatter@@SAXPAUtimeZoneAPI_struct@time_native@@PAPAV1@@@Z  (Idle)
01:0002A5AC ?_new@timeFormatter@@SAXPAUtimeZoneAPI_struct@time_native@@PBUlcId@locale_native@@PAPAV1@@@Z  (Idle)
01:0002A5D8 ?__lateFactInit$defaultformatter$0$timeFormatter@classDB@1@SAXPAPAV1@@@Z 
01:0002A608 ?defaultFormatter@timeFormatter@@SGXQAV1@@@Z  (Idle)
01:0002A614 ?defaultFormatter@timeFormatter@@SGQAV1@@XZ 
01:0002A64C ?timeZone@timeFormatter@@SGPAUtimeZoneAPI_struct@time_native@@QAV1@@@Z 
01:0002A658 ?locale@timeFormatter@@SGPBUlcId@locale_native@@QAV1@@@Z 
01:0002A664 ?raise_wrongStringFormat_explicit@time_exception@@SAXPAUprogramPoint_struct@core@@PB_W1@Z 
01:0002A72C ?raise_cannotGetTimeZoneInformation_explicit@time_exception@@SAXPAUprogramPoint_struct@core@@PB_WI@Z  (Idle)
01:0002A7F4 ?now$@time@@SAXQAV1@@@Z  (Idle)
01:0002A828 ?newZero$@time@@SAXQAV1@@@Z  (Idle)
01:0002A840 ?newFromGMT$@time@@SAXQAV1@@PAPBUgmtTimeValue@core@@@Z 
01:0002A854 ?new$@time@@SAXQAV1@@QAVgmtTime@@@@Z  (Idle)
01:0002A87C ?newFromLocalTime$@time@@SAXQAV1@@PAPBUlocalTimeValue@core@@@Z  (Idle)
01:0002A8D8 ?newFromTimeZone$@time@@SAXQAV1@@PAPBUlocalTimeValue@core@@PAUtimeZoneAPI_struct@time_native@@@Z  (Idle)
01:0002A938 ?new$@time@@SAXQAV1@@HHHHHPAN@Z  (Idle)
01:0002A9CC ?newGMT$@time@@SAXQAV1@@HHHHHPAN@Z  (Idle)
01:0002A9E8 ?newDate$@time@@SAXQAV1@@HHH@Z  (Idle)
01:0002AA08 ?newTime$@time@@SAXQAV1@@HHPAN@Z  (Idle)
01:0002AA24 ?newFromSimpleString$@time@@SAXQAV1@@PB_W@Z  (Idle)
01:0002AA40 ?_getCurrentGmtTimeValue@time@@SAXPAAAUgmtTimeValue@core@@@Z 
01:0002AA80 ?_compare$@time@@SAXQAVgmtTime@@@0PAPAUcompareResult_struct@_builtIn@@@Z 
01:0002AAEC ?before$@time@@SAXQAVgmtTime@@@0@Z 
01:0002AB18 ?beforeOrSameTime$@time@@SAXQAVgmtTime@@@0@Z 
01:0002AB44 ?sameTime$@time@@SAXQAVgmtTime@@@0@Z 
01:0002AB70 ?_getDuration$@time@@SAXQAVgmtTime@@@0PAPAVduration@@@@Z 
01:0002AB98 ?addDuration$@time@@SAXQAVgmtTime@@@QAVduration@@@@Z 
01:0002AC2C ?subtractDuration$@time@@SAXQAVgmtTime@@@QAVduration@@@@Z 
01:0002ACC0 ?getGmtDateAndTime$@time@@SAXQAVgmtTime@@@PAHPAHPAHPAHPAHPAPAN@Z 
01:0002AD1C ?getGmtDateAndTime@time@@SAXPAPBUgmtTimeValue@core@@PAHPAHPAHPAHPAHPAPAN@Z 
01:0002AE30 ?setGmtDateAndTime$@time@@SAXQAVgmtTime@@@HHHHHPAN@Z 
01:0002AE8C ?setDate$@time@@SAXQAV1@@HHH@Z 
01:0002AEEC ?getDate$@time@@SAXQAV1@@PAHPAHPAH@Z 
01:0002AF4C ?setTime$@time@@SAXQAV1@@HHH@Z 
01:0002AFAC ?getTime$@time@@SAXQAV1@@PAHPAHPAH@Z 
01:0002B00C ?setTime_localTimeValue$@time@@SAXQAV1@@PAPBUlocalTimeValue@core@@@Z 
01:0002B05C ?_getTime$@time@@SAXQAV1@@PAAAUlocalTimeValue@core@@@Z 
01:0002B0AC ?setTimeDetailed$@time@@SAXQAV1@@HHPAN@Z 
01:0002B10C ?getTimeDetailed$@time@@SAXQAV1@@PAHPAHPAPAN@Z 
01:0002B16C ?getWeek$@time@@SAXQAV1@@PAHPAHPAH@Z 
01:0002B1CC ?setWeek$@time@@SAXQAV1@@HHH@Z 
01:0002B22C ?setDateAndTime$@time@@SAXQAV1@@HHHHHH@Z 
01:0002B2B0 ?getDateAndTime$@time@@SAXQAV1@@PAHPAHPAHPAHPAHPAH@Z 
01:0002B334 ?setDateAndTimeDetailed$@time@@SAXQAV1@@HHHHHPAN@Z 
01:0002B3B8 ?getDateAndTimeDetailed$@time@@SAXQAV1@@PAHPAHPAHPAHPAHPAPAN@Z 
01:0002B43C ?setSystemClock@time@@SAXQAV1@@@Z  (Idle)
01:0002B678 ?_formatLongDate$@time@@SAXQAV1@@PAPB_W@Z 
01:0002B6C8 ?_formatShortDate$@time@@SAXQAV1@@PAPB_W@Z 
01:0002B718 ?_formatDate$@time@@SAXQAV1@@PB_WPAPB_W@Z 
01:0002B770 ?_formatTime$@time@@SAXQAV1@@PAPB_W@Z 
01:0002B7C0 ?_formatTime$@time@@SAXQAV1@@PB_WPAPB_W@Z 
01:0002B818 ?_toSimpleString$@time@@SAXQAV1@@PAPB_W@Z 
01:0002B868 ?setFromSimpleString$@time@@SAXQAV1@@PB_W@Z 
01:0002B8B8 ?_formatDateTime$@time@@SAXQAV1@@PB_W1PAPB_W@Z 
01:0002B918 ?setFromString$@time@@SAXQAV1@@PB_W1@Z 
01:0002B970 ?setFromString$@time@@SAXQAV1@@PB_W@Z 
01:0002B9C0 ?isDaylightTime$@time@@SAXQAV1@@@Z 
01:0002BA08 ?isLeapYear$@time@@SAXQAV1@@@Z 
01:0002BA38 ?isLeapYear@time@@SAXH@Z 
01:0002BAF8 ?_getDayOfWeek@time@@SAXHHHPAH@Z 
01:0002BB48 ?_dayOfYear@time@@SAXHHHPAH@Z  (Idle)
01:0002BBD4 ?_dayOfYearEx@time@@SAXIIHPAH@Z 
01:0002BC84 ?_getDaysInMonth@time@@SAXHHPAH@Z 
01:0002BD10 ?_daysInMonth_nonLeap@time@@SAXHPAH@Z 
01:0002BE4C ?isValidDate@time@@SAXHHH@Z  (Idle)
01:0002BE8C ?_calculateLocalTimeValue@time@@SAXHHHHHPANPAAAUlocalTimeValue@core@@@Z 
01:0002C1D0 ?normalize@time@@SAXHHHHHPANPAHPAHPAHPAHPAHPAPAN@Z 
01:0002C270 ?divNormRest_integer@time@@SAXHHPAHPAH@Z  (Idle)
01:0002C2CC ?divNormRest_real@time@@SAXPANHPAHPAPAN@Z 
01:0002C3BC ?normalizeMonth@time@@SAXHPAHPAH@Z 
01:0002C3F4 ?addCalendarDuration$@time@@SAXQAV1@@QAVcalendarDuration@@@@Z 
01:0002C40C ?subtractCalendarDuration$@time@@SAXQAV1@@QAVcalendarDuration@@@@Z 
01:0002C420 ?addCalendarDurationWithSign$@time@@SAXQAV1@@QAVcalendarDuration@@@H@Z 
01:0002C5A4 ?setTime$@time@@SAXQAV1@@0@Z 
01:0002C62C ?_tickclock_init/0nf$1@time@@SAXPAPA_K@Z 
01:0002C64C ?_tickclock_init/0nf$2@time@@SAXPAPA_K@Z 
01:0002C690 ?_tickclock_init/0nf$3@time@@SAXPAPA_K@Z 
01:0002C6DC ?_tickClock_init@time@@SAXPAPA$?_function$1@core@@SAXPAPA_K@Z$@Z  (Idle)
01:0002C7C0 ?_getTickCount32As64@time@@SAXPAPA_K@Z 
01:0002C874 ?_getTickCount@time@@SAXPAPA_K@Z  (Idle)
01:0002C8C8 ?_getTickCountInMSec@time@@SAXPAPA_K@Z  (Idle)
01:0002C910 ?_queryTickResolution@time@@SAXPAPA_K@Z  (Idle)
01:0002C934 ?_presenter$@time@@SAXQAVgmtTime@@@PAPAUpresentation_struct@presenter@@@Z 
--- From 'obj\time_api.0FD0D46D.obj'
01:0002C974 ?_presenter_gmtTimeValue@time@@SAXPAPBU2core@@PAPAUpresentation_struct@presenter@@@Z 
--- From 'obj\core.5D9B9483.obj'
01:0002C9F0 ?_presenter_localTimeValue@time@@SAXPAPBU2core@@PAPAUpresentation_struct@presenter@@@Z 
--- From 'obj\time.6AFD2988.obj'
01:0002CA38 ?_presenter_localTimeValue2@time@@SAXPAPBUgmtTimeValue@core@@PAPBUlocalTimeValue@3@PAPAUpresentation_struct@presenter@@@Z 
01:0002CAEC ?writePresent_dateTime@time@@SAXQAVoutputStream@@@PA_KH@Z 
01:0002CC8C ?writePresent_zone@time@@SAXQAVoutputStream@@@H@Z 
01:0002CDB8 ?_now@time@@SAXPAPAV1@@@Z  (Idle)
01:0002CDE0 ?_newZero@time@@SAXPAPAV1@@@Z 
01:0002CE08 ?_new@time@@SAXQAVgmtTime@@@PAPAV1@@@Z  (Idle)
01:0002CE30 ?_newFromGMT@time@@SAXPAPBUgmtTimeValue@core@@PAPAV1@@@Z 
01:0002CE58 ?_newFromLocalTime@time@@SAXPAPBUlocalTimeValue@core@@PAPAV1@@@Z  (Idle)
01:0002CE80 ?_newFromTimeZone@time@@SAXPAPBUlocalTimeValue@core@@PAUtimeZoneAPI_struct@time_native@@PAPAV1@@@Z  (Idle)
01:0002CEAC ?_new@time@@SAXHHHHHPANPAPAV1@@@Z  (Idle)
01:0002CEE4 ?_newGMT@time@@SAXHHHHHPANPAPAV1@@@Z  (Idle)
01:0002CF1C ?_newDate@time@@SAXHHHPAPAV1@@@Z 
01:0002CF4C ?_newTime@time@@SAXHHPANPAPAV1@@@Z  (Idle)
01:0002CF7C ?_newFromSimpleString@time@@SAXPB_WPAPAV1@@@Z  (Idle)
01:0002CFA4 ?__lateFactInit$tickclock$0$time@classDB@1@SAXPAPA$?_function$1@core@@SAXPAPA_K@Z$@Z 
01:0002CFAC ?__lateFactInit$lasttickcount$0$time@classDB@1@SAXPAPA_K@Z 
01:0002CFE0 ?gmtNowFunction@time@@SGXX@Z  (Idle)
01:0002CFEC ?gmtNowFunction@time@@SGXXZ  (Idle)
01:0002CFF4 ?gmtTimeValue@time@@SAXQAVgmtTime@@@PAPBU0core@@@Z 
01:0002D008 ?_gmtTimeValue@time@@SAXQAVgmtTime@@@PAAAU0core@@@Z 
01:0002D01C ?_get$@duration@@SAXQAV1@@PAAAUdurationValue@core@@@Z 
01:0002D030 ?new$@duration@@SAXQAV1@@@Z  (Idle)
01:0002D038 ?new$@duration@@SAXQAV1@@PAPBUdurationValue@core@@@Z  (Idle)
01:0002D04C ?new$@duration@@SAXQAV1@@HHHPAN@Z  (Idle)
01:0002D054 ?new$@duration@@SAXQAV1@@QAVgmtTime@@@1@Z  (Idle)
01:0002D0FC ?less$@duration@@SAXQAV1@@0@Z 
01:0002D14C ?lessOrEqual$@duration@@SAXQAV1@@0@Z 
01:0002D19C ?equal$@duration@@SAXQAV1@@0@Z 
01:0002D1DC ?between$@duration@@SAXQAV1@@00@Z 
01:0002D268 ?add$@duration@@SAXQAV1@@0@Z 
01:0002D2D0 ?subtract$@duration@@SAXQAV1@@0@Z 
01:0002D338 ?multiply$@duration@@SAXQAV1@@PAN@Z 
01:0002D3A8 ?setInterval$@duration@@SAXQAV1@@HHHH@Z 
01:0002D3FC ?setIntervalDetailed$@duration@@SAXQAV1@@HHHPAN@Z 
01:0002D404 ?getInterval$@duration@@SAXQAV1@@PAHPAHPAHPAH@Z 
01:0002D438 ?getIntervalDetailed$@duration@@SAXQAV1@@PAHPAHPAHPAPAN@Z 
01:0002D440 ?getFields$@duration@@SAXQAV1@@PAHPAHPAHPAPAN@Z 
01:0002D480 ?getFields2@duration@@SAXPAPBUdurationValue@core@@PAHPAHPAHPAPAN@Z 
01:0002D5C0 ?setFields$@duration@@SAXQAV1@@HHHPAN@Z 
01:0002D6D0 ?_presenter$@duration@@SAXQAV1@@PAPAUpresentation_struct@presenter@@@Z 
01:0002D7F0 ?iso8601@duration@@SGPB_WQAV1@@@Z 
01:0002D838 ?_format$@duration@@SAXQAV1@@PB_W11111PAPB_W@Z 
01:0002DC3C ?_new@duration@@SAXPAPAV1@@@Z  (Idle)
01:0002DC64 ?_new@duration@@SAXPAPBUdurationValue@core@@PAPAV1@@@Z 
01:0002DC8C ?_new@duration@@SAXHHHPANPAPAV1@@@Z  (Idle)
01:0002DCC0 ?_new@duration@@SAXQAVgmtTime@@@0PAPAV1@@@Z 
01:0002DCEC ?_object_facts_initializer$@duration@@SGXQAV1@@@Z 
01:0002DD04 ?new$@calendarDuration@@SAXQAV1@@@Z  (Idle)
01:0002DD0C ?new$@calendarDuration@@SAXQAV1@@HHHHHPAN@Z  (Idle)
01:0002DD14 ?setInterval$@calendarDuration@@SAXQAV1@@HHHHHPAN@Z 
01:0002DD44 ?getInterval$@calendarDuration@@SAXQAV1@@PAHPAHPAHPAHPAHPAPAN@Z 
01:0002DD80 ?less$@calendarDuration@@SAXQAV1@@0QAVgmtTime@@@@Z 
01:0002DE08 ?lessOrEqual$@calendarDuration@@SAXQAV1@@0QAVgmtTime@@@@Z 
01:0002DE90 ?equal$@calendarDuration@@SAXQAV1@@0QAVgmtTime@@@@Z 
01:0002DF18 ?add$@calendarDuration@@SAXQAV1@@0@Z 
01:0002DFE4 ?subtract$@calendarDuration@@SAXQAV1@@0@Z 
01:0002E0B0 ?_new@calendarDuration@@SAXPAPAV1@@@Z  (Idle)
01:0002E0D8 ?_new@calendarDuration@@SAXHHHHHPANPAPAV1@@@Z  (Idle)
01:0002E110 ?_object_facts_initializer$@calendarDuration@@SGXQAV1@@@Z 
01:0002E174 timeFormatter?_initObject@@@QAGXQAV1@H@Z 
01:0002E18C ?@create_object@timeFormatter@@SGQAV1@@XZ 
01:0002E1A8 timeFormatter?_InternalFinalizer@@@QAGXQAV1@@Z 
01:0002E29C time?_initObject@@@QAGXQAV1@H@Z 
01:0002E2B4 ?@create_object@time@@SGQAV1@@XZ 
01:0002E2D0 time?_InternalFinalizer@@@QAGXQAV1@@Z 
01:0002E2E4 duration?_initObject@@@QAGXQAV1@H@Z 
01:0002E308 ?@create_object@duration@@SGQAV1@@XZ 
01:0002E324 duration?_InternalFinalizer@@@QAGXQAV1@@Z 
01:0002E338 calendarDuration?_initObject@@@QAGXQAV1@H@Z 
01:0002E35C ?@create_object@calendarDuration@@SGQAV1@@XZ 
01:0002E378 calendarDuration?_InternalFinalizer@@@QAGXQAV1@@Z 
--- From 'obj\memory_api.F938D1EE.obj'
01:0002E390 ?globalMemoryStatusEx@memory_api@@SAXPAIPAPA_K111111@Z  (Idle)
01:0002E4E0 ?_alloc_memoryStatusEx@memory_api@@SAXIPAPAUmemoryStatusEx_struct@memory_native@@@Z 
01:0002E554 ?_globalAlloc@memory_api@@SAXIPBUbyteCount@core@@AAUhGlobal@windowsAPI@@@Z  (Idle)
01:0002E660 ?globalFree@memory_api@@SAXPBUhGlobal@windowsAPI@@@Z  (Idle)
01:0002E698 ?_globalLock@memory_api@@SAXPBUhGlobal@windowsAPI@@PAPAX@Z  (Idle)
01:0002E730 ?globalUnlock@memory_api@@SAXPBUhGlobal@windowsAPI@@@Z  (Idle)
01:0002E74C ?_globalUnlock@memory_api@@SAXPBUhGlobal@windowsAPI@@PAPAUboolean_struct@_builtIn@@@Z 
01:0002E794 ?_globalSize@memory_api@@SAXPBUhGlobal@windowsAPI@@AAUbyteCount@core@@@Z  (Idle)
01:0002E7E8 ?_mkGlobal_string@memory_api@@SAXPB_WAAUhGlobal@windowsAPI@@@Z  (Idle)
01:0002E840 ?_getGlobal_string@memory_api@@SAXPBUhGlobal@windowsAPI@@PAPB_W@Z  (Idle)
01:0002E934 ?_mkGlobal_string8@memory_api@@SAXPADAAUhGlobal@windowsAPI@@@Z  (Idle)
01:0002E97C ?_getglobal_string8/1nf$1@memory_api@@SAXPAXPBUbyteCount@core@@PAPAD@Z 
01:0002E990 ?_getGlobal_string8@memory_api@@SAXPBUhGlobal@windowsAPI@@PAPAD@Z  (Idle)
01:0002E9C4 ?_mkGlobal_binary@memory_api@@SAXQAEAAUhGlobal@windowsAPI@@@Z  (Idle)
01:0002EA08 ?_getGlobal_binary@memory_api@@SAXPBUhGlobal@windowsAPI@@QAPAE@Z  (Idle)
01:0002EA3C ?_mkGlobal_pointer@memory_api@@SAXPAXPBUbyteCount@core@@AAUhGlobal@windowsAPI@@@Z 
01:0002EAD4 ?_getGlobal_pointer@memory_api@@SAXQAVrTypeLibrary@TypeLibraries@RunTime@VIP@@PBUhGlobal@windowsAPI@@PA$?_function$3@core@@SAXPAXPBUbyteCount@1@PAX@Z$PAX@Z 
01:0002EB78 ?localFree@memory_api@@SAXQAVrTypeLibrary@TypeLibraries@RunTime@VIP@@X@Z 
01:0002EBB0 ?_getProcessMemoryInfo@memory_api@@SAXPBUprocessHandle@windowsAPI@@PAPAUprocess_memory_counters_struct@memory_native@@@Z  (Idle)
01:0002EC1C ?_garbageCollectorStatistics@memory_api@@SAXPAPAUgarbageCollectorStatistics_struct@1@@Z  (Idle)
--- From 'obj\systeminformation_api.2864B3DF.obj'
01:0002EC70 ?getVersionEx@systemInformation_api@@SAXPAIPAIPAIPAIPAPB_WAAUunsigned16@core@@55AAUunsigned8@3@@Z  (Idle)
01:0002ED28 ?systemInfo@systemInformation_api@@SGPAUsystem_Info_struct@systemInformation_native@@XZ 
01:0002ED5C ?nativeSystemInfo@systemInformation_api@@SGPAUsystem_Info_struct@systemInformation_native@@XZ 
01:0002ED90 ?isWindows64@systemInformation_api@@SAXXZ  (Idle)
01:0002EDB4 ?_getUserName@systemInformation_api@@SAXPAPB_W@Z  (Idle)
01:0002EE38 ?_getUserNameEx@systemInformation_api@@SAXPBUuserNameFormat@systemInformation_native@@PAPB_W@Z  (Idle)
01:0002EEB0 ?_getComputerName@systemInformation_api@@SAXPAPB_W@Z  (Idle)
01:0002EF34 ?_getComputerNameEx@systemInformation_api@@SAXPBUcomputerNameFormat@systemInformation_native@@PAPB_W@Z  (Idle)
01:0002EFAC ?systemParametersInfo@systemInformation_api@@SAXIIPAXI@Z  (Idle)
01:0002EFEC ?systemParametersInfo_outInt@systemInformation_api@@SAXIIPAHI@Z  (Idle)
01:0002F02C ?_getNonclientMetrics@systemInformation_api@@SAXPAPAUnonclientMetrics_struct@systemInformation_native@@@Z  (Idle)
01:0002F068 ?_getNonclientMetricsXP@systemInformation_api@@SAXPAPAUnonclientMetricsXP_struct@systemInformation_native@@@Z  (Idle)
--- From 'obj\filesystem.5B0F823E.obj'
01:0002F0A4 ?majorOSversion@systemInformation_api@@SGIXZ 
--- From 'obj\binary.248EF86D.obj'
01:0002F100 ?_mkSegment@segmented_binary@@SAXQAEPAPAUsegmented_struct@segmented@@QAPAE@Z 
--- From 'obj\segmented_binary.C16992E7.obj'
01:0002F168 ?_getAsBinary@segmented_binary@@SAXPAUsegmented_struct@segmented@@QAEQAPAE@Z  (Idle)
01:0002F1E0 ?_mkSegment_site$@segmented_binary@@SAXQAVsegmentedSupportSite@@@XXPAPAUsegmented_struct@segmented@@PAX@Z 
01:0002F1F8 ?_mkSegmentFromBuffer_site$@segmented_binary@@SAXQAVsegmentedSupportSite@@@XPAXPBUbyteCount@core@@PAX@Z 
01:0002F218 ?_concat_site$@segmented_binary@@SAXQAVsegmentedSupportSite@@@XXXPAX@Z 
01:0002F238 ?_front_site$@segmented_binary@@SAXQAVsegmentedSupportSite@@@XXPBUbyteCount@core@@PAX@Z 
01:0002F250 ?_rear_site$@segmented_binary@@SAXQAVsegmentedSupportSite@@@XXPBUbyteCount@core@@PAX@Z 
01:0002F29C ?isReadable_site$@segmented_binary@@SAXQAVsegmentedSupportSite@@@XXPBUbyteCount@core@@@Z 
01:0002F2B8 ?new$@segmented_binary@@SAXQAV1@@@Z  (Idle)
01:0002F2C0 ?_getSize@segmented_binary@@SAXPAUsegmented_struct@segmented@@QAEAAUbyteCount@core@@@Z  (Idle)
01:0002F2EC ?_concat@segmented_binary@@SAXPAUsegmented_struct@segmented@@QAE0PAPAU23@QAPAE@Z  (Idle)
01:0002F348 ?_front@segmented_binary@@SAXPAUsegmented_struct@segmented@@QAEPBUbyteCount@core@@PAPAU23@QAPAE@Z  (Idle)
01:0002F3A4 ?_rear@segmented_binary@@SAXPAUsegmented_struct@segmented@@QAEPBUbyteCount@core@@PAPAU23@QAPAE@Z  (Idle)
01:0002F400 ?_subSegment@segmented_binary@@SAXPAUsegmented_struct@segmented@@QAEPBUbyteCount@core@@1PAPAU23@QAPAE@Z  (Idle)
01:0002F464 ?split@segmented_binary@@SAXPAUsegmented_struct@segmented@@QAEPBUbyteCount@core@@PAPAU23@QAPAE2@Z  (Idle)
01:0002F4C8 ?_insert@segmented_binary@@SAXPAUsegmented_struct@segmented@@QAEPBUbyteCount@core@@0PAPAU23@QAPAE@Z  (Idle)
--- From 'obj\filesystem.5B0F823E.obj'
01:0002F52C ?_getAll_nd@segmented_binary@@SAXPAUsegmented_struct@segmented@@QAEQAPAE@Z 
--- From 'obj\binary.248EF86D.obj'
01:0002F580 ?_mkIterator@segmented_binary@@SAXPAUsegmented_struct@segmented@@QAEPBUbyteCount@core@@PAPAViterator@@@PAPAUtuple_struct@5@AAU45@QAPAE@Z 
--- From 'obj\segmented_binary.C16992E7.obj'
01:0002F5DC ?validate@segmented_binary@@SAXPAUsegmented_struct@segmented@@QAE@Z  (Idle)
01:0002F628 ?_toTerm@segmented_binary@@SAXQAVrTypeLibrary@TypeLibraries@RunTime@VIP@@PAUsegmented_struct@segmented@@QAEPAX@Z  (Idle)
01:0002F6BC ?_fromTerm@segmented_binary@@SAXQAVrTypeLibrary@TypeLibraries@RunTime@VIP@@XPAPAUsegmented_struct@segmented@@QAPAE@Z  (Idle)
01:0002F714 ?_getAsBinary_nd@segmented_binary@@SAXPAUsegmented_struct@segmented@@QAEPBUbyteCount@core@@QAPAE@Z  (Idle)
01:0002F830 ?_getAsBinaryFrom@segmented_binary@@SAXQAViterator@@@PAUtuple_struct@core@@PBUbyteCount@4@QAEPBU54@1QAPAE@Z 
01:0002FA54 ?_new@segmented_binary@@SAXPAPAVsegmentedSupportSite@@@QAPAE@Z  (Idle)
01:0002FA7C ?__lateFactInit$support$0$segmented_binary@classDB@1@SAXPAPAVsegmentedSupport@@@QAPAE@Z 
--- From 'obj\binary.248EF86D.obj'
01:0002FAB4 ?support@segmented_binary@@SGQAVsegmentedSupport@@@QAEXZ 
--- From 'obj\segmented_binary.C16992E7.obj'
01:0002FAF4 segmented_binary?_initObject@@@QAGXQAV1@H@Z 
01:0002FB08 ?@create_object@segmented_binary@@SGQAV1@@XZ 
01:0002FB24 segmented_binary?_InternalFinalizer@@@QAGXQAV1@@Z 
--- From 'obj\mapmsupport.8CD6C048.obj'
01:0002FB30 ?new$@mapMSupport@collectionSupport@@SAXQAV1@2@XXQAVrTypeLibrary@TypeLibraries@RunTime@VIP@@1QAVmapMSupportSite@@2@XX@Z 
01:0002FBA8 ?insert_site$@mapMSupport@collectionSupport@@SAXQAVmodifiableSupportSite@@2@XX@Z 
01:0002FC08 ?set_optional$@mapMSupport@collectionSupport@@SAXQAV1@2@XXXPAUoptional_struct@core@@X@Z 
01:0002FC68 ?remove_site$@mapMSupport@collectionSupport@@SAXQAVmodifiableSupportSite@@2@XX@Z 
01:0002FD28 ?removeKeyList$@mapMSupport@collectionSupport@@SAXQAV1@2@XXPAU?$__packedList_struct@X@@@Z 
01:0002FD78 ?removeKeyCollection$@mapMSupport@collectionSupport@@SAXQAV1@2@XXQAVcollection@@@X@Z 
01:0002FDBC ?_get_default$@mapMSupport@collectionSupport@@SAXQAVmapSupport@@2@XXXXPAX@Z 
01:0002FE4C ?_get_defaultLazy$@mapMSupport@collectionSupport@@SAXQAVmapSupport@@2@XXXPA$?_function$1@core@@SAXPAX@Z$PAX@Z 
01:0002FEF0 ?set$@mapMSupport@collectionSupport@@SAXQAV1@2@XXXX@Z 
01:0002FF0C ?removeKey$@mapMSupport@collectionSupport@@SAXQAV1@2@XXX@Z 
01:0002FF28 ?_new@mapMSupport@collectionSupport@@SAXQAVrTypeLibrary@TypeLibraries@RunTime@VIP@@0QAVmapMSupportSite@@2@XXPAPAV1@2@PAXPAX@Z  (Idle)
01:0002FF5C ?_object_typelib_initializer$@mapMSupport@collectionSupport@@SGXQAV1@2@XXQAVrTypeLibrary@TypeLibraries@RunTime@VIP@@1@Z 
01:0002FF78 ?_mk_tl_0_collectionSupport\modifiableSupport{@Type}$imp$$@mapMSupport@collectionSupport@@SGQAVrTypeLibrary@TypeLibraries@RunTime@VIP@@QAV1@2@XX@Z 
01:0003020C collectionSupport\mapMSupport{@Key,@Data}?_initObject@@@QAGXQAV1@H@Z 
01:00030288 ?@create_object@mapMSupport@collectionSupport@@SGQAV1@2@XXQAVrTypeLibrary@TypeLibraries@RunTime@VIP@@0@Z 
01:000302B0 collectionSupport\mapMSupport{@Key,@Data}?_InternalFinalizer@@@QAGXQAV1@@Z 
--- From 'obj\mapsupport.59C06C8E.obj'
01:000302D0 ?new$@mapSupport@collectionSupport@@SAXQAV1@2@XXQAVrTypeLibrary@TypeLibraries@RunTime@VIP@@1QAVmapSupportSite@@2@XX@Z 
01:00030324 ?_get$@mapSupport@collectionSupport@@SAXQAV1@2@XXXPAX@Z 
01:000303D0 ?_get_default$@mapSupport@collectionSupport@@SAXQAV1@2@XXXXPAX@Z 
01:00030430 ?_get_defaultLazy$@mapSupport@collectionSupport@@SAXQAV1@2@XXXPA$?_function$1@core@@SAXPAX@Z$PAX@Z 
01:000304B0 ?_get_optional$@mapSupport@collectionSupport@@SAXQAV1@2@XXXPAPAUoptional_struct@core@@PAX@Z 
01:00030524 ?contains$@mapSupport@collectionSupport@@SAXQAV1@2@XXPAUtuple_struct@core@@XX@Z 
01:000305A4 ?_getKey_nd$@mapSupport@collectionSupport@@SAXQAV1@2@XXPAX@Z 
01:00030604 ?_getValue_nd$@mapSupport@collectionSupport@@SAXQAV1@2@XXPAX@Z 
01:00030664 ?keyList@mapSupport@collectionSupport@@SGPAU?$__packedList_struct@X@@QAV1@2@XX@Z 
01:000306C8 ?valueList@mapSupport@collectionSupport@@SGPAU?$__packedList_struct@X@@QAV1@2@XX@Z 
01:0003072C ?_getFromTo_nd$@mapSupport@collectionSupport@@SAXQAV1@2@XXXXPAPAUtuple_struct@core@@PAXPAX@Z 
01:000307B0 ?_presenter$@mapSupport@collectionSupport@@SAXQAV2@2@XPAPAUpresentation_struct@presenter@@@Z 
01:0003080C ?_tryGet$@mapSupport@collectionSupport@@SAXQAV1@2@XXXPAX@Z 
01:00030850 ?_upFrom_nd$@mapSupport@collectionSupport@@SAXQAV1@2@XXXPAPAUtuple_struct@core@@PAXPAX@Z 
01:00030878 ?_getAll_nd_site$@mapSupport@collectionSupport@@SAXQAVcollectionSupportSite@@2@XPAX@Z 
01:000308A0 ?_new@mapSupport@collectionSupport@@SAXQAVrTypeLibrary@TypeLibraries@RunTime@VIP@@0QAVmapSupportSite@@2@XXPAPAV1@2@PAXPAX@Z  (Idle)
01:000308D4 ?_object_typelib_initializer$@mapSupport@collectionSupport@@SGXQAV1@2@XXQAVrTypeLibrary@TypeLibraries@RunTime@VIP@@1@Z 
01:000308F0 ?_mk_tl_0_collectionSupport\collectionSupport{@Type}$imp$$@mapSupport@collectionSupport@@SGQAVrTypeLibrary@TypeLibraries@RunTime@VIP@@QAV1@2@XX@Z 
01:00030998 collectionSupport\mapSupport{@Key,@Data}?_initObject@@@QAGXQAV1@H@Z 
01:000309F4 ?@create_object@mapSupport@collectionSupport@@SGQAV1@2@XXQAVrTypeLibrary@TypeLibraries@RunTime@VIP@@0@Z 
01:00030A1C collectionSupport\mapSupport{@Key,@Data}?_InternalFinalizer@@@QAGXQAV1@@Z 
--- From 'obj\collectionmsupport.3A44ED4E.obj'
01:00030A30 ?new$@collectionSupport@1@SAXQAV1@1@XQAVrTypeLibrary@TypeLibraries@RunTime@VIP@@QAVcollectionSupportSite@@1@X@Z 
--- From 'obj\collectionsupport.A039CC0D.obj'
01:00030A44 ?isEmpty$@collectionSupport@1@SAXQAV1@1@X@Z 
01:00030AA4 ?_tryGetFirst$@collectionSupport@1@SAXQAV1@1@XPAX@Z 
01:00030AEC ?asList@collectionSupport@1@SGPAU?$__packedList_struct@X@@QAV1@1@X@Z 
01:00030B6C ?_presenter$@collectionSupport@1@SAXQAV1@1@XPAPAUpresentation_struct@presenter@@@Z 
01:00030BBC ?_getAll_nd$@collectionSupport@1@SAXQAV1@1@XPAX@Z 
01:00030BE4 ?_new@collectionSupport@1@SAXQAVrTypeLibrary@TypeLibraries@RunTime@VIP@@QAVcollectionSupportSite@@1@XPAPAV1@1@PAX@Z  (Idle)
01:00030C14 ?_object_typelib_initializer$@collectionSupport@1@SGXQAV1@1@XQAVrTypeLibrary@TypeLibraries@RunTime@VIP@@@Z 
--- From 'obj\collectionmsupport.3A44ED4E.obj'
01:00030C34 collectionSupport\collectionSupport{@Type}?_initObject@@@QAGXQAV1@H@Z 
--- From 'obj\collectionsupport.A039CC0D.obj'
01:00030C5C ?@create_object@collectionSupport@1@SGQAV1@1@XQAVrTypeLibrary@TypeLibraries@RunTime@VIP@@@Z 
--- From 'obj\collectionmsupport.3A44ED4E.obj'
01:00030C80 collectionSupport\collectionSupport{@Type}?_InternalFinalizer@@@QAGXQAV1@@Z 
01:00030C90 ?new$@modifiableSupport@collectionSupport@@SAXQAV1@2@XQAVrTypeLibrary@TypeLibraries@RunTime@VIP@@QAVmodifiableSupportSite@@2@X@Z 
--- From 'obj\modifiablesupport.5D48FFF1.obj'
01:00030CA4 ?insertList$@modifiableSupport@collectionSupport@@SAXQAV1@2@XPAU?$__packedList_struct@X@@@Z 
01:00030CF0 ?insertCollection$@modifiableSupport@collectionSupport@@SAXQAV1@2@XQAVcollection@@@X@Z 
01:00030D34 ?insertEnumerator$@modifiableSupport@collectionSupport@@SAXQAV1@2@XPA$?_function_nd$1@core@@SAXPAX@Z$@Z 
01:00030D7C ?removeList$@modifiableSupport@collectionSupport@@SAXQAV1@2@XPAU?$__packedList_struct@X@@@Z 
01:00030DCC ?removeCollection$@modifiableSupport@collectionSupport@@SAXQAV1@2@XQAVcollection@@@X@Z 
01:00030E10 ?_tryRemoveFirst$@modifiableSupport@collectionSupport@@SAXQAV1@2@XPAX@Z 
01:00030E4C ?insert$@modifiableSupport@collectionSupport@@SAXQAV1@2@XX@Z 
01:00030E68 ?remove$@modifiableSupport@collectionSupport@@SAXQAV1@2@XX@Z 
01:00030E84 ?_new@modifiableSupport@collectionSupport@@SAXQAVrTypeLibrary@TypeLibraries@RunTime@VIP@@QAVmodifiableSupportSite@@2@XPAPAV1@2@PAX@Z  (Idle)
01:00030EB4 ?_object_typelib_initializer$@modifiableSupport@collectionSupport@@SGXQAV1@2@XQAVrTypeLibrary@TypeLibraries@RunTime@VIP@@@Z 
--- From 'obj\collectionmsupport.3A44ED4E.obj'
01:00030ED4 collectionSupport\modifiableSupport{@Type}?_initObject@@@QAGXQAV1@H@Z 
--- From 'obj\modifiablesupport.5D48FFF1.obj'
01:00030EFC ?@create_object@modifiableSupport@collectionSupport@@SGQAV1@2@XQAVrTypeLibrary@TypeLibraries@RunTime@VIP@@@Z 
--- From 'obj\collectionmsupport.3A44ED4E.obj'
01:00030F20 collectionSupport\modifiableSupport{@Type}?_InternalFinalizer@@@QAGXQAV1@@Z 
--- From 'obj\redblacktree.401E21A0.obj'
01:00030F30 ?_empty/0$1@redBlackTree@@SAXPAUempty/0$1_struct@1@XXPAPAUcompareResult_struct@_builtIn@@@Z 
01:00030F48 ?_empty@redBlackTree@@SAXQAVrTypeLibrary@TypeLibraries@RunTime@VIP@@0PAPAUtree_struct@1@PAXPAX@Z  (Idle)
01:00030FBC ?_emptyUnique/0$1@redBlackTree@@SAXPAUemptyUnique/0$1_struct@1@XXPAPAUcompareResult_struct@_builtIn@@@Z 
01:00030FD4 ?_emptyUnique@redBlackTree@@SAXQAVrTypeLibrary@TypeLibraries@RunTime@VIP@@0PAPAUtree_struct@1@PAXPAX@Z 
01:00031048 ?_emptyCustom@redBlackTree@@SAXQAVrTypeLibrary@TypeLibraries@RunTime@VIP@@0PA$?_comparator$1@core@@SAXXXPAPAUcompareResult_struct@_builtIn@@@Z$PAPAUtree_struct@1@PAXPAX@Z  (Idle)
01:00031094 ?_emptyCustomUnique@redBlackTree@@SAXQAVrTypeLibrary@TypeLibraries@RunTime@VIP@@0PA$?_comparator$1@core@@SAXXXPAPAUcompareResult_struct@_builtIn@@@Z$PAPAUtree_struct@1@PAXPAX@Z 
01:000310E0 ?_emptySameKind@redBlackTree@@SAXQAVrTypeLibrary@TypeLibraries@RunTime@VIP@@0PAUtree_struct@1@XXPAPAU21@PAXPAX@Z 
01:00031118 ?isEmpty@redBlackTree@@SAXQAVrTypeLibrary@TypeLibraries@RunTime@VIP@@0PAUtree_struct@1@XX@Z  (Idle)
01:00031138 ?_insert@redBlackTree@@SAXQAVrTypeLibrary@TypeLibraries@RunTime@VIP@@0PAUtree_struct@1@XXXXPAPAU21@PAXPAX@Z 
01:000311A0 ?_delete@redBlackTree@@SAXQAVrTypeLibrary@TypeLibraries@RunTime@VIP@@0PAUtree_struct@1@XXXXPAPAU21@PAXPAX@Z  (Idle)
01:00031208 ?_deleteAll@redBlackTree@@SAXQAVrTypeLibrary@TypeLibraries@RunTime@VIP@@0PAUtree_struct@1@XXXPAPAU21@PAXPAX@Z 
01:0003126C ?_tryDeleteOne@redBlackTree@@SAXQAVrTypeLibrary@TypeLibraries@RunTime@VIP@@0PAUtree_struct@1@XXXPAXPAPAU21@PAXPAX@Z 
01:000312D4 ?_tryDeleteFirst@redBlackTree@@SAXQAVrTypeLibrary@TypeLibraries@RunTime@VIP@@0PAUtree_struct@1@XXPAXPAXPAPAU21@PAXPAX@Z  (Idle)
01:0003134C ?_lookUp_nd@redBlackTree@@SAXQAVrTypeLibrary@TypeLibraries@RunTime@VIP@@0PAUtree_struct@1@XXXPAX@Z  (Idle)
01:00031388 ?_tryLookUp@redBlackTree@@SAXQAVrTypeLibrary@TypeLibraries@RunTime@VIP@@0PAUtree_struct@1@XXXPAX@Z 
01:000313C4 ?_getAll_nd@redBlackTree@@SAXQAVrTypeLibrary@TypeLibraries@RunTime@VIP@@0PAUtree_struct@1@XXPAPAUtuple_struct@core@@PAXPAX@Z 
01:000313DC ?_upFrom_nd@redBlackTree@@SAXQAVrTypeLibrary@TypeLibraries@RunTime@VIP@@0PAUtree_struct@1@XXXPAPAUtuple_struct@core@@PAXPAX@Z 
01:00031418 ?_downFrom_nd@redBlackTree@@SAXQAVrTypeLibrary@TypeLibraries@RunTime@VIP@@0PAUtree_struct@1@XXXPAPAUtuple_struct@core@@PAXPAX@Z 
01:00031454 ?_present_tree@redBlackTree@@SAXQAVrTypeLibrary@TypeLibraries@RunTime@VIP@@0PAUtree_struct@1@XXPAPAUpresentation_struct@presenter@@@Z 
--- From 'obj\redblacktreerep.E6A269FA.obj'
01:000314B0 ?_comp@redBlackTreeRep@@SAXQAVrTypeLibrary@TypeLibraries@RunTime@VIP@@PAUtreeProperty_struct@1@XXXPAPAUcompareResult_struct@_builtIn@@@Z  (Idle)
01:000314F8 ?tryGetNode@redBlackTreeRep@@SAXQAVrTypeLibrary@TypeLibraries@RunTime@VIP@@0PAUtreeRep_struct@1@XXPAPAU21@PAXPAXPAXPAX3@Z  (Idle)
01:000315C4 ?_lookUp_nd_rep@redBlackTreeRep@@SAXQAVrTypeLibrary@TypeLibraries@RunTime@VIP@@0PAUtreeProperty_struct@1@XPAUtreeRep_struct@1@XXXPAX@Z 
01:00031648 ?_tryLookUp_rep@redBlackTreeRep@@SAXQAVrTypeLibrary@TypeLibraries@RunTime@VIP@@0PAUtreeProperty_struct@1@XPAUtreeRep_struct@1@XXXPAX@Z 
01:00031678 ?_find_nd_rep1@redBlackTreeRep@@SAXQAVrTypeLibrary@TypeLibraries@RunTime@VIP@@0PAUtreeProperty_struct@1@XPAUcompareResult_struct@_builtIn@@XPAUtreeRep_struct@1@XXX5PAX@Z 
01:0003173C ?_getAll_nd_rep@redBlackTreeRep@@SAXQAVrTypeLibrary@TypeLibraries@RunTime@VIP@@0PAUtreeRep_struct@1@XXPAPAUtuple_struct@core@@PAXPAX@Z 
01:00031788 ?get_nd_rep@redBlackTreeRep@@SAXQAVrTypeLibrary@TypeLibraries@RunTime@VIP@@0PAUtreeRep_struct@1@XXPAXPAX@Z 
01:00031834 ?_upFrom_nd_rep@redBlackTreeRep@@SAXQAVrTypeLibrary@TypeLibraries@RunTime@VIP@@0PAUtreeProperty_struct@1@XPAUtreeRep_struct@1@XXXPAPAUtuple_struct@core@@PAXPAX@Z 
01:000318C8 ?_upFrom_nd_rep1@redBlackTreeRep@@SAXQAVrTypeLibrary@TypeLibraries@RunTime@VIP@@0PAUtreeProperty_struct@1@XPAUcompareResult_struct@_builtIn@@XPAUtreeRep_struct@1@XXXX5PAPAUtuple_struct@core@@PAXPAX@Z 
01:000319B8 ?_upFrom_nd_rep@redBlackTreeRep@@SAXQAVrTypeLibrary@TypeLibraries@RunTime@VIP@@0PA$?_function$2@core@@SAXXPAPAUcompareResult_struct@_builtIn@@@Z$PAUtreeRep_struct@1@XXPAPAUtuple_struct@5@PAXPAX@Z  (Idle)
01:00031A3C ?_upFrom_nd_rep1@redBlackTreeRep@@SAXQAVrTypeLibrary@TypeLibraries@RunTime@VIP@@0PA$?_function$2@core@@SAXXPAPAUcompareResult_struct@_builtIn@@@Z$PAU23@PAUtreeRep_struct@1@XXXX4PAPAUtuple_struct@9@PAXPAX@Z 
01:00031B20 ?_upTo_nd_rep@redBlackTreeRep@@SAXQAVrTypeLibrary@TypeLibraries@RunTime@VIP@@0PAUtreeProperty_struct@1@XPAUtreeRep_struct@1@XXXPAPAUtuple_struct@core@@PAXPAX@Z  (Idle)
01:00031BB4 ?_upTo_nd_rep1@redBlackTreeRep@@SAXQAVrTypeLibrary@TypeLibraries@RunTime@VIP@@0PAUtreeProperty_struct@1@XPAUcompareResult_struct@_builtIn@@XPAUtreeRep_struct@1@XXXX5PAPAUtuple_struct@core@@PAXPAX@Z 
01:00031D00 ?_upTo_nd_rep@redBlackTreeRep@@SAXQAVrTypeLibrary@TypeLibraries@RunTime@VIP@@0PA$?_function$2@core@@SAXXPAPAUcompareResult_struct@_builtIn@@@Z$PAUtreeRep_struct@1@XXPAPAUtuple_struct@5@PAXPAX@Z  (Idle)
01:00031D84 ?_upTo_nd_rep1@redBlackTreeRep@@SAXQAVrTypeLibrary@TypeLibraries@RunTime@VIP@@0PA$?_function$2@core@@SAXXPAPAUcompareResult_struct@_builtIn@@@Z$PAU23@PAUtreeRep_struct@1@XXXX4PAPAUtuple_struct@9@PAXPAX@Z 
01:00031ED0 ?_downFrom_nd_rep@redBlackTreeRep@@SAXQAVrTypeLibrary@TypeLibraries@RunTime@VIP@@0PAUtreeProperty_struct@1@XPAUtreeRep_struct@1@XXXPAPAUtuple_struct@core@@PAXPAX@Z 
01:00031F64 ?_downFrom_nd_rep1@redBlackTreeRep@@SAXQAVrTypeLibrary@TypeLibraries@RunTime@VIP@@0PAUtreeProperty_struct@1@XPAUcompareResult_struct@_builtIn@@XPAUtreeRep_struct@1@XXXX5PAPAUtuple_struct@core@@PAXPAX@Z 
01:00032054 ?_downFrom_nd_rep@redBlackTreeRep@@SAXQAVrTypeLibrary@TypeLibraries@RunTime@VIP@@0PA$?_function$2@core@@SAXXPAPAUcompareResult_struct@_builtIn@@@Z$PAUtreeRep_struct@1@XXPAPAUtuple_struct@5@PAXPAX@Z  (Idle)
01:000320D8 ?_downFrom_nd_rep1@redBlackTreeRep@@SAXQAVrTypeLibrary@TypeLibraries@RunTime@VIP@@0PA$?_function$2@core@@SAXXPAPAUcompareResult_struct@_builtIn@@@Z$PAU23@PAUtreeRep_struct@1@XXXX4PAPAUtuple_struct@9@PAXPAX@Z 
01:000321BC ?_downTo_nd_rep@redBlackTreeRep@@SAXQAVrTypeLibrary@TypeLibraries@RunTime@VIP@@0PAUtreeProperty_struct@1@XPAUtreeRep_struct@1@XXXPAPAUtuple_struct@core@@PAXPAX@Z  (Idle)
01:00032250 ?_downTo_nd_rep1@redBlackTreeRep@@SAXQAVrTypeLibrary@TypeLibraries@RunTime@VIP@@0PAUtreeProperty_struct@1@XPAUcompareResult_struct@_builtIn@@XPAUtreeRep_struct@1@XXXX5PAPAUtuple_struct@core@@PAXPAX@Z 
01:00032398 ?_downTo_nd_rep@redBlackTreeRep@@SAXQAVrTypeLibrary@TypeLibraries@RunTime@VIP@@0PA$?_function$2@core@@SAXXPAPAUcompareResult_struct@_builtIn@@@Z$PAUtreeRep_struct@1@XXPAPAUtuple_struct@5@PAXPAX@Z  (Idle)
01:0003241C ?_downTo_nd_rep1@redBlackTreeRep@@SAXQAVrTypeLibrary@TypeLibraries@RunTime@VIP@@0PA$?_function$2@core@@SAXXPAPAUcompareResult_struct@_builtIn@@@Z$PAU23@PAUtreeRep_struct@1@XXXX4PAPAUtuple_struct@9@PAXPAX@Z 
01:00032564 ?_getAllDown_nd_rep@redBlackTreeRep@@SAXQAVrTypeLibrary@TypeLibraries@RunTime@VIP@@0PAUtreeRep_struct@1@XXPAPAUtuple_struct@core@@PAXPAX@Z 
01:00032718 ?_findNext_dt@redBlackTreeRep@@SAXQAVrTypeLibrary@TypeLibraries@RunTime@VIP@@0PAUtreeProperty_struct@1@XXPAUtreeRep_struct@1@XXPAX@Z  (Idle)
01:000327B0 ?_findNext_dt@redBlackTreeRep@@SAXQAVrTypeLibrary@TypeLibraries@RunTime@VIP@@0PAUtreeProperty_struct@1@XXXPAUtreeRep_struct@1@XXPAX@Z 
01:00032880 ?_getMinChild_dt@redBlackTreeRep@@SAXQAVrTypeLibrary@TypeLibraries@RunTime@VIP@@0PAUtreeRep_struct@1@XXPAX@Z 
01:0003295C ?_findPrev_dt@redBlackTreeRep@@SAXQAVrTypeLibrary@TypeLibraries@RunTime@VIP@@0PAUtreeProperty_struct@1@XXPAUtreeRep_struct@1@XXPAX@Z  (Idle)
01:000329F4 ?_findPrev_dt@redBlackTreeRep@@SAXQAVrTypeLibrary@TypeLibraries@RunTime@VIP@@0PAUtreeProperty_struct@1@XXXPAUtreeRep_struct@1@XXPAX@Z 
01:00032AC4 ?_getMaxChild_dt@redBlackTreeRep@@SAXQAVrTypeLibrary@TypeLibraries@RunTime@VIP@@0PAUtreeRep_struct@1@XXPAX@Z 
01:00032BA0 ?_scanRep_nd@redBlackTreeRep@@SAXQAVrTypeLibrary@TypeLibraries@RunTime@VIP@@0PAUtuple_struct@core@@PA$?_function$2@3@SAXXPAPAUcompareResult_struct@_builtIn@@@Z$PA$?_function$2@3@SAXXPAPAUcompareResult_struct@_builtIn@@@Z$PAUtreeRep_struct@1@XXPAX@Z  (Idle)
01:00032CBC ?_scanRep_nd@redBlackTreeRep@@SAXQAVrTypeLibrary@TypeLibraries@RunTime@VIP@@0PAUtuple_struct@core@@PA$?_function$2@3@SAXXPAPAUcompareResult_struct@_builtIn@@@Z$PA$?_function$2@3@SAXXPAPAU45@@Z$PAU45@3PAUtreeRep_struct@1@XXX5PAX@Z 
01:00032D68 ?_reverse_scanRep_nd@redBlackTreeRep@@SAXQAVrTypeLibrary@TypeLibraries@RunTime@VIP@@0PAUtuple_struct@core@@PA$?_function$2@3@SAXXPAPAUcompareResult_struct@_builtIn@@@Z$PA$?_function$2@3@SAXXPAPAUcompareResult_struct@_builtIn@@@Z$PAUtreeRep_struct@1@XXPAX@Z  (Idle)
01:00032E84 ?_reverse_scanRep_nd@redBlackTreeRep@@SAXQAVrTypeLibrary@TypeLibraries@RunTime@VIP@@0PAUtuple_struct@core@@PA$?_function$2@3@SAXXPAPAUcompareResult_struct@_builtIn@@@Z$PA$?_function$2@3@SAXXPAPAU45@@Z$PAU45@3PAUtreeRep_struct@1@XXX5PAX@Z 
01:00032F30 ?_insert_rep@redBlackTreeRep@@SAXQAVrTypeLibrary@TypeLibraries@RunTime@VIP@@0PAUtreeProperty_struct@1@XPAUtreeRep_struct@1@XXXXPAPAU41@PAXPAX@Z 
01:00032F6C ?_ins@redBlackTreeRep@@SAXQAVrTypeLibrary@TypeLibraries@RunTime@VIP@@0PAUtreeProperty_struct@1@XXXPAUtreeRep_struct@1@XXPAPAU41@PAXPAX@Z 
01:00033130 ?_ins_black@redBlackTreeRep@@SAXQAVrTypeLibrary@TypeLibraries@RunTime@VIP@@0PAUtreeProperty_struct@1@XPAUcompareResult_struct@_builtIn@@XXPAUtreeRep_struct@1@XXXX6PAPAU61@PAXPAX@Z 
01:000332B0 ?_ins_red@redBlackTreeRep@@SAXQAVrTypeLibrary@TypeLibraries@RunTime@VIP@@0PAUtreeProperty_struct@1@XPAUcompareResult_struct@_builtIn@@XXPAUtreeRep_struct@1@XXXX6PAPAU61@PAXPAX@Z 
01:00033440 ?_balance@redBlackTreeRep@@SAXQAVrTypeLibrary@TypeLibraries@RunTime@VIP@@0PAUtreeRep_struct@1@XXXX2PAPAU21@PAXPAX@Z 
01:00033A14 ?_makeblack@redBlackTreeRep@@SAXQAVrTypeLibrary@TypeLibraries@RunTime@VIP@@0PAUtreeRep_struct@1@XXPAPAU21@PAXPAX@Z 
01:00033A94 ?_delete_rep@redBlackTreeRep@@SAXQAVrTypeLibrary@TypeLibraries@RunTime@VIP@@0PAUtreeProperty_struct@1@XPAUtreeRep_struct@1@XXXXPAPAU41@PAXPAX@Z 
01:00033AE8 ?del@redBlackTreeRep@@SAXQAVrTypeLibrary@TypeLibraries@RunTime@VIP@@0PAUtreeProperty_struct@1@XXXPAUtreeRep_struct@1@XXPAPAU41@PAXPAXPAPAUboolean_struct@_builtIn@@@Z 
01:00033BBC ?del1@redBlackTreeRep@@SAXQAVrTypeLibrary@TypeLibraries@RunTime@VIP@@0PAUtreeProperty_struct@1@XPAUcompareResult_struct@_builtIn@@XXPAUtreeRep_struct@1@XXXX6PAPAU61@PAXPAXPAPAUboolean_struct@5@@Z 
01:00033D10 ?delLeft@redBlackTreeRep@@SAXQAVrTypeLibrary@TypeLibraries@RunTime@VIP@@0PAUtreeProperty_struct@1@XXXPAUtreeRep_struct@1@XXXX5PAPAU41@PAXPAXPAPAUboolean_struct@_builtIn@@@Z 
01:00033DC0 ?delRight@redBlackTreeRep@@SAXQAVrTypeLibrary@TypeLibraries@RunTime@VIP@@0PAUtreeProperty_struct@1@XXXPAUtreeRep_struct@1@XXXX5PAPAU41@PAXPAXPAPAUboolean_struct@_builtIn@@@Z 
01:00033E78 ?_tryDeleteOne_rep@redBlackTreeRep@@SAXQAVrTypeLibrary@TypeLibraries@RunTime@VIP@@0PAUtreeProperty_struct@1@XPAUtreeRep_struct@1@XXXPAXPAPAU41@PAXPAX@Z 
01:00033EB4 ?_tryDel@redBlackTreeRep@@SAXQAVrTypeLibrary@TypeLibraries@RunTime@VIP@@0PAUtreeProperty_struct@1@XXPAUtreeRep_struct@1@XXPAXPAPAU41@PAXPAX@Z 
01:00033F54 ?_tryDel1@redBlackTreeRep@@SAXQAVrTypeLibrary@TypeLibraries@RunTime@VIP@@0PAUtreeProperty_struct@1@XPAUcompareResult_struct@_builtIn@@XPAUtreeRep_struct@1@XXXX5PAXPAPAU61@PAXPAX@Z 
01:00033FF0 ?_tryDelLeft@redBlackTreeRep@@SAXQAVrTypeLibrary@TypeLibraries@RunTime@VIP@@0PAUtreeProperty_struct@1@XXPAUtreeRep_struct@1@XXXX4PAXPAPAU41@PAXPAX@Z 
01:000340A4 ?_tryDelRight@redBlackTreeRep@@SAXQAVrTypeLibrary@TypeLibraries@RunTime@VIP@@0PAUtreeProperty_struct@1@XXPAUtreeRep_struct@1@XXXX4PAXPAPAU41@PAXPAX@Z 
01:00034164 ?_balLeft@redBlackTreeRep@@SAXQAVrTypeLibrary@TypeLibraries@RunTime@VIP@@0PAUtreeRep_struct@1@XXXX2PAPAU21@PAXPAX@Z 
01:00034404 ?_balRight@redBlackTreeRep@@SAXQAVrTypeLibrary@TypeLibraries@RunTime@VIP@@0PAUtreeRep_struct@1@XXXX2PAPAU21@PAXPAX@Z 
01:000346A4 ?_sub1@redBlackTreeRep@@SAXQAVrTypeLibrary@TypeLibraries@RunTime@VIP@@0PAUtreeRep_struct@1@XXPAPAU21@PAXPAX@Z 
01:00034758 ?_mkNode@redBlackTreeRep@@SAXQAVrTypeLibrary@TypeLibraries@RunTime@VIP@@0PAUtreeRep_struct@1@XX2PAPAU21@PAXPAX@Z 
01:00034AC8 ?_mkNodeRR_BC@redBlackTreeRep@@SAXQAVrTypeLibrary@TypeLibraries@RunTime@VIP@@0PAUtreeRep_struct@1@XXXX2XX2PAPAU21@PAXPAX@Z 
01:00034BF8 ?_mkNodeBB_BC@redBlackTreeRep@@SAXQAVrTypeLibrary@TypeLibraries@RunTime@VIP@@0PAUtreeRep_struct@1@XXXX2XX2PAPAU21@PAXPAX@Z 
01:00034D20 ?_present_treerep/1nf$1@redBlackTreeRep@@SAXPAUpresent_treerep/1nf$1_struct@1@PAPAUtuple_struct@core@@PAXPAX@Z 
01:00034D60 ?_present_treeRep@redBlackTreeRep@@SAXQAVrTypeLibrary@TypeLibraries@RunTime@VIP@@0PAUtreeRep_struct@1@XXPAPAUpresentation_struct@presenter@@@Z 
--- From 'obj\weakreference.0A1AF11C.obj'
01:00034DB0 ?new$@weakReference@@SAXQAV1@@XQAVrTypeLibrary@TypeLibraries@RunTime@VIP@@X@Z  (Idle)
01:00034DE8 ?_tryDeref$@weakReference@@SAXQAV1@@XPAX@Z 
01:00034E5C ?doIfExist$@weakReference@@SAXQAV1@@XPA$?predicate$1@core@@SAXX@Z$@Z 
01:00034EDC ?released@weakReference@@SGQAVevent0@@@QAV1@@X@Z 
01:00034F28 ?finalize$@weakReference@@SGXQAV1@@X@Z 
01:00034F9C ?_new@weakReference@@SAXQAVrTypeLibrary@TypeLibraries@RunTime@VIP@@XPAPAV1@@PAX@Z 
01:00034FCC ?_object_typelib_initializer$@weakReference@@SGXQAV1@@XQAVrTypeLibrary@TypeLibraries@RunTime@VIP@@@Z 
01:00034FE4 ?_object_facts_initializer$@weakReference@@SGXQAV1@@X@Z 
01:00035004 weakReference{@Type}?_initObject@@@QAGXQAV1@H@Z 
01:00035038 ?@create_object@weakReference@@SGQAV1@@XQAVrTypeLibrary@TypeLibraries@RunTime@VIP@@@Z 
01:0003505C weakReference{@Type}?_InternalFinalizer@@@QAGXQAV1@@Z 
--- From 'obj\filesystem.5B0F823E.obj'
01:000350A0 ?new$@outputStreamSupport@@SAXQAV1@@QAVoutputStreamSupportSite@@@PAUmode_struct@stream@@@Z 
--- From 'obj\console.E8EB4F3C.obj'
01:000350B8 ?new_flush$@outputStreamSupport@@SAXQAV1@@QAVoutputStreamSupportSite@@@PAUmode_struct@stream@@@Z 
--- From 'obj\outputstreamsupport.6F229CFB.obj'
01:000350F0 ?newEx$@outputStreamSupport@@SAXQAV1@@QAVoutputStreamSupportSite@@@PAUmode_struct@stream@@X@Z 
01:00035128 ?getBuffer$@outputStreamSupport@@SGXQAVbufferSupport@@@PAPAXAAUbyteCount@core@@@Z 
01:0003514C ?getBufferLocked$@outputStreamSupport@@SGXQAVbufferSupport@@@PAPAXAAUbyteCount@core@@@Z 
01:00035170 ?allowNullPointersBufferSupport@outputStreamSupport@@SGPAUboolean_struct@_builtIn@@QAVbufferSupport@@@@Z 
01:0003517C ?setMode$@outputStreamSupport@@SGXQAVstream@@@PAUmode_struct@2@@Z 
01:000351B0 ?getMode$@outputStreamSupport@@SGPAUmode_struct@stream@@QAV3@@@Z 
01:000351BC ?flush$@outputStreamSupport@@SAXQAVoutputStream@@@@Z 
01:000351E4 ?getPosition$@outputStreamSupport@@SGPBUfileSize@fileSystem_api@@QAVstream@@@@Z 
01:000351FC ?setPosition$@outputStreamSupport@@SGXQAVstream@@@PBUfileSize@fileSystem_api@@@Z 
01:00035214 ?getCRLFconversion$@outputStreamSupport@@SGPAUboolean_struct@_builtIn@@QAVstream@@@@Z 
01:0003521C ?setCRLFconversion$@outputStreamSupport@@SGXQAVstream@@@PAUboolean_struct@_builtIn@@@Z 
01:00035244 ?close$@outputStreamSupport@@SGXQAVstream@@@@Z 
01:0003527C ?write$@outputStreamSupport@@SAXQAVoutputStream@@@@Z 
01:000352C4 ?writeQuoted$@outputStreamSupport@@SAXQAVoutputStream@@@@Z 
01:0003530C ?writef$@outputStreamSupport@@SAXQAVoutputStream@@@PB_W@Z 
01:00035394 ?nl$@outputStreamSupport@@SAXQAVoutputStream@@@@Z 
01:000353C8 ?save$@outputStreamSupport@@SAXQAVoutputStream@@@PBUfactDB@_builtIn@@@Z 
01:0003540C ?writeBytes$@outputStreamSupport@@SAXQAVoutputStream@@@PAXPBUbyteCount@core@@@Z 
01:00035454 ?checkClosed_explicit$@outputStreamSupport@@SAXQAV1@@PAUprogramPoint_struct@core@@@Z 
01:0003549C ?checkMode_text_explicit$@outputStreamSupport@@SAXQAV1@@PAUprogramPoint_struct@core@@@Z 
01:000354D4 ?streamFromInputBuffer$@outputStreamSupport@@SAXQAVoutputStream@@@QAVinputBuffer@@@@Z 
01:000354EC ?present$@outputStreamSupport@@SAXQAVoutputStream@@@@Z 
01:00035590 ?writePresentation@outputStreamSupport@@SAXQAVoutputStream@@@PAUpresentation_struct@presenter@@@Z  (Idle)
01:00035598 ?presentation2stream@outputStreamSupport@@SAXQAVoutputStream@@@PAUpresentation_struct@presenter@@@Z 
01:00035700 ?structuredPresentation2stream@outputStreamSupport@@SAXQAVoutputStream@@@PB_WPAUsubPresenter_struct@presenter@@@Z 
01:000358C8 ?fieldPresent2stream@outputStreamSupport@@SAXQAVoutputStream@@@PAUfieldPresentation_struct@presenter@@@Z 
01:00035938 ?subLazy2stream@outputStreamSupport@@SAXQAVoutputStream@@@PAUsubPresentation_struct@presenter@@PA$?_function$1@core@@SAXPAPAUpresentation_struct@4@@Z$@Z 
01:000359A8 ?subPresentation2stream@outputStreamSupport@@SAXQAVoutputStream@@@PAUsubPresentation_struct@presenter@@PAUpresentation_struct@4@@Z 
01:00035A00 ?functorPresentation2stream@outputStreamSupport@@SAXQAVoutputStream@@@PB_WPAU?$__packedList_struct@PBUany@_builtIn@@@@@Z 
--- From 'obj\inputstreamsupport.7AF62102.obj'
01:00035B80 ?bufferNotFound_exception_explicit@outputStreamSupport@@SAXPAUprogramPoint_struct@core@@I@Z 
--- From 'obj\outputstreamsupport.6F229CFB.obj'
01:00035BBC ?initRuntimePresenters@outputStreamSupport@@SAXXZ  (Idle)
01:00035BCC ?_presentation2stringSerializer@outputStreamSupport@@SAXPAUpresentation_struct@presenter@@PAPB_W@Z 
01:00035C00 ?_new@outputStreamSupport@@SAXQAVoutputStreamSupportSite@@@PAUmode_struct@stream@@PAPAV1@@@Z  (Idle)
01:00035C2C ?_new_flush@outputStreamSupport@@SAXQAVoutputStreamSupportSite@@@PAUmode_struct@stream@@PAPAV1@@@Z  (Idle)
01:00035C58 ?_newEx@outputStreamSupport@@SAXQAVoutputStreamSupportSite@@@PAUmode_struct@stream@@XPAPAV1@@@Z  (Idle)
01:00035C88 ?_object_facts_initializer$@outputStreamSupport@@SGXQAV1@@@Z 
01:00035CA8 ?allowNullPointers@outputStreamSupport@@SGXQAVstream@@@PAUboolean_struct@_builtIn@@@Z 
01:00035CB8 ?allowNullPointers@outputStreamSupport@@SGPAUboolean_struct@_builtIn@@QAVstream@@@@Z 
01:00035CC4 ?getBuffer$@outputStreamSupport@@SGPAXQAVoutputBuffer@@@@Z 
01:00035CE4 ?getLength$@outputStreamSupport@@SGPBUbyteCount@core@@QAVoutputBuffer@@@@Z 
01:00035D04 ?getOffset$@outputStreamSupport@@SGPBUbyteCount@core@@QAVoutputBuffer@@@@Z 
01:00035D24 ?setOffset$@outputStreamSupport@@SGXQAVoutputBuffer@@@PBUbyteCount@core@@@Z 
01:00035D44 ?setCurrentBuffer$@outputStreamSupport@@SGXQAVoutputBuffer@@@PAXPBUbyteCount@core@@@Z 
01:00035D68 ?flushBuffer$@outputStreamSupport@@SGXQAVoutputBuffer@@@@Z 
01:00035D84 ?_class_initializer@outputStreamSupport@@SGXXZ 
--- From 'obj\binary.248EF86D.obj'
01:00035D9C ?new$@outputStreamSegmentedSupport@@SAXQAV1@@XQAVrTypeLibrary@TypeLibraries@RunTime@VIP@@PAUmode_struct@stream@@QAVsegmentedSupport@@@X@Z 
--- From 'obj\outputstreamsupport.6F229CFB.obj'
01:00035DF0 ?doFlush$@outputStreamSegmentedSupport@@SAXQAVoutputStreamSupportSite@@@@Z 
01:00035F18 ?getPosition$@outputStreamSegmentedSupport@@SGPBUfileSize@fileSystem_api@@QAVstream@@@@Z 
01:00035F64 ?setPosition$@outputStreamSegmentedSupport@@SGXQAVstream@@@PBUfileSize@fileSystem_api@@@Z 
01:00036034 ?getBuffer$@outputStreamSegmentedSupport@@SGXQAVoutputStreamSupportSite@@@PAPAXAAUbyteCount@core@@@Z 
01:00036068 ?_getSegmented$@outputStreamSegmentedSupport@@SAXQAV1@@XPAPAUsegmented_struct@segmented@@PAX@Z 
01:0003608C ?_size@outputStreamSegmentedSupport@@SAXQAV1@@XPAAAUfileSize@fileSystem_api@@@Z 
01:000360FC ?size32@outputStreamSegmentedSupport@@SGPBUbyteCount@core@@QAV1@@X@Z 
01:00036140 ?_copyToBuffer$@outputStreamSegmentedSupport@@SAXQAV1@@XQAVrTypeLibrary@TypeLibraries@RunTime@VIP@@XPAPAX@Z 
01:00036198 ?_presenter/0nf$1@outputStreamSegmentedSupport@@SAXPAUpresenter/0nf$1_struct@1/1@PAPAUpresentation_struct@presenter@@@Z 
01:000361FC ?_presenter$@outputStreamSegmentedSupport@@SAXQAV1@@XPAPAUpresentation_struct@presenter@@@Z 
01:000362C8 ?_new@outputStreamSegmentedSupport@@SAXQAVrTypeLibrary@TypeLibraries@RunTime@VIP@@PAUmode_struct@stream@@QAVsegmentedSupport@@@XPAPAV1@@PAX@Z  (Idle)
01:000362FC ?_object_typelib_initializer$@outputStreamSegmentedSupport@@SGXQAV1@@XQAVrTypeLibrary@TypeLibraries@RunTime@VIP@@@Z 
01:00036314 ?_object_facts_initializer$@outputStreamSegmentedSupport@@SGXQAV1@@X@Z 
--- From 'obj\console.E8EB4F3C.obj'
01:000363A4 outputStreamSupport?_initObject@@@QAGXQAV1@H@Z 
--- From 'obj\outputstreamsupport.6F229CFB.obj'
01:000363D0 ?@create_object@outputStreamSupport@@SGQAV1@@XZ 
--- From 'obj\console.E8EB4F3C.obj'
01:000363EC outputStreamSupport?_InternalFinalizer@@@QAGXQAV1@@Z 
--- From 'obj\binary.248EF86D.obj'
01:00036638 outputStreamSegmentedSupport{@Segment}?_initObject@@@QAGXQAV1@H@Z 
--- From 'obj\outputstreamsupport.6F229CFB.obj'
01:0003668C ?@create_object@outputStreamSegmentedSupport@@SGQAV1@@XQAVrTypeLibrary@TypeLibraries@RunTime@VIP@@@Z 
--- From 'obj\binary.248EF86D.obj'
01:000366B0 outputStreamSegmentedSupport{@Segment}?_InternalFinalizer@@@QAGXQAV1@@Z 
--- From 'obj\segmentedsupport.2BAFE67D.obj'
01:000366C0 ?new$@segmentedSupport@@SAXQAV1@@XQAVrTypeLibrary@TypeLibraries@RunTime@VIP@@QAVsegmentedSupportSite@@@X@Z  (Idle)
01:000366D4 ?_mkSegment$@segmentedSupport@@SAXQAV1@@XXPAPAUsegmented_struct@segmented@@PAX@Z 
01:000366FC ?_mkFromBuffer$@segmentedSupport@@SAXQAV1@@XPAXPBUbyteCount@core@@PAPAUsegmented_struct@segmented@@PAX@Z 
01:0003675C ?_concat$@segmentedSupport@@SAXQAV1@@XPAUsegmented_struct@segmented@@X1PAPAU34@PAX@Z 
01:00036908 ?_concat2$@segmentedSupport@@SAXQAV1@@XPAUcompareResult_struct@_builtIn@@PAUsegmented_struct@segmented@@X2PAPAU56@PAX@Z 
01:0003696C ?_concat_inRight$@segmentedSupport@@SAXQAV1@@XPAUsegmented_struct@segmented@@X1PAPAU34@PAX@Z 
01:00036C50 ?_concat_inLeft$@segmentedSupport@@SAXQAV1@@XPAUsegmented_struct@segmented@@X1PAPAU34@PAX@Z 
01:00036F34 ?_front$@segmentedSupport@@SAXQAV1@@XPAUsegmented_struct@segmented@@XPBUbyteCount@core@@PAPAU34@PAX@Z 
01:000372A8 ?_rear$@segmentedSupport@@SAXQAV1@@XPAUsegmented_struct@segmented@@XPBUbyteCount@core@@PAPAU34@PAX@Z 
01:0003764C ?_subSegment$@segmentedSupport@@SAXQAV1@@XPAUsegmented_struct@segmented@@XPBUbyteCount@core@@2PAPAU34@PAX@Z 
01:00037684 ?split$@segmentedSupport@@SAXQAV1@@XPAUsegmented_struct@segmented@@XPBUbyteCount@core@@PAPAU34@PAX3@Z 
01:000376B0 ?_insert$@segmentedSupport@@SAXQAV1@@XPAUsegmented_struct@segmented@@XPBUbyteCount@core@@1PAPAU34@PAX@Z 
01:0003771C ?_getAll_nd$@segmentedSupport@@SAXQAV1@@XPAUsegmented_struct@segmented@@XPAX@Z 
01:00037778 ?_getAllLeafs_nd@segmentedSupport@@SAXQAVrTypeLibrary@TypeLibraries@RunTime@VIP@@PAUsegmented_struct@segmented@@XPAPAU23@PAX@Z 
01:000378B8 ?_mkIterator$@segmentedSupport@@SAXQAV1@@XPAUsegmented_struct@segmented@@XPBUbyteCount@core@@PAPAViterator@@@PAPAUtuple_struct@6@AAU56@PAX@Z 
01:000378E8 ?_mkNode2$@segmentedSupport@@SAXQAV1@@XPAUsegmented_struct@segmented@@X1PAPAU34@PAX@Z 
01:00037998 ?_mkNode3$@segmentedSupport@@SAXQAV1@@XPAUsegmented_struct@segmented@@X11PAPAU34@PAX@Z 
01:00037A70 ?_getHeight$@segmentedSupport@@SAXQAV1@@XPAUsegmented_struct@segmented@@XPAI@Z 
01:00037AC8 ?_copyToBuffer$@segmentedSupport@@SAXQAV1@@XQAVrTypeLibrary@TypeLibraries@RunTime@VIP@@PAUsegmented_struct@segmented@@XXPAPAX@Z 
01:00037B98 ?validate$@segmentedSupport@@SAXQAV1@@XPAUsegmented_struct@segmented@@X@Z 
01:00037BD0 ?_validate2$@segmentedSupport@@SAXQAV1@@XIPAUsegmented_struct@segmented@@XAAUbyteCount@core@@@Z 
01:00037EF0 ?notEmpty$@segmentedSupport@@SAXQAV1@@XPAUsegmented_struct@segmented@@X@Z 
01:00037F34 ?_new@segmentedSupport@@SAXQAVrTypeLibrary@TypeLibraries@RunTime@VIP@@QAVsegmentedSupportSite@@@XPAPAV1@@PAX@Z 
01:00037F64 ?_object_typelib_initializer$@segmentedSupport@@SGXQAV1@@XQAVrTypeLibrary@TypeLibraries@RunTime@VIP@@@Z 
01:00037F7C ?new$@segmentedIterator@@SAXQAV1@@XQAVrTypeLibrary@TypeLibraries@RunTime@VIP@@PAUsegmented_struct@segmented@@XPBUbyteCount@core@@@Z  (Idle)
01:00038000 ?_findSegment$@segmentedIterator@@SAXQAV1@@XPAUsegmented_struct@segmented@@XPBUbyteCount@core@@AAU56@@Z 
01:0003807C ?_tryFindSegment$@segmentedIterator@@SAXQAV1@@XPAUsegmented_struct@segmented@@XPBUbyteCount@core@@AAU56@@Z 
01:00038358 ?_siteTryGetNext$@segmentedIterator@@SAXQAV1@@XPAPAUtuple_struct@core@@AAUbyteCount@4@PAX@Z 
01:000383E0 ?_tryGetNext2$@segmentedIterator@@SAXQAV1@@XPAUsegmented_struct@segmented@@XPAPAUtuple_struct@core@@AAUbyteCount@6@PAX@Z 
01:000384FC ?_new@segmentedIterator@@SAXQAVrTypeLibrary@TypeLibraries@RunTime@VIP@@PAUsegmented_struct@segmented@@XPBUbyteCount@core@@PAPAViterator@@@PAPAUtuple_struct@5@AAU45@PAX@Z 
01:00038530 ?_object_typelib_initializer$@segmentedIterator@@SGXQAV1@@XQAVrTypeLibrary@TypeLibraries@RunTime@VIP@@@Z 
01:00038548 ?_mk_tl_0_iterator{@Elem}$imp$$@segmentedIterator@@SGQAVrTypeLibrary@TypeLibraries@RunTime@VIP@@QAV1@@X@Z 
01:0003858C ?_object_facts_initializer$@segmentedIterator@@SGXQAV1@@X@Z 
01:000385A8 segmentedSupport{@Segment}?_initObject@@@QAGXQAV1@H@Z 
01:000385D0 ?@create_object@segmentedSupport@@SGQAV1@@XQAVrTypeLibrary@TypeLibraries@RunTime@VIP@@@Z 
01:000385F4 segmentedSupport{@Segment}?_InternalFinalizer@@@QAGXQAV1@@Z 
01:00038668 segmentedIterator{@Segment}?_initObject@@@QAGXQAV1@H@Z 
01:000386C4 ?@create_object@segmentedIterator@@SGQAV1@@XQAVrTypeLibrary@TypeLibraries@RunTime@VIP@@@Z 
01:000386E8 segmentedIterator{@Segment}?_InternalFinalizer@@@QAGXQAV1@@Z 
--- From 'obj\iterator.60C55021.obj'
01:00038700 ?new$@iterator@@SAXQAV1@@XQAVrTypeLibrary@TypeLibraries@RunTime@VIP@@PA$?_function_dt$1@core@@SAXPAX@Z$@Z 
01:00038714 ?new$@iterator@@SAXQAV1@@XQAVrTypeLibrary@TypeLibraries@RunTime@VIP@@PA$?_function_dt$1@core@@SAXPAX@Z$X@Z  (Idle)
01:00038738 ?_list/1np$1@iterator@@SAXPAUlist/1np$1_struct@1/1@PAX@Z 
01:000387A0 ?list$@iterator@@SAXQAV1@@XQAVrTypeLibrary@TypeLibraries@RunTime@VIP@@PAU?$__packedList_struct@X@@@Z  (Idle)
01:00038814 ?_tryGetNext$@iterator@@SAXQAV1@@XPAX@Z 
01:00038884 ?_getAll_nd$@iterator@@SAXQAV1@@XPAX@Z 
01:000388FC ?_getAsList$@iterator@@SAXQAV1@@XPAPAU?$__packedList_struct@PAX@@@Z 
01:00038964 ?close/1np$1@iterator@@SAXPAUclose/1np$1_struct@1/1@@Z 
01:00038994 ?close@iterator@@SGXQAV1@@XX@Z 
01:000389D8 ?close@iterator@@SGXQAV1@@X@Z 
01:000389E4 ?finalize$@iterator@@SGXQAV1@@X@Z 
01:00038A10 ?_new@iterator@@SAXQAVrTypeLibrary@TypeLibraries@RunTime@VIP@@PA$?_function_dt$1@core@@SAXPAX@Z$PAPAV1@@PAX@Z  (Idle)
01:00038A40 ?_new@iterator@@SAXQAVrTypeLibrary@TypeLibraries@RunTime@VIP@@PA$?_function_dt$1@core@@SAXPAX@Z$XPAPAV1@@PAX@Z  (Idle)
01:00038A74 ?_list@iterator@@SAXQAVrTypeLibrary@TypeLibraries@RunTime@VIP@@PAU?$__packedList_struct@X@@PAPAV1@@PAX@Z  (Idle)
01:00038AA4 ?_object_typelib_initializer$@iterator@@SGXQAV1@@XQAVrTypeLibrary@TypeLibraries@RunTime@VIP@@@Z 
01:00038ABC ?_object_facts_initializer$@iterator@@SGXQAV1@@X@Z 
01:00038ADC iterator{@Elem}?_initObject@@@QAGXQAV1@H@Z 
01:00038B10 ?@create_object@iterator@@SGQAV1@@XQAVrTypeLibrary@TypeLibraries@RunTime@VIP@@@Z 
01:00038B34 iterator{@Elem}?_InternalFinalizer@@@QAGXQAV1@@Z 
--- From 'obj\binary.248EF86D.obj'
01:00038B80 ?new$@outputStream_binary@@SAXQAV1@@@Z  (Idle)
01:00038BA8 ?setMode$@outputStream_binary@@SGXQAVstream@@@PAUmode_struct@2@@Z 
01:00038BE0 ?_getInputStream$@outputStream_binary@@SAXQAVoutputStreamSegmented@@@XPAPAVinputStream@@@@Z 
01:00038C08 ?_getBinary$@outputStream_binary@@SAXQAV1@@QAPAE@Z 
01:00038C58 ?_getMemory$@outputStream_binary@@SAXQAV1@@PAPAX@Z 
--- From 'obj\filesystem.5B0F823E.obj'
01:00038C78 ?_new@outputStream_binary@@SAXPAPAV1@@@Z 
--- From 'obj\binary.248EF86D.obj'
01:00038CA0 ?new$@inputStream_binary@@SAXQAV1@@QAE@Z  (Idle)
01:00038CC8 ?new_pointer$@inputStream_binary@@SAXQAV1@@PAXPBUbyteCount@core@@@Z  (Idle)
01:00038CF0 ?new_segmented$@inputStream_binary@@SAXQAV1@@PAUsegmented_struct@segmented@@QAE@Z 
01:00038D5C ?setMode$@inputStream_binary@@SGXQAVstream@@@PAUmode_struct@2@@Z 
01:00038D94 ?close$@inputStream_binary@@SGXQAVstream@@@@Z 
01:00038DA4 ?getPosition$@inputStream_binary@@SGPBUfileSize@fileSystem_api@@QAVstream@@@@Z 
01:00038DF8 ?setPosition$@inputStream_binary@@SGXQAVstream@@@PBUfileSize@fileSystem_api@@@Z 
01:00038E60 ?getBuffer$@inputStream_binary@@SGXQAVbufferSupport@@@PAPAXAAUbyteCount@core@@@Z 
01:00038E7C ?getBufferLocked$@inputStream_binary@@SGXQAVbufferSupport@@@PAPAXAAUbyteCount@core@@@Z 
01:00038F08 ?getCRLFconversion$@inputStream_binary@@SGPAUboolean_struct@_builtIn@@QAVstream@@@@Z 
01:00038F10 ?setCRLFconversion$@inputStream_binary@@SGXQAVstream@@@PAUboolean_struct@_builtIn@@@Z 
01:00038F38 ?_new@inputStream_binary@@SAXQAEPAPAVinputStream@@@@Z  (Idle)
01:00038F60 ?_new_pointer@inputStream_binary@@SAXPAXPBUbyteCount@core@@PAPAVinputStream@@@@Z  (Idle)
01:00038F8C ?_new_segmented@inputStream_binary@@SAXPAUsegmented_struct@3@QAEPAPAVinputStream@@@@Z 
01:00038FB4 ?_object_facts_initializer$@inputStream_binary@@SGXQAV1@@@Z 
01:00038FC8 ?raise_invalidCompressionFormat_explicit@binary_exception@@SAXPAUprogramPoint_struct@core@@QAE@Z  (Idle)
01:0003903C ?raise_internalDecodeError_explicit@binary_exception@@SAXPAUprogramPoint_struct@core@@QAE@Z  (Idle)
01:000390B0 ?raise_wrongBinaryFormat_explicit@binary_exception@@SAXPAUprogramPoint_struct@core@@QAE@Z  (Idle)
01:00039124 ?raise_wrongBinaryFormatNonAtomic_explicit@binary_exception@@SAXPAUprogramPoint_struct@core@@PBUbinaryNonAtomic@_builtIn@@@Z  (Idle)
01:00039198 ?_createNonAtomic@binary@@SAXPBUbyteCount@core@@AAUbinaryNonAtomic@_builtIn@@@Z  (Idle)
--- From 'obj\filesystem.5B0F823E.obj'
01:000391C8 ?_createAtomic@binary@@SAXPBUbyteCount@core@@QAPAE@Z 
--- From 'obj\binary.248EF86D.obj'
01:000391F8 ?_create@binary@@SAXPBUbyteCount@core@@PBUbyteOffset@3@PA$?_function$3@3@SAXPBU21@PBUcontext@memory@@PAPAX@Z$PBU67@PAPAX@Z 
01:00039274 ?_createNonAtomic@binary@@SAXPBUpositive@core@@PBUbyteCount@3@AAUbinaryNonAtomic@_builtIn@@@Z  (Idle)
01:00039294 ?_createAtomic@binary@@SAXPBUpositive@core@@PBUbyteCount@3@QAPAE@Z  (Idle)
01:000392B4 ?_createCopyNonAtomic@binary@@SAXPBUbinaryNonAtomic@_builtIn@@AAU23@@Z  (Idle)
01:000392F8 ?_createCopyAtomic@binary@@SAXQAEQAPAE@Z  (Idle)
01:0003933C ?_createNonAtomicFromPointer@binary@@SAXPAXPBUbyteCount@core@@AAUbinaryNonAtomic@_builtIn@@@Z 
01:0003936C ?_createAtomicFromPointer@binary@@SAXPAXPBUbyteCount@core@@QAPAE@Z 
01:0003939C ?_createAtomicFromIntegerList@binary@@SAXPAU?$__packedList_struct@H@@QAPAE@Z  (Idle)
--- From 'obj\exception.B6F320E8.obj'
01:000393F0 ?_getSize@binary@@SAXQAEAAUbyteCount@core@@@Z 
--- From 'obj\binary.248EF86D.obj'
01:0003940C ?_getBinaryHeaderPtr@binary@@SAXQAEPAPAX@Z  (Idle)
01:0003943C ?_resizeNonAtomic@binary@@SAXPBUbinaryNonAtomic@_builtIn@@PBUbyteCount@core@@AAU23@@Z  (Idle)
01:000394A0 ?_resizeAtomic@binary@@SAXQAEPBUbyteCount@core@@QAPAE@Z  (Idle)
01:00039504 ?fillResized@binary@@SAXPAXPBUbyteCount@core@@PAX1@Z 
01:0003956C ?_concatNonAtomic@binary@@SAXPBUbinaryNonAtomic@_builtIn@@0AAU23@@Z  (Idle)
01:000395F0 ?_concatAtomic@binary@@SAXQAEQAEQAPAE@Z 
01:00039674 ?fillConcat@binary@@SAXPAXPAXPBUbyteCount@core@@PAX2@Z 
01:000396A4 ?_insertAtomic@binary@@SAXQAEPBUbyteCount@core@@QAEQAPAE@Z  (Idle)
01:00039764 ?_insertNonAtomic@binary@@SAXPBUbinaryNonAtomic@_builtIn@@PBUbyteCount@core@@QAEAAU23@@Z  (Idle)
01:00039824 ?_deleteAtomic@binary@@SAXQAEPBUbyteCount@core@@1QAPAE@Z  (Idle)
01:000398A4 ?_deleteNonAtomic@binary@@SAXPBUbinaryNonAtomic@_builtIn@@PBUbyteCount@core@@1AAU23@@Z  (Idle)
01:00039924 ?_getIndexed_unsigned8@binary@@SAXQAEPBUpositive@core@@AAU43@@Z  (Idle)
--- From 'obj\exe_api.A246601B.obj'
01:00039950 ?_getIndexed_unsigned16@binary@@SAXQAEPBUpositive@core@@AAU43@@Z 
--- From 'obj\binary.248EF86D.obj'
01:00039980 ?_getIndexed_unsigned64@binary@@SAXQAEPBUpositive@core@@PAPA_K@Z  (Idle)
01:000399B8 ?_getIndexed_integer8@binary@@SAXQAEPBUpositive@core@@AAU43@@Z  (Idle)
01:000399E4 ?_getIndexed_integer16@binary@@SAXQAEPBUpositive@core@@AAU43@@Z  (Idle)
01:00039A14 ?_getIndexed_integer64@binary@@SAXQAEPBUpositive@core@@PAPA_J@Z  (Idle)
--- From 'obj\exception.B6F320E8.obj'
01:00039A4C ?_getIndexed_unsignedNative@binary@@SAXQAEPBUpositive@core@@AAU4_builtIn@@@Z 
--- From 'obj\binary.248EF86D.obj'
01:00039A78 ?_getIndexed_unsigned@binary@@SAXQAEPBUpositive@core@@PAI@Z  (Idle)
01:00039AA4 ?_getIndexed_integerNative@binary@@SAXQAEPBUpositive@core@@AAU4_builtIn@@@Z  (Idle)
01:00039AD0 ?_getIndexed_integer@binary@@SAXQAEPBUpositive@core@@PAH@Z  (Idle)
01:00039AFC ?_getIndexed_real32@binary@@SAXQAEPBUpositive@core@@PAM@Z  (Idle)
01:00039B2C ?_getIndexed_real@binary@@SAXQAEPBUpositive@core@@PAPAN@Z  (Idle)
01:00039B64 ?_getIndexed_pointer@binary@@SAXPBUbinaryNonAtomic@_builtIn@@PBUpositive@core@@PAPAX@Z  (Idle)
01:00039B90 ?_getIndexed_object@binary@@SAXPBUbinaryNonAtomic@_builtIn@@PBUpositive@core@@PAPAV6@@@Z  (Idle)
01:00039BB4 ?_getIndexed_string@binary@@SAXPBUbinaryNonAtomic@_builtIn@@PBUpositive@core@@PAPB_W@Z  (Idle)
01:00039BD8 ?setIndexed_unsigned8@binary@@SAXQAEPBUpositive@core@@PBU43@@Z  (Idle)
01:00039C04 ?setIndexed_unsigned16@binary@@SAXQAEPBUpositive@core@@PBU43@@Z  (Idle)
01:00039C34 ?setIndexed_unsigned64@binary@@SAXQAEPBUpositive@core@@PA_K@Z  (Idle)
01:00039C64 ?setIndexed_integer8@binary@@SAXQAEPBUpositive@core@@PBU43@@Z  (Idle)
01:00039C90 ?setIndexed_integer16@binary@@SAXQAEPBUpositive@core@@PBU43@@Z  (Idle)
01:00039CC0 ?setIndexed_integer64@binary@@SAXQAEPBUpositive@core@@PA_J@Z  (Idle)
01:00039CF0 ?setIndexed_integerNative@binary@@SAXQAEPBUpositive@core@@PBU4_builtIn@@@Z  (Idle)
01:00039D1C ?setIndexed_integer@binary@@SAXQAEPBUpositive@core@@H@Z  (Idle)
01:00039D48 ?setIndexed_unsignedNative@binary@@SAXQAEPBUpositive@core@@PBU4_builtIn@@@Z  (Idle)
01:00039D74 ?setIndexed_unsigned@binary@@SAXQAEPBUpositive@core@@I@Z  (Idle)
01:00039DA0 ?setIndexed_real32@binary@@SAXQAEPBUpositive@core@@M@Z  (Idle)
01:00039DE4 ?setIndexed_real@binary@@SAXQAEPBUpositive@core@@PAN@Z  (Idle)
01:00039E1C ?setIndexed_pointer@binary@@SAXPBUbinaryNonAtomic@_builtIn@@PBUpositive@core@@PAX@Z  (Idle)
01:00039E48 ?setIndexed_object@binary@@SAXPBUbinaryNonAtomic@_builtIn@@PBUpositive@core@@QAV6@@@Z  (Idle)
01:00039E58 ?setIndexed_string@binary@@SAXPBUbinaryNonAtomic@_builtIn@@PBUpositive@core@@PB_W@Z  (Idle)
01:00039E68 ?_getIndexPointer@binary@@SAXQAEPBUpositive@core@@PBUbyteCount@3@PAPAX@Z 
01:00039EAC ?_getBinaryNonAtomic@binary@@SAXPBUbinaryNonAtomic@_builtIn@@PBUbyteCount@core@@1AAU23@@Z  (Idle)
01:00039F28 ?_getBinaryAtomic@binary@@SAXQAEPBUbyteCount@core@@1QAPAE@Z 
01:00039FA4 ?setBinary@binary@@SAXQAEPBUbyteCount@core@@QAE@Z  (Idle)
01:0003A01C ?setValue@binary@@SAXQAEPBUbyteCount@core@@PAUvalue_struct@3@@Z  (Idle)
01:0003A568 $getValue$binary_class$predicate$(i,i,unsigned64(o))$b$_c86  (Idle)
01:0003A5C0 ?_getString@binary@@SAXPAXPBUcharCount@core@@PAPB_W@Z  (Idle)
01:0003A6B0 ?checkOffsetForSetGetValue@binary@@SAXQAEPBUbyteCount@core@@1@Z 
01:0003A6EC ?fillFromIntegerList@binary@@SAXPAXPAU?$__packedList_struct@H@@@Z 
01:0003A744 ?copyTailIfNeeded@binary@@SAXQAEPBUbyteCount@core@@1QAE1@Z 
01:0003A7A4 ?splitBinaryNonAtomic@binary@@SAXPBUbinaryNonAtomic@_builtIn@@PBUbyteCount@core@@AAU23@2@Z  (Idle)
01:0003A7E4 ?splitBinaryAtomic@binary@@SAXQAEPBUbyteCount@core@@QAPAE2@Z  (Idle)
01:0003A824 ?_binaryToStringList@binary@@SAXQAEPAPAU?$__packedList_struct@PAPB_W@@@Z  (Idle)
01:0003A860 ?_getStringList@binary@@SAXPAXPBUbyteCount@core@@PAPAU?$__packedList_struct@PAPB_W@@@Z 
01:0003A9B8 ?_search@binary@@SAXQAEQAEAAUbyteCount@core@@@Z  (Idle)
01:0003AA0C ?_binary8ToStringList@binary@@SAXQAEPBUcodePage@core@@PAPAU?$__packedList_struct@PAPB_W@@@Z  (Idle)
01:0003AA54 ?_getStringListForBinary8@binary@@SAXPAXPBUbyteCount@core@@PBUcodePage@3@PAPAU?$__packedList_struct@PAPB_W@@@Z 
01:0003AB90 binaryIsAtomicExpectedNonAtomic 
01:0003ABBC doNothing 
01:0003ABC4 ?_getSize@binary@@SAXPBUbinaryNonAtomic@_builtIn@@AAUbyteCount@core@@@Z 
01:0003ABE0 ?_getBinaryHeaderPtr@binary@@SAXPBUbinaryNonAtomic@_builtIn@@PAPAX@Z  (Idle)
01:0003AC10 ?_insertNonAtomic@binary@@SAXPBUbinaryNonAtomic@_builtIn@@PBUbyteCount@core@@0AAU23@@Z  (Idle)
01:0003ACCC ?_getIndexed_unsigned8@binary@@SAXPBUbinaryNonAtomic@_builtIn@@PBUpositive@core@@AAU65@@Z  (Idle)
01:0003ACF8 ?_getIndexed_unsigned16@binary@@SAXPBUbinaryNonAtomic@_builtIn@@PBUpositive@core@@AAU65@@Z  (Idle)
01:0003AD28 ?_getIndexed_unsigned64@binary@@SAXPBUbinaryNonAtomic@_builtIn@@PBUpositive@core@@PAPA_K@Z  (Idle)
01:0003AD60 ?_getIndexed_integer8@binary@@SAXPBUbinaryNonAtomic@_builtIn@@PBUpositive@core@@AAU65@@Z  (Idle)
01:0003AD8C ?_getIndexed_integer16@binary@@SAXPBUbinaryNonAtomic@_builtIn@@PBUpositive@core@@AAU65@@Z  (Idle)
01:0003ADBC ?_getIndexed_integer64@binary@@SAXPBUbinaryNonAtomic@_builtIn@@PBUpositive@core@@PAPA_J@Z  (Idle)
01:0003ADF4 ?_getIndexed_unsignedNative@binary@@SAXPBUbinaryNonAtomic@_builtIn@@PBUpositive@core@@AAU63@@Z  (Idle)
01:0003AE20 ?_getIndexed_unsigned@binary@@SAXPBUbinaryNonAtomic@_builtIn@@PBUpositive@core@@PAI@Z  (Idle)
01:0003AE4C ?_getIndexed_integerNative@binary@@SAXPBUbinaryNonAtomic@_builtIn@@PBUpositive@core@@AAU63@@Z  (Idle)
01:0003AE78 ?_getIndexed_integer@binary@@SAXPBUbinaryNonAtomic@_builtIn@@PBUpositive@core@@PAH@Z  (Idle)
01:0003AEA4 ?_getIndexed_real32@binary@@SAXPBUbinaryNonAtomic@_builtIn@@PBUpositive@core@@PAM@Z  (Idle)
01:0003AED4 ?_getIndexed_real@binary@@SAXPBUbinaryNonAtomic@_builtIn@@PBUpositive@core@@PAPAN@Z  (Idle)
01:0003AF0C ?setIndexed_unsigned8@binary@@SAXPBUbinaryNonAtomic@_builtIn@@PBUpositive@core@@PBU65@@Z  (Idle)
01:0003AF38 ?setIndexed_unsigned16@binary@@SAXPBUbinaryNonAtomic@_builtIn@@PBUpositive@core@@PBU65@@Z  (Idle)
01:0003AF68 ?setIndexed_unsigned64@binary@@SAXPBUbinaryNonAtomic@_builtIn@@PBUpositive@core@@PA_K@Z  (Idle)
01:0003AF98 ?setIndexed_integer8@binary@@SAXPBUbinaryNonAtomic@_builtIn@@PBUpositive@core@@PBU65@@Z  (Idle)
01:0003AFC4 ?setIndexed_integer16@binary@@SAXPBUbinaryNonAtomic@_builtIn@@PBUpositive@core@@PBU65@@Z  (Idle)
01:0003AFF4 ?setIndexed_integer64@binary@@SAXPBUbinaryNonAtomic@_builtIn@@PBUpositive@core@@PA_J@Z  (Idle)
01:0003B024 ?setIndexed_integerNative@binary@@SAXPBUbinaryNonAtomic@_builtIn@@PBUpositive@core@@PBU63@@Z  (Idle)
01:0003B050 ?setIndexed_integer@binary@@SAXPBUbinaryNonAtomic@_builtIn@@PBUpositive@core@@H@Z  (Idle)
01:0003B07C ?setIndexed_unsignedNative@binary@@SAXPBUbinaryNonAtomic@_builtIn@@PBUpositive@core@@PBU63@@Z  (Idle)
01:0003B0A8 ?setIndexed_unsigned@binary@@SAXPBUbinaryNonAtomic@_builtIn@@PBUpositive@core@@I@Z  (Idle)
01:0003B0D4 ?setIndexed_real32@binary@@SAXPBUbinaryNonAtomic@_builtIn@@PBUpositive@core@@M@Z  (Idle)
01:0003B118 ?setIndexed_real@binary@@SAXPBUbinaryNonAtomic@_builtIn@@PBUpositive@core@@PAN@Z  (Idle)
01:0003B150 ?_getIndexPointer@binary@@SAXPBUbinaryNonAtomic@_builtIn@@PBUpositive@core@@PBUbyteCount@5@PAPAX@Z 
01:0003B194 ?setBinary@binary@@SAXPBUbinaryNonAtomic@_builtIn@@PBUbyteCount@core@@QAE@Z  (Idle)
01:0003B20C ?setBinary@binary@@SAXPBUbinaryNonAtomic@_builtIn@@PBUbyteCount@core@@0@Z  (Idle)
01:0003B284 ?setValue@binary@@SAXPBUbinaryNonAtomic@_builtIn@@PBUbyteCount@core@@PAUvalue_struct@5@@Z  (Idle)
01:0003B7D0 $getValue$binary_class$predicate$(i,i,unsigned(o))$b$_c87  (Idle)
01:0003B814 $getValue$binary_class$predicate$(i,i,integer64(o))$b$_c88  (Idle)
--- From 'obj\exe_api.A246601B.obj'
01:0003B86C $getValue$binary_class$predicate$(i,i,integer(o))$b$_c89 
--- From 'obj\binary.248EF86D.obj'
01:0003B8B0 $getValue$binary_class$predicate$(i,i,real(o))$b$_c90  (Idle)
01:0003B908 $getValue$binary_class$predicate$(i,i,char(o))$b$_c91  (Idle)
01:0003B950 $getValue$binary_class$predicate$(i,i,string(o))$b$_c92  (Idle)
01:0003B9C0 $getValue$binary_class$predicate$(i,i,localtimevalue(o))$b$_c93  (Idle)
01:0003BA18 $getValue$binary_class$predicate$(i,i,gmttimevalue(o))$b$_c94  (Idle)
01:0003BA70 $getValue$binary_class$predicate$(i,i,unsigned64(o))$b$_c95  (Idle)
01:0003BAC8 $getValue$binary_class$predicate$(i,i,unsigned(o))$b$_c96  (Idle)
01:0003BB0C $getValue$binary_class$predicate$(i,i,integer64(o))$b$_c97  (Idle)
01:0003BB64 $getValue$binary_class$predicate$(i,i,integer(o))$b$_c98  (Idle)
01:0003BBA8 $getValue$binary_class$predicate$(i,i,real(o))$b$_c99  (Idle)
01:0003BC00 $getValue$binary_class$predicate$(i,i,pointer(o))$b$_c100  (Idle)
01:0003BC44 $getValue$binary_class$predicate$(i,i,object(o))$b$_c101  (Idle)
01:0003BC88 $getValue$binary_class$predicate$(i,i,char(o))$b$_c102  (Idle)
01:0003BCD0 $getValue$binary_class$predicate$(i,i,string(o))$b$_c103  (Idle)
01:0003BD40 $getValue$binary_class$predicate$(i,i,localtimevalue(o))$b$_c104  (Idle)
01:0003BD98 $getValue$binary_class$predicate$(i,i,gmttimevalue(o))$b$_c105  (Idle)
01:0003BDF0 ?checkOffsetForSetGetValue@binary@@SAXPBUbinaryNonAtomic@_builtIn@@PBUbyteCount@core@@1@Z 
01:0003BE2C ?copyTailIfNeeded@binary@@SAXPBUbinaryNonAtomic@_builtIn@@PBUbyteCount@core@@101@Z 
01:0003C2D0 outputStream_binary?_initObject@@@QAGXQAV1@H@Z 
01:0003C300 ?@create_object@outputStream_binary@@SGQAV1@@XZ 
01:0003C31C outputStream_binary?_InternalFinalizer@@@QAGXQAV1@@Z 
01:0003C5C8 inputStream_binary?_initObject@@@QAGXQAV1@H@Z 
01:0003C600 ?@create_object@inputStream_binary@@SGQAV1@@XZ 
01:0003C61C inputStream_binary?_InternalFinalizer@@@QAGXQAV1@@Z 
--- From 'obj\filesystem.5B0F823E.obj'
01:0003C630 ?create_explicit$@outputStream_file@@SAXQAV1@@PAUprogramPoint_struct@core@@PB_WPAUmode_struct@stream@@PAUaccessPermit_struct@fileSystem_api@@PAU?$__packedList_struct@PAUfileAttributeAtom_struct@8@@@PBUbyteCount@4@@Z  (Idle)
01:0003C680 ?create8_explicit$@outputStream_file@@SAXQAV1@@PAUprogramPoint_struct@core@@PB_WPAUaccessPermit_struct@fileSystem_api@@@Z  (Idle)
01:0003C6B0 ?createUtf8_explicit$@outputStream_file@@SAXQAV1@@PAUprogramPoint_struct@core@@PB_WPAUaccessPermit_struct@fileSystem_api@@@Z  (Idle)
01:0003C6E4 ?createUtf8_bom_explicit$@outputStream_file@@SAXQAV1@@PAUprogramPoint_struct@core@@PB_WPAUaccessPermit_struct@fileSystem_api@@@Z  (Idle)
01:0003C7C0 ?commonPartOfConstructors$@outputStream_file@@SAXQAV1@@PAUprogramPoint_struct@core@@PB_WPBUfileHandle@4@PAUmode_struct@stream@@PBUbyteCount@4@@Z 
01:0003C814 ?handleMode_create$@outputStream_file@@SAXQAV1@@PAUmode_struct@stream@@@Z 
01:0003C864 ?openFile8_explicit$@outputStream_file@@SAXQAV1@@PAUprogramPoint_struct@core@@PB_WPAUaccessPermit_struct@fileSystem_api@@@Z  (Idle)
01:0003C88C ?openFileUtf8_explicit$@outputStream_file@@SAXQAV1@@PAUprogramPoint_struct@core@@PB_WPAUaccessPermit_struct@fileSystem_api@@@Z  (Idle)
01:0003C8B4 ?openFile_explicit$@outputStream_file@@SAXQAV1@@PAUprogramPoint_struct@core@@PB_WPAUmode_struct@stream@@PAUaccessPermit_struct@fileSystem_api@@@Z 
01:0003C904 ?append8_explicit$@outputStream_file@@SAXQAV1@@PAUprogramPoint_struct@core@@PB_WPAUaccessPermit_struct@fileSystem_api@@@Z  (Idle)
01:0003C92C ?appendUtf8_explicit$@outputStream_file@@SAXQAV1@@PAUprogramPoint_struct@core@@PB_WPAUaccessPermit_struct@fileSystem_api@@@Z  (Idle)
01:0003C954 ?append_explicit$@outputStream_file@@SAXQAV1@@PAUprogramPoint_struct@core@@PB_WPAUmode_struct@stream@@PAUaccessPermit_struct@fileSystem_api@@@Z 
01:0003C9B8 ?newHandleFile_explicit$@outputStream_file@@SAXQAV1@@PAUprogramPoint_struct@core@@PBUfileHandle@4@PAUmode_struct@stream@@PB_W@Z  (Idle)
01:0003CA04 ?newHandle_explicit$@outputStream_file@@SAXQAV1@@PAUprogramPoint_struct@core@@PBUfileHandle@4@PAUmode_struct@stream@@PBUbyteCount@4@PB_W@Z  (Idle)
01:0003CA34 ?skipUnicodeSignature$@outputStream_file@@SAXQAV1@@PAUmode_struct@stream@@@Z 
01:0003CA88 ?skip$@outputStream_file@@SAXQAV1@@HPBUbyteCount@core@@@Z 
01:0003CAF4 ?doFlush$@outputStream_file@@SAXQAVoutputStreamSupportSite@@@@Z 
01:0003CB04 ?getCRLFconversion$@outputStream_file@@SGPAUboolean_struct@_builtIn@@QAVstream@@@@Z 
01:0003CB34 ?setCRLFconversion$@outputStream_file@@SGXQAVstream@@@PAUboolean_struct@_builtIn@@@Z 
01:0003CB98 ?getPosition$@outputStream_file@@SGPBUfileSize@fileSystem_api@@QAVstream@@@@Z 
01:0003CC41 ?setPosition$@outputStream_file@@SGXQAVstream@@@PBUfileSize@fileSystem_api@@@Z 
01:0003CD20 ?_checkMovingIsInsideBuffer$@outputStream_file@@SAXQAV1@@PAPBUfileSize@fileSystem_api@@1PBUbyteCount@core@@AAU78@@Z 
01:0003CE40 ?setMaxOffsetUsedInCurrentBuffer$@outputStream_file@@SAXQAV1@@PBUbyteCount@core@@@Z 
01:0003CE60 ?close$@outputStream_file@@SGXQAVstream@@@@Z 
01:0003CEEC ?flush$@outputStream_file@@SAXQAVoutputStream@@@@Z 
01:0003CF10 ?bufferFullCallBack$@outputStream_file@@SAXQAV1@@PBUbyteCount@core@@@Z  (Idle)
01:0003CF84 ?convertLFtoCRLF_IfNeeded$@outputStream_file@@SAXQAV1@@PAXPBUbyteCount@core@@PAPAXAAU34@@Z 
01:0003CFDC ?convertToANSI_IfNeeded$@outputStream_file@@SAXQAV1@@PAXPBUbyteCount@core@@PAPAXAAU34@@Z 
01:0003D064 ?getBuffer$@outputStream_file@@SGXQAVoutputStreamSupportSite@@@PAPAXAAUbyteCount@core@@@Z 
01:0003D0C0 ?finalize$@outputStream_file@@SGXQAV1@@@Z 
01:0003D178 ?_create_explicit@outputStream_file@@SAXPAUprogramPoint_struct@core@@PB_WPAUmode_struct@stream@@PAUaccessPermit_struct@fileSystem_api@@PAU?$__packedList_struct@PAUfileAttributeAtom_struct@7@@@PBUbyteCount@3@PAPAVoutputStream@@@@Z 
01:0003D1B0 ?_create8_explicit@outputStream_file@@SAXPAUprogramPoint_struct@core@@PB_WPAUaccessPermit_struct@fileSystem_api@@PAPAVoutputStream@@@@Z  (Idle)
01:0003D1E0 ?_createUtf8_explicit@outputStream_file@@SAXPAUprogramPoint_struct@core@@PB_WPAUaccessPermit_struct@fileSystem_api@@PAPAVoutputStream@@@@Z  (Idle)
01:0003D210 ?_createUtf8_bom_explicit@outputStream_file@@SAXPAUprogramPoint_struct@core@@PB_WPAUaccessPermit_struct@fileSystem_api@@PAPAVoutputStream@@@@Z  (Idle)
01:0003D240 ?_openFile_explicit@outputStream_file@@SAXPAUprogramPoint_struct@core@@PB_WPAUmode_struct@stream@@PAUaccessPermit_struct@fileSystem_api@@PAPAVoutputStream@@@@Z  (Idle)
01:0003D274 ?_openFile8_explicit@outputStream_file@@SAXPAUprogramPoint_struct@core@@PB_WPAUaccessPermit_struct@fileSystem_api@@PAPAVoutputStream@@@@Z  (Idle)
01:0003D2A4 ?_openFileUtf8_explicit@outputStream_file@@SAXPAUprogramPoint_struct@core@@PB_WPAUaccessPermit_struct@fileSystem_api@@PAPAVoutputStream@@@@Z  (Idle)
01:0003D2D4 ?_append_explicit@outputStream_file@@SAXPAUprogramPoint_struct@core@@PB_WPAUmode_struct@stream@@PAUaccessPermit_struct@fileSystem_api@@PAPAVoutputStream@@@@Z  (Idle)
01:0003D308 ?_append8_explicit@outputStream_file@@SAXPAUprogramPoint_struct@core@@PB_WPAUaccessPermit_struct@fileSystem_api@@PAPAVoutputStream@@@@Z  (Idle)
01:0003D338 ?_appendUtf8_explicit@outputStream_file@@SAXPAUprogramPoint_struct@core@@PB_WPAUaccessPermit_struct@fileSystem_api@@PAPAVoutputStream@@@@Z  (Idle)
01:0003D368 ?_newHandleFile_explicit@outputStream_file@@SAXPAUprogramPoint_struct@core@@PBUfileHandle@3@PAUmode_struct@stream@@PB_WPAPAVoutputStream@@@@Z  (Idle)
01:0003D39C ?_newHandle_explicit@outputStream_file@@SAXPAUprogramPoint_struct@core@@PBUfileHandle@3@PAUmode_struct@stream@@PBUbyteCount@3@PB_WPAPAVoutputStream@@@@Z  (Idle)
01:0003D3D0 ?_object_facts_initializer$@outputStream_file@@SGXQAV1@@@Z 
01:0003D3F4 ?append$@messageFile@@SAXQAV1@@PB_W@Z  (Idle)
01:0003D40C ?append$@messageFile@@SAXQAV1@@PB_WPAUmode_struct@stream@@@Z 
01:0003D424 ?flush$@messageFile@@SAXQAVoutputStream@@@@Z 
01:0003D42C ?write/0ep$1@messageFile@@SAXPAUwrite/0ep$1_struct@1@QAVoutputStream@@@@Z 
01:0003D458 ?write$@messageFile@@SAXQAVoutputStream@@@@Z 
01:0003D4F0 ?writef/1ep$1@messageFile@@SAXPAUwritef/1ep$1_struct@1@QAVoutputStream@@@@Z 
01:0003D528 ?writef$@messageFile@@SAXQAVoutputStream@@@PB_W@Z 
01:0003D5C8 ?writequoted/0ep$1@messageFile@@SAXPAUwritequoted/0ep$1_struct@1@QAVoutputStream@@@@Z 
01:0003D5F4 ?writeQuoted$@messageFile@@SAXQAVoutputStream@@@@Z 
01:0003D68C ?nl/0np$1@messageFile@@SAXQAVoutputStream@@@@Z 
01:0003D69C ?nl$@messageFile@@SAXQAVoutputStream@@@@Z 
01:0003D6B8 ?writebytes/2np$1@messageFile@@SAXPAUwritebytes/2np$1_struct@1@QAVoutputStream@@@@Z 
01:0003D6F0 ?writeBytes$@messageFile@@SAXQAVoutputStream@@@PAXPBUbyteCount@core@@@Z 
01:0003D72C ?save/1np$1@messageFile@@SAXPAUsave/1np$1_struct@1@QAVoutputStream@@@@Z 
01:0003D750 ?save$@messageFile@@SAXQAVoutputStream@@@PBUfactDB@_builtIn@@@Z 
01:0003D788 ?writeOperation$@messageFile@@SAXQAV1@@X@Z 
01:0003D82C ?setMode$@messageFile@@SGXQAVstream@@@PAUmode_struct@2@@Z 
01:0003D844 ?getMode$@messageFile@@SGPAUmode_struct@stream@@QAV3@@@Z 
01:0003D850 ?getCRLFconversion$@messageFile@@SGPAUboolean_struct@_builtIn@@QAVstream@@@@Z 
01:0003D858 ?setCRLFconversion$@messageFile@@SGXQAVstream@@@PAUboolean_struct@_builtIn@@@Z 
01:0003D880 ?close$@messageFile@@SGXQAVstream@@@@Z 
01:0003D890 ?getPosition$@messageFile@@SGPBUfileSize@fileSystem_api@@QAVstream@@@@Z 
01:0003D8A8 ?setPosition$@messageFile@@SGXQAVstream@@@PBUfileSize@fileSystem_api@@@Z 
01:0003D8C0 ?present/0ep$1@messageFile@@SAXPAUpresent/0ep$1_struct@1@QAVoutputStream@@@@Z 
01:0003D8EC ?present$@messageFile@@SAXQAVoutputStream@@@@Z 
01:0003D984 ?streamFromInputBuffer$@messageFile@@SAXQAVoutputStream@@@QAVinputBuffer@@@@Z 
01:0003D99C ?_append@messageFile@@SAXPB_WPAPAVoutputStream@@@@Z  (Idle)
01:0003D9C4 ?_append@messageFile@@SAXPB_WPAUmode_struct@stream@@PAPAVoutputStream@@@@Z  (Idle)
01:0003D9F0 ?_object_facts_initializer$@messageFile@@SGXQAV1@@@Z 
01:0003DA08 ?allowNullPointers@messageFile@@SGXQAVstream@@@PAUboolean_struct@_builtIn@@@Z 
01:0003DA18 ?allowNullPointers@messageFile@@SGPAUboolean_struct@_builtIn@@QAVstream@@@@Z 
01:0003DA24 ?openFile8$@inputStream_file@@SAXQAV1@@PB_W@Z  (Idle)
01:0003DA50 ?openFileUtf8$@inputStream_file@@SAXQAV1@@PB_W@Z  (Idle)
01:0003DA7C ?openFile$@inputStream_file@@SAXQAV1@@PB_WPAUmode_struct@stream@@PAUaccessPermit_struct@fileSystem_api@@PBUbyteCount@core@@@Z 
01:0003DAC4 ?openFileBom$@inputStream_file@@SAXQAV1@@PB_WPAUaccessPermit_struct@fileSystem_api@@@Z  (Idle)
01:0003DAFC ?checkBom$@inputStream_file@@SAXQAV1@@@Z 
01:0003DBF8 ?newHandle$@inputStream_file@@SAXQAV1@@PBUfileHandle@core@@PAUmode_struct@stream@@@Z  (Idle)
01:0003DC18 ?newBlockedPipe$@inputStream_file@@SAXQAV1@@PBUfileHandle@core@@PAUmode_struct@stream@@@Z  (Idle)
01:0003DC38 ?newHandleFile$@inputStream_file@@SAXQAV1@@PBUfileHandle@core@@PAUmode_struct@stream@@@Z  (Idle)
01:0003DC70 ?commonPartOfConstructors$@inputStream_file@@SAXQAV1@@PBUfileHandle@core@@PAUmode_struct@stream@@PAUboolean_struct@_builtIn@@PBUbyteCount@4@@Z 
01:0003DCDC ?skipUnicodeSignature$@inputStream_file@@SAXQAV1@@PAUmode_struct@stream@@@Z 
01:0003DD30 ?skip$@inputStream_file@@SAXQAV1@@HPBUbyteCount@core@@@Z 
01:0003DD9C ?checkBufferSize@inputStream_file@@SAXPBUbyteCount@core@@@Z 
01:0003DDF0 ?_readBuffer_site$@inputStream_file@@SAXQAVinputSupportSite_mode@@@PAXPBUbyteCount@core@@AAU34@@Z 
01:0003DE30 ?tryClose_site$@inputStream_file@@SAXQAVinputSupportSite_mode@@@@Z 
01:0003DE6C ?setPosition_site$@inputStream_file@@SAXQAVinputSupportSite_mode@@@PAPBUfileSize@fileSystem_api@@@Z 
01:0003DE90 ?_getPosition_site$@inputStream_file@@SAXQAVinputSupportSite_mode@@@PAAAUfileSize@fileSystem_api@@@Z 
--- From 'obj\exe_api.A246601B.obj'
01:0003DEC4 ?_openFile@inputStream_file@@SAXPB_WPAUmode_struct@stream@@PAUaccessPermit_struct@fileSystem_api@@PBUbyteCount@core@@PAPAVinputStream@@@@Z 
--- From 'obj\filesystem.5B0F823E.obj'
01:0003DEF8 ?_openFile8@inputStream_file@@SAXPB_WPAPAVinputStream@@@@Z  (Idle)
01:0003DF20 ?_openFileUtf8@inputStream_file@@SAXPB_WPAPAVinputStream@@@@Z  (Idle)
01:0003DF48 ?_openFileBom@inputStream_file@@SAXPB_WPAUaccessPermit_struct@fileSystem_api@@PAPAVinputStream@@@@Z  (Idle)
01:0003DF74 ?_newHandleFile@inputStream_file@@SAXPBUfileHandle@core@@PAUmode_struct@stream@@PAPAVinputStream@@@@Z  (Idle)
01:0003DFA0 ?_newHandle@inputStream_file@@SAXPBUfileHandle@core@@PAUmode_struct@stream@@PAPAVinputStream@@@@Z  (Idle)
01:0003DFCC ?_newBlockedPipe@inputStream_file@@SAXPBUfileHandle@core@@PAUmode_struct@stream@@PAPAVinputStream@@@@Z  (Idle)
01:0003DFF8 ?_object_facts_initializer$@inputStream_file@@SGXQAV1@@@Z 
01:0003E010 ?_tryVerQueryValue@fileVersion@@SAXQAEPB_WPAPAX@Z  (Idle)
01:0003E058 ?_getFileVersionInformation@fileVersion@@SAXQAEPB_W1PAPB_W@Z  (Idle)
01:0003E0F0 ?_loadVersionInfo@fileVersion@@SAXPB_WQAPAE@Z  (Idle)
01:0003E1B0 ?_tryLoadVersionInfo@fileVersion@@SAXPB_WQAPAE@Z 
01:0003E200 ?_getLanguageAndCodePageKey@fileVersion@@SAXQAEPAPB_W@Z  (Idle)
--- From 'obj\commandlineparser.67E728BA.obj'
01:0003E28C ?_getVersionInfo@fileVersion@@SAXPB_WPAPAUversionInformation_struct@1@@Z 
--- From 'obj\filesystem.5B0F823E.obj'
01:0003E35C ?_getVersionBuildTime@fileVersion@@SAXPB_WPAPB_W@Z  (Idle)
01:0003E3B4 ?_getProductVersion@fileVersion@@SAXPB_WPAPA_K@Z  (Idle)
01:0003E418 ?_getRootKey@fileVersion@@SAXQAEPAPAUvs_fixedfileinfo_struct@1@@Z 
01:0003E464 ?_getFileVersionInfo@fileVersion@@SAXPB_WPAPAUfileVersionInformation_struct@1@@Z  (Idle)
01:0003E55C ?_tryGetFileVersionInfo@fileVersion@@SAXPB_WPAPAUfileVersionInformation_struct@1@@Z  (Idle)
01:0003E660 ?_getProductVersionInfo@fileVersion@@SAXPB_WPAPAUfileVersionInformation_struct@1@@Z  (Idle)
01:0003E744 ?raise_fileAlreadyExists_explicit@fileSystem_exception@@SAXPAUprogramPoint_struct@core@@PB_W@Z  (Idle)
01:0003E7B8 ?raise_wrongAttribute_explicit@fileSystem_exception@@SAXPAUprogramPoint_struct@core@@I@Z  (Idle)
01:0003E82C ?raise_fileTooBig_explicit@fileSystem_exception@@SAXPAUprogramPoint_struct@core@@PB_W@Z  (Idle)
01:0003E8A0 ?checkFileReadResult_explicit@fileSystem_exception@@SAXPAUprogramPoint_struct@core@@H@Z  (Idle)
01:0003E8D8 ?_getPath@filename@@SAXPB_WPAPB_W@Z  (Idle)
01:0003E8F8 ?_getPosLastSlash@filename@@SAXPB_WAAUcharCount@core@@@Z  (Idle)
01:0003E960 ?_getNameWithExtension@filename@@SAXPB_WPAPB_W@Z  (Idle)
01:0003E990 ?getPathAndName@filename@@SAXPB_WPAPB_W1@Z 
01:0003E9D8 ?_getName1@filename@@SAXPB_WPAPB_W@Z  (Idle)
01:0003EA0C ?_getLastDirectory@filename@@SAXPB_WPAPB_W1@Z  (Idle)
01:0003EA64 ?_removeLastSlash@filename@@SAXPB_WPAPB_W@Z 
01:0003EADC ?_getName@filename@@SAXPB_WPAPB_W@Z  (Idle)
01:0003EB04 ?_charGet@filename@@SAXPB_WPBUcharCountOptional@core@@AAU23@@Z  (Idle)
01:0003EB74 ?_getExtension@filename@@SAXPB_WPAPB_W@Z  (Idle)
01:0003EBC8 ?_getExtension@filename@@SAXPB_WPAPB_W1@Z  (Idle)
01:0003EC40 ?_setPath@filename@@SAXPB_W0PAPB_W@Z  (Idle)
01:0003EC6C ?_setName@filename@@SAXPB_W0PAPB_W@Z  (Idle)
01:0003ECC8 ?_setExtension@filename@@SAXPB_W0PAPB_W@Z  (Idle)
01:0003EDCC ?_reduce@filename@@SAXPB_W0PAPB_W@Z  (Idle)
01:0003EEDC ?_reduceToShort@filename@@SAXPB_W0PAPB_W@Z  (Idle)
01:0003EF24 ?getFirstDirectory@filename@@SAXPB_WPAPB_W1@Z 
01:0003F008 ?getNetName@filename@@SAXPB_W0PAPB_W2@Z 
01:0003F060 ?_setTrailSlash@filename@@SAXPB_WPAPB_W@Z 
01:0003F0AC ?_getSlashList@filename@@SAXPB_W_WPBUcharCount@core@@PAPAU?$__packedList_struct@AAU23@@@@Z  (Idle)
01:0003F140 ?_tail@filename@@SAXPB_WPBUcharCount@core@@PAPB_W@Z 
01:0003F160 ?_getOrderedList@filename@@SAXPAU?$__packedList_struct@PBUcharCount@core@@@@0PAPAU?$__packedList_struct@AAU23@@@@Z  (Idle)
01:0003F20C ?splitPathString@filename@@SAXPB_WPAU?$__packedList_struct@PBUcharCount@core@@@@PBU23@PAPAU?$__packedList_struct@PAPB_W@@AAU23@@Z  (Idle)
01:0003F29C ?splitOntoPathAndName@filename@@SAXPB_WPAPAU?$__packedList_struct@PAPB_W@@PAPB_W@Z 
01:0003F350 ?_splitFileExt@filename@@SAXPB_WPAPB_W@Z 
01:0003F38C ?_splitFilename@filename@@SAXPB_WPAPB_W@Z 
01:0003F3D8 ?_directoryCompare@filename@@SAXPAU?$__packedList_struct@PB_W@@PAU?$__packedList_struct@0@@PAPB_W@Z 
01:0003F444 ?_glueRest@filename@@SAXPAU?$__packedList_struct@PB_W@@PAU?$__packedList_struct@0@@PAPB_W@Z 
01:0003F490 ?splitPath@filename@@SAXPB_WPAPAU?$__packedList_struct@PAPB_W@@AAUcharCount@core@@@Z 
01:0003F500 ?_nameConcat@filename@@SAXPB_W00PAPB_W@Z 
01:0003F594 ?_createPath@filename@@SAXPB_W0PAPB_W@Z  (Idle)
01:0003F604 ?_reducePath@filename@@SAXPB_WPAPB_W@Z  (Idle)
01:0003F684 ?_createPath@filename@@SAX_WPB_W11PAPB_W@Z 
01:0003F744 ?_concatWithSlash@filename@@SAXPB_W0PAPB_W@Z 
01:0003F7D8 ?_getTypeOfSlash@filename@@SAXPB_W0PAPB_W@Z 
01:0003F87C ?isSlash@filename@@SAX_W@Z 
01:0003F89C ?_checkSecondCharAfterSlash@filename@@SAXPB_W00PAPB_W@Z 
01:0003F964 ?_checkThirdCharAfterColon@filename@@SAXPB_W_W00PAPB_W@Z 
01:0003FA30 ?_reducePath@filename@@SAX_WPB_WPAPB_W@Z 
01:0003FA60 ?_applyFilename@filename@@SAXPB_WPAU?$__packedList_struct@0@@PAPAU?$__packedList_struct@PAPB_W@@@Z 
01:0003FB78 ?stay_dir@filename@@SAXPB_W@Z  (Idle)
01:0003FBB8 ?up_dir@filename@@SAXPB_W@Z 
01:0003FC00 ?_reducePath_reversed@filename@@SAXPAU?$__packedList_struct@PB_W@@PAPAU?$__packedList_struct@PAPB_W@@@Z 
01:0003FCDC ?_upOneDir_reversed@filename@@SAXPAU?$__packedList_struct@PB_W@@PAPAU?$__packedList_struct@PAPB_W@@@Z 
01:0003FDF4 ?notDriveOrNetworkVolume@filename@@SAXPB_W@Z 
01:0003FE9C ?_normalize@filename@@SAXPB_WPAPB_W@Z  (Idle)
01:0003FF7C ?_normalizeSl@filename@@SAXPB_WPAPB_W@Z 
01:0003FFD4 ?isAbsolutePath@filename@@SAXPB_W@Z  (Idle)
01:00040070 ?front_wc@filename@@SAXPB_WPBUcharCount@core@@PAPB_W2@Z 
01:000400A4 ?up_dir@filename@@SAXPAPB_W@Z 
01:000400B8 ?copy@file@@SAXPB_W0PAUoverwrite_struct@1@@Z  (Idle)
01:00040124 ?move@file@@SAXPB_W0PAUoverwrite_struct@1@@Z  (Idle)
01:000401A8 ?delete@file@@SAXPB_W@Z  (Idle)
--- From 'obj\commandlineparser.67E728BA.obj'
01:0004023C ?existExactFile@file@@SAXPB_W@Z 
--- From 'obj\filesystem.5B0F823E.obj'
01:00040264 ?isReadOnly@file@@SAXPB_W@Z  (Idle)
01:0004028C ?existFilePattern@file@@SAXPB_W@Z  (Idle)
01:00040394 ?tryGetFile@file@@SAXPBUsearchHandle@fileSystem_native@@PAUwin32_find_data_struct@3@@Z 
01:00040428 ?_createUniqueName@file@@SAXPB_W0PAPB_W@Z 
01:0004052C ?_getPhysicalName@file@@SAXPB_WPAPB_W@Z  (Idle)
01:00040744 ?setAttributes@file@@SAXPB_WPAU?$__packedList_struct@PAUfileAttributeAtom_struct@fileSystem_api@@@@PAUboolean_struct@_builtIn@@@Z  (Idle)
01:0004098C ?getFileProperties@file@@SAXPB_WPAPAU?$__packedList_struct@PAPAUfileAttributeAtom_struct@fileSystem_api@@@@PAAAUfileSize@3@PAAAUgmtTimeValue@core@@33@Z  (Idle)
01:00040A44 ?_tryGetLastChange@file@@SAXPB_WPAAAUgmtTimeValue@core@@@Z  (Idle)
01:00040A88 ?setFileTime@file@@SAXPB_WPAPBUgmtTimeValue@core@@11@Z  (Idle)
01:00040CC4 ?moveToRecycleBin@file@@SAXPB_W@Z  (Idle)
01:00040E00 ?_readBinary@file@@SAXPB_WQAPAE@Z  (Idle)
01:00040EC4 ?_readFile@file@@SAXPBUfileHandle@core@@PAXPBUbyteCount@3@AAU43@@Z 
01:00040ECC ?_readBinary@file@@SAXPB_WPAPBUfileSize@fileSystem_api@@PBUbyteCount@core@@QAPAE@Z  (Idle)
--- From 'obj\commandlineparser.67E728BA.obj'
01:00041008 ?_readString@file@@SAXPB_WPAPAUboolean_struct@_builtIn@@PAPB_W@Z 
--- From 'obj\filesystem.5B0F823E.obj'
01:0004109C ?_readStringFromHandle@file@@SAXPBUfileHandle@core@@PAPAUboolean_struct@_builtIn@@PAPB_W@Z 
01:00041180 ?_checkMode@file@@SAXPB_WPAPAUmode_struct@stream@@@Z  (Idle)
01:0004127C ?_readSegmented_binary@file@@SAXPB_WPAPAUsegmented_struct@segmented@@QAPAE@Z  (Idle)
01:000412E0 ?_readSegmented_utf16@file@@SAXPB_WPAPAUsegmented_utf16_struct@segmented@@@Z  (Idle)
01:00041340 ?streamTo@file@@SAXQAVinputStream@@@QAVoutputStream@@@@Z 
01:000413C0 ?isUnicode@file@@SAXPB_W@Z  (Idle)
01:000413E8 ?tryBOM@file@@SAXPAXPBUbyteCount@core@@PB_W1@Z  (Idle)
01:00041410 ?checkUnicode@file@@SAXPAXPBUbyteCount@core@@PAPAUmode_struct@stream@@AAU23@@Z 
01:000414CC ?_getString@file@@SAXPBUbyteCount@core@@PAXPAUmode_struct@stream@@0PAPB_W@Z 
01:00041520 ?_getString2@file@@SAXPBUbyteCount@core@@PAXPAUmode_struct@stream@@PAXPAPB_W@Z 
01:000415B4 ?_getFileSize@file@@SAXPBUfileHandle@core@@PB_WAAUbyteCount@3@@Z 
01:00041680 ?writeSegmented_binary@file@@SAXPB_WPAUsegmented_struct@segmented@@QAE@Z  (Idle)
01:00041750 ?writeSegmented@file@@SAXPB_WPAUsegmented_utf16_struct@segmented@@@Z  (Idle)
01:00041788 ?writeSegmented_utf8@file@@SAXPB_WPAUsegmented_utf16_struct@segmented@@@Z  (Idle)
01:000417B4 ?writeSegmented_utf8_bom@file@@SAXPB_WPAUsegmented_utf16_struct@segmented@@@Z  (Idle)
01:000417E0 ?writeSegmentes_stream@file@@SAXQAVoutputStream@@@PAUsegmented_utf16_struct@segmented@@@Z 
01:0004188C ?writeBinary@file@@SAXPB_WQAE@Z  (Idle)
01:00041938 ?writeFile@file@@SAXPBUfileHandle@core@@PAXPBUbyteCount@3@@Z 
01:0004195C ?writeBinary@file@@SAXPB_WPAPBUfileSize@fileSystem_api@@QAE@Z  (Idle)
01:00041A20 ?appendString@file@@SAXPB_W0PAUboolean_struct@_builtIn@@@Z  (Idle)
01:00041A80 ?writeString@file@@SAXPB_W0PAUboolean_struct@_builtIn@@@Z  (Idle)
01:00041ACC ?writeStringUtf8@file@@SAXPB_W0@Z  (Idle)
01:00041AF8 ?writeStringUtf8_bom@file@@SAXPB_W0@Z  (Idle)
01:00041B24 ?writeString_codePage@file@@SAXPB_W0PBU2core@@@Z 
01:00041B70 ?writeStringAndClose@file@@SAXQAVoutputStream@@@PB_W@Z 
01:00041BFC ?checkResult@file@@SAXPBUhResult@core@@PB_W11PAUoverwrite_struct@1@@Z 
01:00041EA8 ?fileExists_errorCode@file@@SAXPBUhResult@core@@@Z 
01:00041EC8 ?hideUnicodeSignature@file@@SAXQAEPBUbyteCount@core@@PAPAXAAU23@@Z 
01:00041F30 ?_setDestination@file@@SAXPB_W0PAPB_W@Z 
01:00041F88 ?_toApiAttributes@file@@SAXPAU?$__packedList_struct@PAUfileAttributeAtom_struct@fileSystem_api@@@@PAI@Z 
01:00041FB0 ?checkOnLegal@file@@SAXI@Z 
01:00041FDC ?_mixAttributes@file@@SAXPAUboolean_struct@_builtIn@@IIPAI@Z 
01:00042008 ?checkFileHandle@file@@SAXPBUfileHandle@core@@PB_W@Z 
01:00042038 ?_getStreamCheckUnicode@file@@SAXPB_WPAUboolean_struct@_builtIn@@PAPAVoutputStream@@@@Z  (Idle)
01:000420BC ?save@file@@SAXPB_WPBUfactDB@_builtIn@@PAUboolean_struct@3@@Z  (Idle)
01:00042144 ?saveUtf8@file@@SAXPB_WPBUfactDB@_builtIn@@@Z  (Idle)
01:000421D0 ?consult@file@@SAXPB_WPBUfactDB@_builtIn@@PAPAUboolean_struct@3@@Z  (Idle)
01:00042280 ?reconsult@file@@SAXPB_WPBUfactDB@_builtIn@@PAPAUboolean_struct@3@@Z  (Idle)
01:00042294 ?_trySearchFileInPath@file@@SAXPB_WPAPB_W@Z  (Idle)
01:000422D8 ?_getFilenameHash@file@@SAXPB_WPAI@Z  (Idle)
01:00042314 ?_getFileSize@file@@SAXPB_WPAAAUfileSize@fileSystem_api@@@Z  (Idle)
01:00042364 ?existFile@file@@SAXPB_W@Z  (Idle)
01:0004236C ?deleteDirectory@directory@@SAXPB_W@Z  (Idle)
01:00042374 ?makeDirectory@directory@@SAXPB_W@Z  (Idle)
01:00042388 ?makeDirectoryPath@directory@@SAXPB_W@Z  (Idle)
01:00042440 ?makeDirectoryPath2@directory@@SAXPB_W@Z 
01:0004253C ?setCurrentDirectory@directory@@SAXPB_W@Z  (Idle)
--- From 'obj\filesystem_api.DE0803A2.obj'
01:00042544 ?_getCurrentDirectory@directory@@SAXPAPB_W@Z 
--- From 'obj\filesystem.5B0F823E.obj'
01:0004254C ?moveDirectory@directory@@SAXPB_W0@Z  (Idle)
01:00042554 ?setVolumeLabel@directory@@SAXPB_W0@Z  (Idle)
01:0004255C ?existDirectory@directory@@SAXPB_W@Z  (Idle)
01:00042564 ?existDirectoryPattern@directory@@SAXPB_W@Z 
01:000426A4 ?existExactDirectory@directory@@SAXPB_W@Z 
01:000426CC ?isFirst@directory@@SAXPBUsearchHandle@fileSystem_native@@PAUwin32_find_data_struct@3@@Z  (Idle)
01:0004276C ?isEmpty@directory@@SAXPB_W@Z  (Idle)
01:00042974 ?_dirWithoutBackslash@directory@@SAXPB_WPAPB_W@Z 
01:000429C0 ?getDirectoryProperties@directory@@SAXPB_WPAPAU?$__packedList_struct@PAPAUfileAttributeAtom_struct@fileSystem_api@@@@PAAAUgmtTimeValue@core@@22@Z  (Idle)
01:000429E8 ?getVolumeProperties@directory@@SAXPB_WPAPAUvolumeType_struct@1@PAAAUfileSize@fileSystem_api@@2PAPB_WPAI@Z  (Idle)
01:00042A40 ?_tryGetLogicalDirectory@directory@@SAXPBUdirectoryID@1@PAPB_W@Z  (Idle)
01:00042A5C ?_getLogicalDirectory@directory@@SAXPBUdirectoryID@1@PAPB_W@Z  (Idle)
01:00042A78 ?_getTemporaryDirectory@directory@@SAXPAPB_W@Z  (Idle)
01:00042A80 ?_tryCreateLogicalDirectory@directory@@SAXPBUdirectoryID@1@PAPB_W@Z  (Idle)
01:00042A9C ?_getFilesInDirectory_nd@directory@@SAXPB_W0PAUboolean_struct@_builtIn@@PAPB_W@Z  (Idle)
01:00042AC4 ?_getSubDirectories_nd@directory@@SAXPB_W0PAPB_W@Z  (Idle)
01:00042AE8 ?_getAllSubDirectories_nd@directory@@SAXPB_WPAPB_W@Z  (Idle)
01:00042B54 ?_getFilesInDirectoryAndSub_nd@directory@@SAXPB_W0PAPB_W@Z 
01:00042BF8 ?_find@directory@@SAXPB_W0IPAUboolean_struct@_builtIn@@PAPB_W@Z 
01:00042D54 ?_dirWithBackslash@directory@@SAXPB_WPAPB_W@Z 
01:00042DCC ?isSlash@directory@@SAX_W@Z 
01:00042DEC ?findNext@directory@@SAXPBUsearchHandle@fileSystem_native@@PAUwin32_find_data_struct@3@I@Z 
01:00042E70 ?_findNext_nd@directory@@SAXPBUsearchHandle@fileSystem_native@@PAUwin32_find_data_struct@3@IPAUboolean_struct@_builtIn@@PAPB_W@Z 
01:00042F70 ?_createFullName@directory@@SAXPB_W0PAPB_W@Z 
01:0004301C ?_tryLogicalDirectoryBuff@directory@@SAXPBUdirectoryId@1@PAUboolean_struct@_builtIn@@PB_WPAPB_W@Z  (Idle)
01:000430EC ?_logicalDirectoryBuff@directory@@SAXPBUdirectoryId@1@PAUboolean_struct@_builtIn@@PB_WPAPB_W@Z  (Idle)
01:000432EC ?_tryLogicalDirectory@directory@@SAXPBUdirectoryId@1@PAUboolean_struct@_builtIn@@PAPB_W@Z 
01:00043324 ?_logicalDirectory@directory@@SAXPBUdirectoryId@1@PAUboolean_struct@_builtIn@@PAPB_W@Z 
01:0004335C ?_addNeedCreateIfNecessary@directory@@SAXPBUdirectoryId@1@PAUboolean_struct@_builtIn@@AAU21@@Z 
01:00043388 ?_convertToVolumeType@directory@@SAXHPAPAUvolumeType_struct@1@@Z 
01:000433F0 ?copyDirectory@directory@@SAXPB_W0PAUboolean_struct@_builtIn@@@Z  (Idle)
01:00043444 ?copyDir@directory@@SAXPB_W0PAUboolean_struct@_builtIn@@@Z 
01:00043574 ?forAllFiles@directory@@SAXPB_WPA$?predicate$1@core@@SAXPB_W@Z$@Z  (Idle)
01:00043594 ?_forallfiles/4np$1@directory@@SAXPB_W0PAPB_W@Z 
01:000435B0 ?forAllFiles@directory@@SAXPB_WPA$?predicate$1@core@@SAXPB_W@Z$0PAUboolean_struct@_builtIn@@@Z 
01:000439C0 outputStream_file?_initObject@@@QAGXQAV1@H@Z 
01:000439F8 ?@create_object@outputStream_file@@SGQAV1@@XZ 
01:00043A14 outputStream_file?_InternalFinalizer@@@QAGXQAV1@@Z 
01:00043A64 messageFile?_initObject@@@QAGXQAV1@H@Z 
01:00043A88 ?@create_object@messageFile@@SGQAV1@@XZ 
01:00043AA4 messageFile?_InternalFinalizer@@@QAGXQAV1@@Z 
01:00043DD8 inputStream_file?_initObject@@@QAGXQAV1@H@Z 
01:00043E10 ?@create_object@inputStream_file@@SGQAV1@@XZ 
01:00043E2C inputStream_file?_InternalFinalizer@@@QAGXQAV1@@Z 
--- From 'obj\inputsupport_mode.ADC075EF.obj'
01:00043E40 ?_halfBufferSize$@inputSupport_mode@@SAXQAV1@@AAUbyteCount@core@@@Z  (Idle)
01:00043E6C ?new$@inputSupport_mode@@SAXQAV1@@QAVinputSupportSite_mode@@@PAUmode_struct@stream@@PBUbyteCount@core@@@Z 
01:00043ED0 ?allocBuffer$@inputSupport_mode@@SAXQAV1@@@Z 
01:00043F38 ?handlingMode$@inputSupport_mode@@SAXQAV1@@PAUmode_struct@stream@@@Z 
01:0004402C ?getPosition$@inputSupport_mode@@SGPBUfileSize@fileSystem_api@@QAVstream@@@@Z 
01:000440E8 ?_handlingFileMode$@inputSupport_mode@@SAXQAV1@@PAUmode_struct@stream@@PBUbyteCount@core@@2AAU56@@Z 
01:000441C4 ?_handleTextMode$@inputSupport_mode@@SAXQAV1@@PAUmode_struct@stream@@PBUbyteCount@core@@IAAU56@@Z 
01:000442C0 ?_getPassedConv@inputSupport_mode@@SAXPAU?$__packedList_struct@PBUbyteCount@core@@@@IIPBU23@PAI@Z 
01:0004435C ?setPosition$@inputSupport_mode@@SGXQAVstream@@@PBUfileSize@fileSystem_api@@@Z 
01:00044480 ?_checkMovingIsInsideBuffer@inputSupport_mode@@SAXPAPBUfileSize@fileSystem_api@@0PBUbyteCount@core@@2AAU67@@Z 
01:0004463C ?close$@inputSupport_mode@@SGXQAVstream@@@@Z 
01:0004469C ?getCRLFconversion$@inputSupport_mode@@SGPAUboolean_struct@_builtIn@@QAVstream@@@@Z 
01:000446E4 ?setCRLFconversion$@inputSupport_mode@@SGXQAVstream@@@PAUboolean_struct@_builtIn@@@Z 
01:000447C8 ?setMode$@inputSupport_mode@@SGXQAVstream@@@PAUmode_struct@2@@Z 
01:00044868 ?_checkModeAndPos$@inputSupport_mode@@SAXQAV1@@PAUmode_struct@stream@@PAPBUfileSize@fileSystem_api@@PAAAU56@@Z 
01:0004498C ?getBufferLocked$@inputSupport_mode@@SGXQAVbufferSupport@@@PAPAXAAUbyteCount@core@@@Z 
01:000449B8 ?getBuffer$@inputSupport_mode@@SGXQAVbufferSupport@@@PAPAXAAUbyteCount@core@@@Z 
01:00044A0C ?_fillBuffer$@inputSupport_mode@@SAXQAV1@@PAUmode_struct@stream@@AAUbyteCount@core@@@Z 
01:00044B94 ?_getChar8sToSave@inputSupport_mode@@SAXPBUcodePage@core@@PAXPBUbyteCount@3@AAU43@@Z 
01:00044C08 ?_getChar8sToSave_utf8@inputSupport_mode@@SAXPAXPBUbyteCount@core@@AAU23@@Z 
01:00044C84 ?_utf8CharLength@inputSupport_mode@@SAXPBUunsigned8@core@@AAUbyteCount@3@@Z 
01:00044E2C ?_convertToUnicode$@inputSupport_mode@@SAXQAV1@@PBUbyteCount@core@@PBUcodePage@4@PAXAAUcharCount@4@@Z 
01:00044EA4 ?convertCRLFtoLF_ifNeeded$@inputSupport_mode@@SAXQAV1@@PAUmode_struct@stream@@PBUbyteCount@core@@PAPAXAAU56@@Z 
01:00044F8C ?handlingBufferLastChar$@inputSupport_mode@@SAXQAV1@@PBUbyteCount@core@@PAPAXAAU34@@Z 
01:00044FC8 ?finalize$@inputSupport_mode@@SGXQAV1@@@Z 
01:00044FE0 ?_new@inputSupport_mode@@SAXQAVinputSupportSite_mode@@@PAUmode_struct@stream@@PBUbyteCount@core@@PAPAV1@@@Z  (Idle)
01:00045010 ?_object_facts_initializer$@inputSupport_mode@@SGXQAV1@@@Z 
01:000452E0 inputSupport_mode?_initObject@@@QAGXQAV1@H@Z 
01:00045318 ?@create_object@inputSupport_mode@@SGQAV1@@XZ 
01:00045334 inputSupport_mode?_InternalFinalizer@@@QAGXQAV1@@Z 
--- From 'obj\setm_redblack.16EF8DC5.obj'
01:00045380 ?new$@setM_redBlack@@SAXQAV1@@XQAVrTypeLibrary@TypeLibraries@RunTime@VIP@@@Z  (Idle)
01:000453A8 ?new$@setM_redBlack@@SAXQAV1@@XQAVrTypeLibrary@TypeLibraries@RunTime@VIP@@PAU?$__packedList_struct@X@@@Z  (Idle)
01:000453C8 ?newSingleton$@setM_redBlack@@SAXQAV1@@XQAVrTypeLibrary@TypeLibraries@RunTime@VIP@@X@Z  (Idle)
01:000453E8 ?newCustom$@setM_redBlack@@SAXQAV1@@XQAVrTypeLibrary@TypeLibraries@RunTime@VIP@@PA$?_comparator$1@core@@SAXXXPAPAUcompareResult_struct@_builtIn@@@Z$@Z  (Idle)
01:00045410 ?newInternal$@setM_redBlack@@SAXQAV1@@XQAVrTypeLibrary@TypeLibraries@RunTime@VIP@@PAUset_struct@redBlackSet@@X@Z 
01:0004542C ?_clone$@setM_redBlack@@SAXQAVsetM@@@XPAPAV2@@PAX@Z 
01:0004545C ?contains$@setM_redBlack@@SAXQAVcollection@@@XX@Z 
01:0004548C ?_getAll_nd_site$@setM_redBlack@@SAXQAVcollectionSupportSite@@collectionSupport@@XPAX@Z 
01:000454BC ?_upFrom_nd$@setM_redBlack@@SAXQAVset@@@XXPAX@Z 
01:000454F4 ?_downFrom_nd$@setM_redBlack@@SAXQAVset@@@XXPAX@Z 
01:0004552C ?clear$@setM_redBlack@@SAXQAVmodifiable@@@X@Z 
01:00045558 ?insert_site$@setM_redBlack@@SAXQAVmodifiableSupportSite@@collectionSupport@@XX@Z 
01:00045588 ?remove_site$@setM_redBlack@@SAXQAVmodifiableSupportSite@@collectionSupport@@XX@Z 
01:000455B8 ?_new@setM_redBlack@@SAXQAVrTypeLibrary@TypeLibraries@RunTime@VIP@@PAPAVsetM@@@PAX@Z 
01:000455E4 ?_new@setM_redBlack@@SAXQAVrTypeLibrary@TypeLibraries@RunTime@VIP@@PAU?$__packedList_struct@X@@PAPAVsetM@@@PAX@Z  (Idle)
01:00045614 ?_newSingleton@setM_redBlack@@SAXQAVrTypeLibrary@TypeLibraries@RunTime@VIP@@XPAPAVsetM@@@PAX@Z  (Idle)
01:00045644 ?_newCustom@setM_redBlack@@SAXQAVrTypeLibrary@TypeLibraries@RunTime@VIP@@PA$?_comparator$1@core@@SAXXXPAPAUcompareResult_struct@_builtIn@@@Z$PAPAVsetM@@@PAX@Z 
01:00045674 ?_newInternal@setM_redBlack@@SAXQAVrTypeLibrary@TypeLibraries@RunTime@VIP@@PAUset_struct@redBlackSet@@XPAPAVsetM@@@PAX@Z 
01:000456A4 ?_object_typelib_initializer$@setM_redBlack@@SGXQAV1@@XQAVrTypeLibrary@TypeLibraries@RunTime@VIP@@@Z 
01:000459FC setM_redBlack{@Type}?_initObject@@@QAGXQAV1@H@Z 
01:00045A3C ?@create_object@setM_redBlack@@SGQAV1@@XQAVrTypeLibrary@TypeLibraries@RunTime@VIP@@@Z 
01:00045A60 setM_redBlack{@Type}?_InternalFinalizer@@@QAGXQAV1@@Z 
--- From 'obj\criticalsectionsupport.56CDFDBE.obj'
01:00045A70 ?new$@criticalSectionSupport@@SAXQAV1@@QAVcriticalSectionSupportSite@@@@Z 
01:00045A84 ?synchronize$@criticalSectionSupport@@SAXQAV1@@X@Z 
01:00045B14 ?_synchronize$@criticalSectionSupport@@SAXQAV1@@QAVrTypeLibrary@TypeLibraries@RunTime@VIP@@PA$?_function$1@core@@SAXPAX@Z$PAX@Z 
01:00045BA4 ?trySynchronize$@criticalSectionSupport@@SAXQAV1@@X@Z 
01:00045C34 ?_new@criticalSectionSupport@@SAXQAVcriticalSectionSupportSite@@@PAPAV1@@@Z  (Idle)
01:00045C64 criticalSectionSupport?_initObject@@@QAGXQAV1@H@Z 
01:00045C7C ?@create_object@criticalSectionSupport@@SGQAV1@@XZ 
01:00045C98 criticalSectionSupport?_InternalFinalizer@@@QAGXQAV1@@Z 
--- From 'obj\commandlineparser.67E728BA.obj'
01:00045CB0 ?new$@commandLineParser@@SAXQAV1@@@Z  (Idle)
01:00045CE0 ?new_caseSensitive$@commandLineParser@@SAXQAV1@@@Z  (Idle)
01:00045D0C ?programName@commandLineParser@@SGPB_WQAV1@@@Z 
01:00045D5C ?programName@commandLineParser@@SGXQAV1@@PB_W@Z 
01:00045D74 ?description@commandLineParser@@SGPB_WQAV1@@@Z 
01:00045DD8 ?description@commandLineParser@@SGXQAV1@@PB_W@Z 
01:00045DF0 ?addoption_0/3np$1@commandLineParser@@SAXPAUaddoption_0/3np$1_struct@1@PAU?$__packedList_struct@PB_W@@@Z 
01:00045E30 ?addOption_0$@commandLineParser@@SAXQAV1@@PB_W1X@Z 
01:00045E90 ?addoption_1/4np$1@commandLineParser@@SAXPAUaddoption_1/4np$1_struct@1@PAU?$__packedList_struct@PB_W@@@Z 
01:00045F04 ?addOption_1$@commandLineParser@@SAXQAV1@@PB_W11PA$?predicate$1@core@@SAXPB_W@Z$@Z 
01:00045F74 ?addoption_2/5np$1@commandLineParser@@SAXPAUaddoption_2/5np$1_struct@1@PAU?$__packedList_struct@PB_W@@@Z 
01:00046028 ?addOption_2$@commandLineParser@@SAXQAV1@@PB_W111PA$?predicate$2@core@@SAXPB_W0@Z$@Z 
01:000460AC ?addoption_n/3np$1@commandLineParser@@SAXPAUaddoption_n/3np$1_struct@1@PAU?$__packedList_struct@PB_W@@@Z 
01:000460D8 ?addOption_N$@commandLineParser@@SAXQAV1@@PB_W1PA$?predicate$1@core@@SAXPAU?$__packedList_struct@PB_W@@@Z$@Z 
01:00046138 ?addoption_help/1np$1@commandLineParser@@SAXPAUaddoption_help/1np$1_struct@1@@Z 
01:0004616C ?addOption_help$@commandLineParser@@SAXQAV1@@PB_W@Z 
01:000461AC ?addOption$@commandLineParser@@SAXQAV1@@PB_W1PAUtuple_struct@core@@PAU?$__packedList_struct@1@@PA$?predicate$1@4@SAXPAU?$__packedList_struct@PB_W@@@Z$PAUboolean_struct@_builtIn@@@Z 
01:000462F0 ?_parse$@commandLineParser@@SAXQAV1@@PAPAUoptional_struct@core@@PAPB_W@Z 
01:00046320 ?_parse$@commandLineParser@@SAXQAV1@@PB_WPAPAUoptional_struct@core@@PAPB_W@Z 
01:000463D8 ?_gatherResult$@commandLineParser@@SAXQAV1@@PAPAUoptional_struct@core@@PAPB_W@Z 
01:000465A4 ?parse_list$@commandLineParser@@SAXQAV1@@PAU?$__packedList_struct@PB_W@@@Z 
01:000465E8 ?_parse_one$@commandLineParser@@SAXQAV1@@PB_WPAU?$__packedList_struct@1@@PAPAU?$__packedList_struct@PAPB_W@@@Z 
01:0004688C ?_loadOptionsFile$@commandLineParser@@SAXQAV1@@PB_WPAU?$__packedList_struct@1@@PAPAU?$__packedList_struct@PAPB_W@@@Z 
01:00046A2C ?_tryGetArgList$@commandLineParser@@SAXQAV1@@PAU?$__packedList_struct@PB_W@@PAU?$__packedList_struct@1@@PAPAU?$__packedList_struct@PAPB_W@@3@Z 
01:00046AEC ?_tryGetArgListL$@commandLineParser@@SAXQAV1@@PAU?$__packedList_struct@PB_W@@PAPAU?$__packedList_struct@PAPB_W@@2@Z 
01:00046BB4 ?handleRegular$@commandLineParser@@SAXQAV1@@PB_W@Z 
01:00046BF4 ?error$@commandLineParser@@SAXQAV1@@PB_W@Z 
01:00046C28 ?_isOptionsFile@commandLineParser@@SAXPB_WPAPB_W@Z 
01:00046C58 ?isOption$@commandLineParser@@SAXQAV1@@PB_W@Z 
01:00046C88 ?arguments@commandLineParser@@SGPAU?$__packedList_struct@PB_W@@QAV1@@@Z 
01:00046D24 ?serialize_usage$@commandLineParser@@SAXQAV1@@QAVoutputStream@@@@Z 
01:00046D78 ?serialize_description$@commandLineParser@@SAXQAV1@@QAVoutputStream@@@@Z 
01:00046DD0 ?serialize_options$@commandLineParser@@SAXQAV1@@QAVoutputStream@@@@Z 
01:00046F88 ?_serialize_option@commandLineParser@@SAXPB_WPAU?$__packedList_struct@0@@PAPB_W@Z 
01:0004703C ?serialize_errors$@commandLineParser@@SAXQAV1@@QAVoutputStream@@@@Z 
01:000471B0 ?usage@commandLineParser@@SGPB_WQAV1@@@Z 
01:000471F0 ?_new@commandLineParser@@SAXPAPAV1@@@Z  (Idle)
01:00047218 ?_new_caseSensitive@commandLineParser@@SAXPAPAV1@@@Z  (Idle)
01:00047240 ?onregular/0nfv$1@commandLineParser@@SAXPB_W@Z 
01:00047254 ?_object_facts_initializer$@commandLineParser@@SGXQAV1@@@Z 
01:00047290 ?onRegular@commandLineParser@@SGXQAV1@@X@Z 
01:000472A0 ?onRegular@commandLineParser@@SGXQAV1@@@Z 
01:000472AC ?optionChar@commandLineParser@@SGXQAV1@@_W@Z 
01:000472BC ?optionChar@commandLineParser@@SG_WQAV1@@@Z 
01:000472C8 ?commandLineDescription@commandLineParser@@SGXQAV1@@PB_W@Z 
01:000472D8 ?commandLineDescription@commandLineParser@@SGPB_WQAV1@@@Z 
01:000472E4 ?acceptEmpty@commandLineParser@@SGXQAV1@@PAUboolean_struct@_builtIn@@@Z 
01:000472F4 ?acceptEmpty@commandLineParser@@SGPAUboolean_struct@_builtIn@@QAV1@@@Z 
01:00047300 ?checkArguments@commandLineParser@@SGXQAV1@@X@Z 
01:00047310 ?checkArguments@commandLineParser@@SGXQAV1@@@Z 
01:00047334 commandLineParser?_initObject@@@QAGXQAV1@H@Z 
01:00047358 ?@create_object@commandLineParser@@SGQAV1@@XZ 
01:00047374 commandLineParser?_InternalFinalizer@@@QAGXQAV1@@Z 
--- From 'obj\console.E8EB4F3C.obj'
01:00047380 ?handle$@outputStream_console@@SGPBUhandle@_builtIn@@QAV1@@@Z 
01:000473BC ?newCurrent$@outputStream_console@@SAXQAV1@@I@Z  (Idle)
01:00047414 ?new$@outputStream_console@@SAXQAV1@@I@Z 
01:00047468 ?doFlush$@outputStream_console@@SAXQAVoutputStreamSupportSite@@@@Z 
01:00047478 ?write$@outputStream_console@@SAXQAVoutputStream@@@@Z 
01:000474D0 ?writeQuoted$@outputStream_console@@SAXQAVoutputStream@@@@Z 
01:00047528 ?writef$@outputStream_console@@SAXQAVoutputStream@@@PB_W@Z 
01:00047584 ?nl$@outputStream_console@@SAXQAVoutputStream@@@@Z 
01:000475B8 ?save$@outputStream_console@@SAXQAVoutputStream@@@PBUfactDB@_builtIn@@@Z 
01:00047610 ?writeBytes$@outputStream_console@@SAXQAVoutputStream@@@PAXPBUbyteCount@core@@@Z 
01:0004766C ?errorHandler$@outputStream_console@@SAXQAV1@@PBUtraceId@exception@@@Z 
01:000476A8 ?getCRLFconversion$@outputStream_console@@SGPAUboolean_struct@_builtIn@@QAVstream@@@@Z 
01:000476D8 ?setCRLFconversion$@outputStream_console@@SGXQAVstream@@@PAUboolean_struct@_builtIn@@@Z 
01:0004772C ?getBuffer$@outputStream_console@@SGXQAVoutputStreamSupportSite@@@PAPAXAAUbyteCount@core@@@Z 
01:000477AC ?convertLF2CRLF_ifNeeded$@outputStream_console@@SAXQAV1@@PAXPBUbyteCount@core@@PAPAXAAU34@@Z 
01:00047804 ?writeToStdDevice@outputStream_console@@SAXPAUmode_struct@stream@@PBUfileHandle@core@@PAXPBUbyteCount@5@@Z 
01:000478A8 ?convert_ifAnsi@outputStream_console@@SAXPAUmode_struct@stream@@PAXPBUbyteCount@core@@PAPAXAAU45@@Z 
01:00047950 ?_new@outputStream_console@@SAXIPAPAVoutputStream@@@@Z  (Idle)
01:00047978 ?_newCurrent@outputStream_console@@SAXIPAPAVoutputStream@@@@Z  (Idle)
01:000479A0 ?_object_facts_initializer$@outputStream_console@@SGXQAV1@@@Z 
01:000479B8 ?new$@inputStream_console@@SAXQAV1@@@Z  (Idle)
01:00047A34 ?getCRLFconversion$@inputStream_console@@SGPAUboolean_struct@_builtIn@@QAVstream@@@@Z 
01:00047A64 ?setCRLFconversion$@inputStream_console@@SGXQAVstream@@@PAUboolean_struct@_builtIn@@@Z 
01:00047ABC ?setMode$@inputStream_console@@SGXQAVstream@@@PAUmode_struct@2@@Z 
01:00047B5C ?exTextBufferCB$@inputStream_console@@SAXQAV1@@PAPAXAAUbyteCount@core@@@Z  (Idle)
01:00047BB8 ?exTextBufferCBLock$@inputStream_console@@SAXQAV1@@PAPAXAAUbyteCount@core@@@Z  (Idle)
01:00047C08 ?handlingBufferLastChar$@inputStream_console@@SAXQAV1@@PBUbyteCount@core@@PAPAXAAU34@@Z  (Idle)
01:00047C44 ?converCRLF2LF_ifNeeded$@inputStream_console@@SAXQAV1@@PBUbyteCount@core@@PAPAXAAU34@@Z 
01:00047CC4 ?_readFromStdIn$@inputStream_console@@SAXQAV1@@PAUmode_struct@stream@@PBUfileHandle@core@@AAUbyteCount@6@@Z 
01:00047DDC ?_readFromFile@inputStream_console@@SAXPBUfileHandle@core@@PAXPBUbyteCount@3@AAU43@@Z 
01:00047E2C ?setPosition$@inputStream_console@@SGXQAVstream@@@PBUfileSize@fileSystem_api@@@Z 
01:00047E3C ?getPosition$@inputStream_console@@SGPBUfileSize@fileSystem_api@@QAVstream@@@@Z 
01:00047E44 ?close$@inputStream_console@@SGXQAVstream@@@@Z 
01:00047E74 ?getBuffer$@inputStream_console@@SGXQAVbufferSupport@@@PAPAXAAUbyteCount@core@@@Z 
01:00047E98 ?getBufferLocked$@inputStream_console@@SGXQAVbufferSupport@@@PAPAXAAUbyteCount@core@@@Z 
01:00047EBC ?_new@inputStream_console@@SAXPAPAVinputStream@@@@Z  (Idle)
01:00047EE4 ?_object_facts_initializer$@inputStream_console@@SGXQAV1@@@Z 
01:00047F04 ?_readChar@console@@SAXPA_W@Z 
01:00047F50 ?_readLine@console@@SAXPAPB_W@Z  (Idle)
01:00047F9C ?_read@console@@SAXQAVrTypeLibrary@TypeLibraries@RunTime@VIP@@PAX@Z  (Idle)
01:00047FF0 ?write@console@@SAXXZ 
01:0004803C ?writef@console@@SAXPB_W@Z  (Idle)
01:00048090 ?nl@console@@SAXXZ  (Idle)
01:000480CC ?isModeLine@console@@SAXXZ  (Idle)
01:000480F8 ?setModeLine@console@@SAXPAUboolean_struct@_builtIn@@@Z  (Idle)
01:00048128 ?isModeEcho@console@@SAXXZ  (Idle)
01:00048154 ?setModeEcho@console@@SAXPAUboolean_struct@_builtIn@@@Z  (Idle)
01:00048184 ?isModeProcessed@console@@SAXXZ  (Idle)
01:000481D0 ?setModeProcessed@console@@SAXPAUboolean_struct@_builtIn@@@Z  (Idle)
01:00048224 ?isModeWrap@console@@SAXXZ  (Idle)
01:00048250 ?setModeWrap@console@@SAXPAUboolean_struct@_builtIn@@@Z  (Idle)
01:00048280 ?checkConsoleMode@console@@SAXPBUfileHandle@core@@I@Z 
01:000482B4 ?setConsoleMode@console@@SAXPAUboolean_struct@_builtIn@@PBUfileHandle@core@@I@Z 
01:00048318 ?_toApiMode@console@@SAXPAUboolean_struct@_builtIn@@IIPAI@Z 
01:00048344 ?clearInput@console@@SAXXZ 
01:000483B8 ?clearOutput@console@@SAXXZ  (Idle)
01:00048474 ?_getLocation@console@@SAXPAPAUcoord_struct@console_native@@@Z  (Idle)
01:0004849C ?setLocation@console@@SAXPAUcoord_struct@console_native@@@Z 
01:000484EC ?close@console@@SAXXZ  (Idle)
01:00048520 ?_getConsoleWidth@console@@SAXAAUunsigned16@core@@@Z  (Idle)
01:00048544 ?_getConsoleTitle@console@@SAXPAPB_W@Z  (Idle)
01:000485AC ?setConsoleTitle@console@@SAXPB_W@Z  (Idle)
01:000485E4 ?_getConsoleMode@console@@SAXPBUfileHandle@core@@PAI@Z 
01:00048620 ?_getConsoleScreenBufferInfo@console@@SAXPAPAUconsoleScreenBufferInfo_struct@console_native@@@Z 
01:00048684 ?setTextAttribute@console@@SAXII@Z  (Idle)
01:000486B0 ?_getTextAttribute@console@@SAXPAI@Z  (Idle)
01:0004870C ?init@console@@SAXPAUmode_struct@stream@@@Z 
01:000487B4 ?init8@console@@SAXPBUcodePage@core@@@Z  (Idle)
01:000487DC ?initUtf8@console@@SAXXZ  (Idle)
01:000487F0 ?run@console@@SAXXPAUmode_struct@stream@@PAUrunMode_struct@exe_api@@@Z  (Idle)
01:000488A0 ?run8@console@@SAXXPBUcodePage@core@@@Z  (Idle)
01:000488D0 ?runUtf8@console@@SAXX@Z  (Idle)
01:000488E4 ?codePage@console@@SGXPBU0core@@@Z  (Idle)
01:00048910 ?mode@console@@SGXPAUmode_struct@stream@@@Z 
01:000489DC ?checkConsolePresence@console@@SAXXZ 
01:00048A34 ?_readEvents@console@@SAXPAPAU?$__packedList_struct@PAPAUevent_struct@1@@@@Z  (Idle)
01:00048BF8 ?_makeEvent@console@@SAXIPAXPAPAUevent_struct@1@@Z  (Idle)
01:00048F54 ?_getEventQueue@console@@SAXPAPAU?$__packedList_struct@PAPAUevent_struct@1@@@@Z  (Idle)
01:00049090 ?_getEvent_nd@console@@SAXPAXIIPAPAUevent_struct@1@@Z 
01:00049168 ?__lateFactInit$inputstream$0$console@classDB@1@SAXPAPAVinputStream@@@@Z 
01:00049170 ?__lateFactInit$outputstream$0$console@classDB@1@SAXPAPAVoutputStream@@@@Z 
01:0004918C ?__lateFactInit$errorstream$0$console@classDB@1@SAXPAPAVoutputStream@@@@Z 
01:000491A8 ?inputStream@console@@SGQAV0@@XZ  (Idle)
01:000491E0 ?outputStream@console@@SGQAV0@@XZ  (Idle)
01:00049218 ?errorStream@console@@SGQAVoutputStream@@@XZ  (Idle)
01:000495E0 outputStream_console?_initObject@@@QAGXQAV1@H@Z 
01:00049618 ?@create_object@outputStream_console@@SGQAV1@@XZ 
01:00049634 outputStream_console?_InternalFinalizer@@@QAGXQAV1@@Z 
01:000498F0 inputStream_console?_initObject@@@QAGXQAV1@H@Z 
01:00049928 ?@create_object@inputStream_console@@SGQAV1@@XZ 
01:00049944 inputStream_console?_InternalFinalizer@@@QAGXQAV1@@Z 
--- From 'obj\core.5D9B9483.obj'
01:00049960 ?_mapSome@core@@SAXQAVrTypeLibrary@TypeLibraries@RunTime@VIP@@0PAUoptional_struct@1@XPA$?_function$2@1@SAXXPAX@Z$PAPAU21@PAX@Z  (Idle)
--- From 'obj\reflection.ACE59E5C.obj'
01:000499E0 ?_isSome@core@@SAXQAVrTypeLibrary@TypeLibraries@RunTime@VIP@@PAUoptional_struct@1@XPAX@Z 
--- From 'obj\core.5D9B9483.obj'
01:00049A10 ?_getSome@core@@SAXQAVrTypeLibrary@TypeLibraries@RunTime@VIP@@PAUoptional_struct@1@XXPAX@Z  (Idle)
01:00049A44 ?_makeOptional@core@@SAXQAVrTypeLibrary@TypeLibraries@RunTime@VIP@@PA$?_function_dt$1@1@SAXPAX@Z$PAPAUoptional_struct@1@PAX@Z  (Idle)
01:00049AB8 ?_compareselect/1nf$1@core@@SAXPAUcompareselect/1nf$1_struct@1@XXPAPAUcompareResult_struct@_builtIn@@@Z 
01:00049B18 ?_compareSelect@core@@SAXQAVrTypeLibrary@TypeLibraries@RunTime@VIP@@0PA$?_function$2@1@SAXXPAX@Z$PAPA$?_comparator$1@1@SAXXXPAPAUcompareResult_struct@_builtIn@@@Z$@Z  (Idle)
01:00049B58 ?_notEqual@core@@SAXPAUcompareResult_struct@_builtIn@@PAPAU23@@Z  (Idle)
01:00049B88 ?_compareNotEqual@core@@SAXQAVrTypeLibrary@TypeLibraries@RunTime@VIP@@XXPAPAUcompareResult_struct@_builtIn@@@Z  (Idle)
01:00049BB8 ?_invertCompareResult@core@@SAXPAUcompareResult_struct@_builtIn@@PAPAU23@@Z  (Idle)
01:00049BEC ?_mkPlatformIndependent_value@core@@SAXPAUvalue_struct@1@PAPAU21@@Z 
01:00049C6C ?_mkPlatformIndependent_valueList@core@@SAXPAU?$__packedList_struct@PAUvalue_struct@1@@@PAPAU?$__packedList_struct@PAPAU21@@@@Z  (Idle)
01:00049CA8 ?_mkPlatformIndependent_namedValue@core@@SAXPAUnamedValue_struct@1@PAUvalue_struct@1@PAPAU21@PAPAU41@@Z 
--- From 'obj\exception.B6F320E8.obj'
01:00049CF4 ?_mkPlatformIndependent_namedValueList@core@@SAXPAU?$__packedList_struct@PAUnamedValue_struct@1@PAUvalue_struct@1@@@PAPAU?$__packedList_struct@PAPAU21@PAPAU41@@@@Z 
--- From 'obj\core.5D9B9483.obj'
01:00049D30 ?_mkPlatformIndependant_unsignedNative@core@@SAXPBU2_builtIn@@PAPAUvalue_struct@1@@Z 
--- From 'obj\time_api.0FD0D46D.obj'
01:00049D94 ?_toUnsigned64@core@@SAXPAUunsigned64_struct_struct@1@PAPA_K@Z 
01:00049DB4 ?_fromUnsigned64@core@@SAXPA_KPAPAUunsigned64_struct_struct@1@@Z 
--- From 'obj\core.5D9B9483.obj'
01:00049DE4 ?_toInteger64@core@@SAXPAUinteger64_struct_struct@1@PAPA_J@Z 
--- From 'obj\multithread_api.44799675.obj'
01:00049E04 ?_fromInteger64@core@@SAXPA_JPAPAUinteger64_struct_struct@1@@Z 
--- From 'obj\core.5D9B9483.obj'
01:00049E34 ?_presenter_value@core@@SAXPAUvalue_struct@1@PAPAUpresentation_struct@presenter@@@Z 
01:0004A0EC ?_presenter_value2@core@@SAXQAVrTypeLibrary@TypeLibraries@RunTime@VIP@@XPAPAUpresentation_struct@presenter@@@Z 
01:0004A120 ?_presenter_namedValue@core@@SAXQAVrTypeLibrary@TypeLibraries@RunTime@VIP@@PAUnamedValue_struct@1@XPAPAUpresentation_struct@presenter@@@Z 
01:0004A1C0 ?_presenter_packedCursor@core@@SAXPBU21@PAPAUpresentation_struct@presenter@@@Z  (Idle)
01:0004A270 ?_presenter_hResult@core@@SAXPBU21@PAPAUpresentation_struct@presenter@@@Z  (Idle)
01:0004A324 ?_presenter_hScopeDescriptor@core@@SAXPBU21@PAPAUpresentation_struct@presenter@@@Z  (Idle)
01:0004A3EC ?_presenter_gmtTimeValue@core@@SAXPAPBU21@PAPAUpresentation_struct@presenter@@@Z 
01:0004A3F4 ?_presenter_localTimeValue@core@@SAXPAPBU21@PAPAUpresentation_struct@presenter@@@Z 
01:0004A3FC ?_presenter_sourceCursor@core@@SAXPAUsourceCursor_struct@1@PAPAUpresentation_struct@presenter@@@Z 
01:0004A4D4 ?_presenter_programPoint@core@@SAXPAUprogramPoint_struct@1@PAPAUpresentation_struct@presenter@@@Z 
01:0004A588 ?nothing@core@@SAXXZ  (Idle)
01:0004A590 _Get1_2  (Idle)
01:0004A5B8 _Get1_3  (Idle)
01:0004A5E0 _Get1_4  (Idle)
01:0004A608 _Get1_5  (Idle)
01:0004A630 _Get1_6  (Idle)
01:0004A658 _Get1_7  (Idle)
01:0004A680 _Get1_8  (Idle)
01:0004A6A8 _Get1_9  (Idle)
01:0004A6D0 _Get1_10  (Idle)
01:0004A6F8 _Get1_11  (Idle)
01:0004A720 _Get1_12  (Idle)
01:0004A748 _Get2_2  (Idle)
01:0004A770 _Get2_3  (Idle)
01:0004A798 _Get2_4  (Idle)
01:0004A7C0 _Get2_5  (Idle)
01:0004A7E8 _Get2_6  (Idle)
01:0004A810 _Get2_7  (Idle)
01:0004A838 _Get2_8  (Idle)
01:0004A860 _Get2_9  (Idle)
01:0004A888 _Get2_10  (Idle)
01:0004A8B0 _Get2_11  (Idle)
01:0004A8D8 _Get2_12  (Idle)
01:0004A900 _Get3_3  (Idle)
01:0004A928 _Get3_4  (Idle)
01:0004A950 _Get3_5  (Idle)
01:0004A978 _Get3_6  (Idle)
01:0004A9A0 _Get3_7  (Idle)
01:0004A9C8 _Get3_8  (Idle)
01:0004A9F0 _Get3_9  (Idle)
01:0004AA18 _Get3_10  (Idle)
01:0004AA40 _Get3_11  (Idle)
01:0004AA68 _Get3_12  (Idle)
01:0004AA90 _Get4_4  (Idle)
01:0004AAB8 _Get4_5  (Idle)
01:0004AAE0 _Get4_6  (Idle)
01:0004AB08 _Get4_7  (Idle)
01:0004AB30 _Get4_8  (Idle)
01:0004AB58 _Get4_9  (Idle)
01:0004AB80 _Get4_10  (Idle)
01:0004ABA8 _Get4_11  (Idle)
01:0004ABD0 _Get4_12  (Idle)
01:0004ABF8 _Get5_5  (Idle)
01:0004AC20 _Get5_6  (Idle)
01:0004AC48 _Get5_7  (Idle)
01:0004AC70 _Get5_8  (Idle)
01:0004AC98 _Get5_9  (Idle)
01:0004ACC0 _Get5_10  (Idle)
01:0004ACE8 _Get5_11  (Idle)
01:0004AD10 _Get5_12  (Idle)
01:0004AD38 _Get6_6  (Idle)
01:0004AD60 _Get6_7  (Idle)
01:0004AD88 _Get6_8  (Idle)
01:0004ADB0 _Get6_9  (Idle)
01:0004ADD8 _Get6_10  (Idle)
01:0004AE00 _Get6_11  (Idle)
01:0004AE28 _Get6_12  (Idle)
01:0004AE50 _Get7_7  (Idle)
01:0004AE78 _Get7_8  (Idle)
01:0004AEA0 _Get7_9  (Idle)
01:0004AEC8 _Get7_10  (Idle)
01:0004AEF0 _Get7_11  (Idle)
01:0004AF18 _Get7_12  (Idle)
01:0004AF40 _Get8_8  (Idle)
01:0004AF68 _Get8_9  (Idle)
01:0004AF90 _Get8_10  (Idle)
01:0004AFB8 _Get8_11  (Idle)
01:0004AFE0 _Get8_12  (Idle)
01:0004B008 _Get9_9  (Idle)
01:0004B030 _Get9_10  (Idle)
01:0004B058 _Get9_11  (Idle)
01:0004B080 _Get9_12  (Idle)
01:0004B0A8 _Get10_10  (Idle)
01:0004B0D0 _Get10_11  (Idle)
01:0004B0F8 _Get10_12  (Idle)
01:0004B120 _Get11_11  (Idle)
01:0004B148 _Get11_12  (Idle)
01:0004B170 _Get12_12  (Idle)
01:0004B198 core$mkB_string  (Idle)
01:0004B1FC core$mkB_string8 
01:0004B250 core$mkB_binary  (Idle)
01:0004B290 ?_mkB_utf8@core@@SAXPB_WPAPAUbinary2_struct@1@@Z  (Idle)
01:0004B2B8 ?args@core@@SAPAUarguments_struct@1@XZ  (Idle)
01:0004B2E4 ?args2@core@@SAPAUarguments_struct@1@XZ  (Idle)
--- From 'obj\memory.568C55F8.obj'
01:0004B318 ?sameType@core@@SAXQAVrTypeLibrary@TypeLibraries@RunTime@VIP@@XX@Z 
--- From 'obj\core.5D9B9483.obj'
01:0004B320 ?_wrap$presenter_hScopeDescriptor@core@@SGPAUpresentation_struct@presenter@@QAVrTypeLibrary@TypeLibraries@RunTime@VIP@@X@Z 
01:0004B34C ?_wrap$presenter_packedCursor@core@@SGPAUpresentation_struct@presenter@@QAVrTypeLibrary@TypeLibraries@RunTime@VIP@@X@Z 
01:0004B378 ?_wrap$presenter_hResult@core@@SGPAUpresentation_struct@presenter@@QAVrTypeLibrary@TypeLibraries@RunTime@VIP@@X@Z 
--- From 'obj\presenter.E6E77556.obj'
01:0004B3B0 ?_present_term@presenter@@SAXQAVrTypeLibrary@TypeLibraries@RunTime@VIP@@XPAPAUpresentation_struct@1@@Z 
01:0004B3D4 ?_present_term_native@presenter@@SAXQAVrTypeLibrary@TypeLibraries@RunTime@VIP@@XPAPAUpresentation_struct@1@@Z 
01:0004B3F8 ?_present@presenter@@SAXPBUany@_builtIn@@PAPAUpresentation_struct@1@@Z 
01:0004B41C ?_present_native@presenter@@SAXPBUany@_builtIn@@PAPAUpresentation_struct@1@@Z 
01:0004B440 ?_presentDebug@presenter@@SAXPBUany@_builtIn@@PAUboolean_struct@3@PAUoptional_struct@core@@PA$?predicate$1@7@SAXPBUtraceId@exception@@@Z$PAPAUpresentDebugResult_struct@1@PAPAUpresentation_struct@1@@Z 
01:0004B764 ?_mkPresenter_fixedList@presenter@@SAXPAU?$__packedList_struct@PAUfieldPresentation_struct@1@@@PAPAUpresentation_struct@1@@Z  (Idle)
01:0004B790 ?_mkPresenter_fixedList@presenter@@SAXPB_WPAU?$__packedList_struct@PAUfieldPresentation_struct@1@@@PAPAUpresentation_struct@1@@Z 
01:0004B7D8 ?_mkPresenter_fixed@presenter@@SAXPAUfieldPresentation_struct@1@PAPAUpresentation_struct@1@@Z 
--- From 'obj\segmented.E9C86B20.obj'
01:0004B7FC ?_mkPresenter_fixed@presenter@@SAXPAUfieldPresentation_struct@1@0PAPAUpresentation_struct@1@@Z 
--- From 'obj\presenter.E6E77556.obj'
01:0004B83C ?_mkPresenter_fixed@presenter@@SAXPAUfieldPresentation_struct@1@00PAPAUpresentation_struct@1@@Z  (Idle)
01:0004B890 ?_mkPresenter_fixed@presenter@@SAXPAUfieldPresentation_struct@1@000PAPAUpresentation_struct@1@@Z  (Idle)
01:0004B8F8 ?_mkPresenter_fixed@presenter@@SAXPAUfieldPresentation_struct@1@0000PAPAUpresentation_struct@1@@Z 
01:0004B970 ?_mkPresenter_fixed@presenter@@SAXPAUfieldPresentation_struct@1@00000PAPAUpresentation_struct@1@@Z 
01:0004B9F8 ?_mkPresenter_fixed@presenter@@SAXPAUfieldPresentation_struct@1@000000PAPAUpresentation_struct@1@@Z 
01:0004BA94 ?_mkPresenter_fixed@presenter@@SAXPAUfieldPresentation_struct@1@0000000PAPAUpresentation_struct@1@@Z  (Idle)
01:0004BB44 ?_mkPresenter_fixed@presenter@@SAXPAUfieldPresentation_struct@1@00000000PAPAUpresentation_struct@1@@Z  (Idle)
01:0004BC08 ?_mkPresenter_fixed@presenter@@SAXPAUfieldPresentation_struct@1@000000000PAPAUpresentation_struct@1@@Z  (Idle)
01:0004BCDC ?_mkPresenter_delim@presenter@@SAXPB_WPAUfieldPresentation_struct@1@1PAPAUpresentation_struct@1@@Z 
01:0004BD1C ?_mkPresenter_delim@presenter@@SAXPB_WPAUfieldPresentation_struct@1@11PAPAUpresentation_struct@1@@Z  (Idle)
--- From 'obj\segmented.E9C86B20.obj'
01:0004BD70 ?_mkPresenter_delim@presenter@@SAXPB_WPAUfieldPresentation_struct@1@111PAPAUpresentation_struct@1@@Z 
01:0004BDD8 ?_mkPresenter_delim@presenter@@SAXPB_WPAUfieldPresentation_struct@1@1111PAPAUpresentation_struct@1@@Z 
--- From 'obj\presenter.E6E77556.obj'
01:0004BE50 ?_mkPresenter_delim@presenter@@SAXPB_WPAUfieldPresentation_struct@1@11111PAPAUpresentation_struct@1@@Z  (Idle)
01:0004BED8 ?_mkPresenter_delim@presenter@@SAXPB_WPAUfieldPresentation_struct@1@111111PAPAUpresentation_struct@1@@Z  (Idle)
01:0004BF74 ?_mkPresenter_delim@presenter@@SAXPB_WPAUfieldPresentation_struct@1@1111111PAPAUpresentation_struct@1@@Z  (Idle)
01:0004C024 ?_mkPresenter_delim@presenter@@SAXPB_WPAUfieldPresentation_struct@1@11111111PAPAUpresentation_struct@1@@Z  (Idle)
01:0004C0E8 ?_mkPresenter_delim@presenter@@SAXPB_WPAUfieldPresentation_struct@1@111111111PAPAUpresentation_struct@1@@Z  (Idle)
01:0004C1BC ?_mkNoExpand@presenter@@SAXQAVrTypeLibrary@TypeLibraries@RunTime@VIP@@PB_WXPAPAUpresentation_struct@1@@Z 
--- From 'obj\segmented.E9C86B20.obj'
01:0004C1F8 ?_mkExpand@presenter@@SAXQAVrTypeLibrary@TypeLibraries@RunTime@VIP@@PB_WXPAPAUpresentation_struct@1@@Z 
--- From 'obj\presenter.E6E77556.obj'
01:0004C238 ?_mkSub_term@presenter@@SAXQAVrTypeLibrary@TypeLibraries@RunTime@VIP@@0XPAPAUsubPresentation_struct@1@PAX@Z 
--- From 'obj\segmented.E9C86B20.obj'
01:0004C274 ?_mkFP_term@presenter@@SAXQAVrTypeLibrary@TypeLibraries@RunTime@VIP@@PB_WXPAPAUfieldPresentation_struct@1@@Z 
01:0004C2AC ?_mkFP_childOnly_term@presenter@@SAXQAVrTypeLibrary@TypeLibraries@RunTime@VIP@@PB_WXPAPAUfieldPresentation_struct@1@@Z 
--- From 'obj\presenter.E6E77556.obj'
01:0004C2EC ?_mkFP_pres@presenter@@SAXPB_WPA$?_function$1@core@@SAXPAPAUpresentation_struct@1@@Z$PAPAUfieldPresentation_struct@1@@Z  (Idle)
--- From 'obj\redblackset.DC1C3622.obj'
01:0004C330 ?_mkPresenter_set@presenter@@SAXQAVrTypeLibrary@TypeLibraries@RunTime@VIP@@PA$?_function_nd$1@core@@SAXPAX@Z$PAPAUpresentation_struct@1@@Z 
--- From 'obj\presenter.E6E77556.obj'
01:0004C37C ?_mkpresenter_setelements/1nf$1@presenter@@SAXPAUmkpresenter_setelements/1nf$1_struct@1@PAPAUsubPresentation_struct@1@PAPAUpresentation_struct@1@@Z 
01:0004C3F8 ?_mkPresenter_setElements@presenter@@SAXQAVrTypeLibrary@TypeLibraries@RunTime@VIP@@PA$?_function_nd$1@core@@SAXPAX@Z$PAPAUpresentation_struct@1@@Z 
01:0004C478 ?_mkPresenter_map@presenter@@SAXQAVrTypeLibrary@TypeLibraries@RunTime@VIP@@0PA$?_function_nd$1@core@@SAXPAPAUtuple_struct@1@PAXPAX@Z$PAPAUpresentation_struct@1@@Z 
01:0004C4D8 ?_mkpresenter_mapelements/2nf$1@presenter@@SAXPAUmkpresenter_mapelements/2nf$1_struct@1@PAPAUsubPresentation_struct@1@PAPAUpresentation_struct@1@@Z 
01:0004C60C ?_mkPresenter_mapElements@presenter@@SAXQAVrTypeLibrary@TypeLibraries@RunTime@VIP@@0PB_WPA$?_function_nd$1@core@@SAXPAPAUtuple_struct@1@PAXPAX@Z$PAPAUpresentation_struct@1@@Z 
01:0004C698 ?_presenter_flagset/2nf$1@presenter@@SAXPAUpresenter_flagset/2nf$1_struct@1@PAPAUsubPresentation_struct@1@PAPAUpresentation_struct@1@@Z 
01:0004C740 ?_presenter_flagset/2nf$2@presenter@@SAXPAUpresenter_flagset/2nf$2_struct@1@PAPAUpresentation_struct@1@@Z 
01:0004C800 ?_presenter_flagSet@presenter@@SAXIPAU?$__packedList_struct@PAUtuple_struct@core@@IPB_W@@PAPAUpresentation_struct@1@@Z  (Idle)
01:0004C898 ?_excludeddomainchecker/0nfv$1@presenter@@SAXPBUany@_builtIn@@QAVtypeLibrary@@reflection@pfc@@PAPAUboolean_struct@3@@Z 
01:0004C8AC ?excludedDomainChecker@presenter@@SGXX@Z  (Idle)
--- From 'obj\exception.B6F320E8.obj'
01:0004C8C0 _runtimeExceptionRaiser 
01:0004CA30 ?_exceptionFromExceptionCode@runtime_exception@@SAXIPAPAUexception_struct@core@@@Z 
01:0004CA94 ?_exceptionFromErrorCode@runtime_exception@@SAXIPAPAUexception_struct@core@@@Z 
01:0004D200 ?raise_externalError_explicit@exception_exception@@SAXPAUprogramPoint_struct@core@@PBUerrorCode@programControl@@PAU?$__packedList_struct@PAUnamedValue_struct@3@PAUvalue_struct@3@@@@Z  (Idle)
01:0004D270 ?_tryGetDescriptor@exception@@SAXPBUtraceId@1@PAUexception_struct@core@@PAPAUdescriptor_struct@1@@Z 
01:0004D2F4 ?findException@exception@@SAXPBUtraceId@1@PAU?$__packedList_struct@PAUexception_struct@core@@@@@Z  (Idle)
01:0004D350 ?_getDescriptor_nd@exception@@SAXPBUtraceId@1@PAPAUdescriptor_struct@1@@Z 
01:0004D4C4 ?_mkProgramPointDescriptor_explicit@exception@@SAXPAUprogramPoint_struct@core@@PAPAUprogramPointDescriptor_struct@1@@Z 
01:0004D508 ?_getDescriptorChain_nd@exception@@SAXQAVerrorDescriptorInformation@@@PAPAUdescriptor_struct@1@@Z 
01:0004D55C ?_getDescriptorChain1_nd@exception@@SAXQAVerrorDescriptorInformation@@@PAPAUdescriptor_struct@1@@Z 
01:0004D62C ?_getDescriptorChainFromPacked_nd@exception@@SAXPAU?$__packedList_struct@PAUnamedValue_struct@core@@PAUvalue_struct@3@@@PAPAUdescriptor_struct@1@@Z 
01:0004D6D0 ?_getTraceInfo_noLineInfo@exception@@SAXPBUtraceId@1@PAPAUtraceInfo_struct@1@@Z  (Idle)
01:0004D6EC ?_getTraceInfo@exception@@SAXPBUtraceId@1@PAPAUtraceInfo_struct@1@@Z 
01:0004D708 ?_getTraceInfo@exception@@SAXPBUtraceId@1@PAUboolean_struct@_builtIn@@PAPAUtraceInfo_struct@1@@Z 
01:0004D7CC ?_mkPlatformIndependent_descriptor@exception@@SAXPAUdescriptor_struct@1@PAPAU21@@Z 
01:0004D84C ?_getstacktrace_sync/2nf$1@exception@@SAXPAUgetstacktrace_sync/2nf$1_struct@1@PAPAU?$__packedList_struct@PAPAUlineInfo_struct@1@@@@Z 
01:0004D880 ?_getStackTrace_sync@exception@@SAXPBUtraceId@1@PAUboolean_struct@_builtIn@@PAPAU?$__packedList_struct@PAPAUlineInfo_struct@1@@@@Z 
01:0004D91C ?_getStackTrace@exception@@SAXPBUtraceId@1@PAUboolean_struct@_builtIn@@PAPAU?$__packedList_struct@PAPAUlineInfo_struct@1@@@@Z 
01:0004D994 ?_getStackInfo_nd@exception@@SAXQAVtrapInformationObject@@@PAUboolean_struct@_builtIn@@PAPAUlineInfo_struct@1@@Z 
01:0004DAE0 ?_getModuleHandleByAddress@exception@@SAXPAXAAUhModule@core@@@Z  (Idle)
01:0004DB30 ?_getModuleNameByAddress@exception@@SAXPAXPAPB_W@Z  (Idle)
01:0004DB88 ?_tryGetLineInfo@exception@@SAXPAXPAUboolean_struct@_builtIn@@PAPAUlineInfo_struct@1@@Z 
01:0004DC64 ?_tryGetExtraInfo@exception@@SAXPAUdescriptor_struct@1@PB_WPAPAUvalue_struct@core@@@Z  (Idle)
01:0004DC7C ?_searchInfoList@exception@@SAXPAU?$__packedList_struct@PAUnamedValue_struct@core@@PAUvalue_struct@3@@@PB_WPAPAU43@@Z 
01:0004DCE0 ?_getErrorCode@exception@@SAXPBUtraceId@1@PAI@Z 
01:0004DD24 ?_tryGetErrorDescriptorInformation@exception@@SAXPBUtraceId@1@PAPAVerrorDescriptorInformation@@@@Z 
01:0004DD4C ?_tryGetErrorDescriptorInformation1@exception@@SAXQAVtrapInformationObject@@@PAPAVerrorDescriptorInformation@@@@Z 
01:0004DD70 ?_getTrapInformationObject@exception@@SAXPBUtraceId@1@PAPAVtrapInformationObject@@@@Z  (Idle)
01:0004DE3C ?_tryGetTrapInformationObject@exception@@SAXPBUtraceId@1@PAPAVtrapInformationObject@@@@Z 
01:0004DEC4 ?raiseDetailed_explicit@exception@@SAXPAUprogramPoint_struct@core@@PAUexception_struct@3@PAU?$__packedList_struct@PAUnamedValue_struct@3@PAUvalue_struct@3@@@@Z 
--- From 'obj\time_api.0FD0D46D.obj'
01:0004DEE0 ?raise_explicit@exception@@SAXPAUprogramPoint_struct@core@@PAUexception_struct@3@PAU?$__packedList_struct@PAUnamedValue_struct@3@PAUvalue_struct@3@@@@Z 
--- From 'obj\exception.B6F320E8.obj'
01:0004DF1C ?raise_error_explicit@exception@@SAXQAVrTypeLibrary@TypeLibraries@RunTime@VIP@@PAUprogramPoint_struct@core@@@Z 
--- From 'obj\redblackset.DC1C3622.obj'
01:0004DF34 ?raise_error_explicit@exception@@SAXPAUprogramPoint_struct@core@@@Z 
--- From 'obj\exception.B6F320E8.obj'
01:0004DF5C ?raise_exception_explicit@exception@@SAXPAUprogramPoint_struct@core@@PAUexception_struct@3@@Z  (Idle)
01:0004DF88 ?raise_user_explicit@exception@@SAXPAUprogramPoint_struct@core@@PB_WPAU?$__packedList_struct@PAUnamedValue_struct@3@PAUvalue_struct@3@@@@Z 
01:0004DFA8 ?raise_user_explicit@exception@@SAXPAUprogramPoint_struct@core@@PAUexception_struct@3@PB_WPAU?$__packedList_struct@PAUnamedValue_struct@3@PAUvalue_struct@3@@@@Z 
01:0004E018 ?_raise_definiteUser_explicit@exception@@SAXQAVrTypeLibrary@TypeLibraries@RunTime@VIP@@PAUprogramPoint_struct@core@@PB_WPAU?$__packedList_struct@PAUnamedValue_struct@3@PAUvalue_struct@3@@@PAX@Z  (Idle)
01:0004E034 ?raise_definiteUser_explicit@exception@@SAXPAUprogramPoint_struct@core@@PB_WPAU?$__packedList_struct@PAUnamedValue_struct@3@PAUvalue_struct@3@@@@Z 
01:0004E054 ?_raise_definiteUser_explicit@exception@@SAXQAVrTypeLibrary@TypeLibraries@RunTime@VIP@@PAUprogramPoint_struct@core@@PAUexception_struct@3@PB_WPAU?$__packedList_struct@PAUnamedValue_struct@3@PAUvalue_struct@3@@@PAX@Z  (Idle)
--- From 'obj\filesystem_api.DE0803A2.obj'
01:0004E070 ?raise_definiteUser_explicit@exception@@SAXPAUprogramPoint_struct@core@@PAUexception_struct@3@PB_WPAU?$__packedList_struct@PAUnamedValue_struct@3@PAUvalue_struct@3@@@@Z 
--- From 'obj\exception.B6F320E8.obj'
01:0004E0F4 ?raise_packed_explicit@exception@@SAXPAUprogramPoint_struct@core@@PAUtraceInfo_struct@1@@Z  (Idle)
--- From 'obj\memory.568C55F8.obj'
01:0004E188 ?raise_errorf_explicit@exception@@SAXQAVrTypeLibrary@TypeLibraries@RunTime@VIP@@PAUprogramPoint_struct@core@@PB_W@Z 
--- From 'obj\reflection.ACE59E5C.obj'
01:0004E1A4 ?raise_errorf_explicit@exception@@SAXPAUprogramPoint_struct@core@@PB_W@Z 
--- From 'obj\exception.B6F320E8.obj'
01:0004E1D8 ?raise_couldNotCreate_explicit@exception@@SAXPAUprogramPoint_struct@core@@PAU?$__packedList_struct@PAUnamedValue_struct@3@PAUvalue_struct@3@@@@Z  (Idle)
01:0004E1F4 ?raise_removeListener_explicit@exception@@SAXPAUprogramPoint_struct@core@@PB_W@Z  (Idle)
--- From 'obj\time_api.0FD0D46D.obj'
01:0004E268 ?raise_nativeCallException_explicit@exception@@SAXPAUprogramPoint_struct@core@@PB_WPBUhResult@3@PAU?$__packedList_struct@PAUnamedValue_struct@3@PAUvalue_struct@3@@@@Z 
--- From 'obj\exception.B6F320E8.obj'
01:0004E29C ?raise_nativeCallException_explicit@exception@@SAXPAUprogramPoint_struct@core@@PB_WPBUhResult@3@1PAU?$__packedList_struct@PAUnamedValue_struct@3@PAUvalue_struct@3@@@@Z 
--- From 'obj\filesystem_api.DE0803A2.obj'
01:0004E32C ?checkOk_nativeCallException_explicit@exception@@SAXPAUprogramPoint_struct@core@@PBUhResult@3@PAU?$__packedList_struct@PAUnamedValue_struct@3@PAUvalue_struct@3@@@@Z 
--- From 'obj\exception.B6F320E8.obj'
01:0004E358 ?_addErrorCode@exception@@SAXPAUprogramPoint_struct@core@@PBUhResult@3@PB_WPAU?$__packedList_struct@PAUnamedValue_struct@3@PAUvalue_struct@3@@@PAPAU?$__packedList_struct@PAPAU63@PAPAU83@@@@Z 
--- From 'obj\filesystem_api.DE0803A2.obj'
01:0004E494 ?_addErrorCode@exception@@SAXPBUhResult@core@@PAU?$__packedList_struct@PAUnamedValue_struct@3@PAUvalue_struct@3@@@PAPAU?$__packedList_struct@PAPAU43@PAPAU63@@@@Z 
--- From 'obj\exception.B6F320E8.obj'
01:0004E4E8 ?raise_nativeCallUnspecifiedException_explicit@exception@@SAXPAUprogramPoint_struct@core@@PB_W1PAU?$__packedList_struct@PAUnamedValue_struct@3@PAUvalue_struct@3@@@@Z 
01:0004E5C4 ?raise_nativeCallUnspecifiedException_explicit@exception@@SAXPAUprogramPoint_struct@core@@PB_WPAU?$__packedList_struct@PAUnamedValue_struct@3@PAUvalue_struct@3@@@@Z 
01:0004E64C ?raise_notImplemented_explicit@exception@@SAXPAUprogramPoint_struct@core@@PB_W@Z  (Idle)
01:0004E6D4 ?raise_unsupportedPredicate_explicit@exception@@SAXPAUprogramPoint_struct@core@@@Z 
01:0004E6F0 ?raise_overloadingExpected_explicit@exception@@SAXPAUprogramPoint_struct@core@@@Z  (Idle)
01:0004E70C ?raise_indexOutOfRange_explicit@exception@@SAXPAUprogramPoint_struct@core@@HH@Z 
01:0004E7D4 ?check_indexOutOfRange_explicit@exception@@SAXPAUprogramPoint_struct@core@@HH@Z 
01:0004E7F8 ?continueDetailed_explicit@exception@@SAXPAUprogramPoint_struct@core@@PBUtraceId@1@PAUexception_struct@3@PAU?$__packedList_struct@PAUnamedValue_struct@3@PAUvalue_struct@3@@@@Z  (Idle)
01:0004E814 ?continue_explicit@exception@@SAXPAUprogramPoint_struct@core@@PBUtraceId@1@PAUexception_struct@3@PAU?$__packedList_struct@PAUnamedValue_struct@3@PAUvalue_struct@3@@@@Z 
01:0004E85C ?addContinue2@exception@@SAXPAUprogramPoint_struct@core@@QAVtrapInformationObject@@@PAUexception_struct@3@PAU?$__packedList_struct@PAUnamedValue_struct@3@PAUvalue_struct@3@@@@Z 
01:0004E96C ?addContinue_explicit@exception@@SAXPAUprogramPoint_struct@core@@PBUtraceId@1@PAUexception_struct@3@PAU?$__packedList_struct@PAUnamedValue_struct@3@PAUvalue_struct@3@@@@Z  (Idle)
01:0004E994 ?addContinue_unknown_explicit@exception@@SAXPAUprogramPoint_struct@core@@PBUtraceId@1@@Z  (Idle)
01:0004E9C4 ?continue_exceptionInListener_explicit@exception@@SAXPAUprogramPoint_struct@core@@PBUtraceId@1@PB_W@Z  (Idle)
01:0004EA38 ?continue_unknown_explicit@exception@@SAXPAUprogramPoint_struct@core@@PBUtraceId@1@@Z 
01:0004EA68 ?continue_unknownf_explicit@exception@@SAXPAUprogramPoint_struct@core@@PBUtraceId@1@PB_W@Z  (Idle)
01:0004EA9C ?continue_user_explicit@exception@@SAXPAUprogramPoint_struct@core@@PBUtraceId@1@PB_WPAU?$__packedList_struct@PAUnamedValue_struct@3@PAUvalue_struct@3@@@@Z 
01:0004EAC0 ?continue_user_explicit@exception@@SAXPAUprogramPoint_struct@core@@PBUtraceId@1@PAUexception_struct@3@PB_WPAU?$__packedList_struct@PAUnamedValue_struct@3@PAUvalue_struct@3@@@@Z 
01:0004EB34 ?continue_definiteUser_explicit@exception@@SAXPAUprogramPoint_struct@core@@PBUtraceId@1@PB_WPAU?$__packedList_struct@PAUnamedValue_struct@3@PAUvalue_struct@3@@@@Z  (Idle)
01:0004EB58 ?continue_definiteUser_explicit@exception@@SAXPAUprogramPoint_struct@core@@PBUtraceId@1@PAUexception_struct@3@PB_WPAU?$__packedList_struct@PAUnamedValue_struct@3@PAUvalue_struct@3@@@@Z 
01:0004EBE0 ?isDefiniteUserError@exception@@SAXPBUtraceId@1@@Z  (Idle)
01:0004EC1C ?_getLastErrorDescription@exception@@SAXPBUhResult@core@@PAPB_W@Z 
01:0004EC6C ?_makeCallStack@exception@@SAXPAPAU?$__packedList_struct@PAPAUlineInfo_struct@1@@@@Z  (Idle)
01:0004ECA0 ?_tryGetExceptionDescription@exception@@SAXPBUtraceId@1@PAPB_W@Z 
01:0004ED84 ?_mkTraceId@exception@@SAXXAAUtraceId@1@@Z  (Idle)
01:0004EDC8 ?_trySplitAny2List@exception@@SAXPAU?$__packedList_struct@PBUany@_builtIn@@@@PAPAU?$__packedList_struct@PAPAUtuple_struct@core@@PAPB_WAAU23@@@@Z  (Idle)
01:0004EE98 ?mkErrorArguments@exception@@SAPAU?$__packedList_struct@PAUnamedValue_struct@core@@PAUvalue_struct@3@@@XZ 
01:0004F440 ?mkErrorArgumentsf@exception@@SAPAU?$__packedList_struct@PAUnamedValue_struct@core@@PAUvalue_struct@3@@@PAUprogramPoint_struct@3@PB_W@Z 
01:0004F4B8 ?format@exception@@SAPB_WPAUprogramPoint_struct@core@@0@Z 
01:0004F514 ?__lateFactInit$getstacktrace_cs$0$exception@classDB@1@SAXPAPAVcriticalSection@@@@Z 
01:0004F530 ?new$@errorDescriptorInformation@@SAXQAV1@@PAUprogramPoint_struct@core@@PAUexception_struct@4@PAUkind_struct@exception@@PAU?$__packedList_struct@PAUnamedValue_struct@4@PAUvalue_struct@4@@@PAPBUgmtTimeValue@4@PBUthreadId@multiThread_native@@@Z  (Idle)
01:0004F5B8 ?gmtTimeFormatted@errorDescriptorInformation@@SGPB_WQAV1@@@Z 
01:0004F5E4 ?_tryGetContinueException$@errorDescriptorInformation@@SAXQAV1@@PAPAV1@@@Z 
01:0004F608 ?setContinueException$@errorDescriptorInformation@@SAXQAV1@@0@Z 
01:0004F630 ?_create@errorDescriptorInformation@@SAXPAUprogramPoint_struct@core@@PAUexception_struct@3@PAUkind_struct@exception@@PAU?$__packedList_struct@PAUnamedValue_struct@3@PAUvalue_struct@3@@@PAPAV1@@@Z 
01:0004F674 ?exceptionDescription@errorDescriptorInformation@@SGPB_WQAV1@@@Z 
01:0004F694 ?_formatDateTime@errorDescriptorInformation@@SAXPAPBUgmtTimeValue@core@@PAPB_W@Z 
01:0004F720 ?_new@errorDescriptorInformation@@SAXPAUprogramPoint_struct@core@@PAUexception_struct@3@PAUkind_struct@exception@@PAU?$__packedList_struct@PAUnamedValue_struct@3@PAUvalue_struct@3@@@PAPBUgmtTimeValue@3@PBUthreadId@multiThread_native@@PAPAV1@@@Z 
01:0004F758 ?exception@errorDescriptorInformation@@SGPAUexception_struct@core@@QAV1@@@Z 
01:0004F764 ?programPointDescriptor@errorDescriptorInformation@@SGPAUprogramPointDescriptor_struct@exception@@QAV1@@@Z 
01:0004F770 ?kind@errorDescriptorInformation@@SGPAUkind_struct@exception@@QAV1@@@Z 
01:0004F77C ?extraInfo@errorDescriptorInformation@@SGXQAV1@@PAU?$__packedList_struct@PAUnamedValue_struct@core@@PAUvalue_struct@4@@@@Z 
01:0004F78C ?extraInfo@errorDescriptorInformation@@SGPAU?$__packedList_struct@PAUnamedValue_struct@core@@PAUvalue_struct@3@@@QAV1@@@Z 
01:0004F798 ?_gmtTime@errorDescriptorInformation@@SAXQAV1@@PAAAUgmtTimeValue@core@@@Z 
01:0004F7AC ?threadId@errorDescriptorInformation@@SGPBU0multiThread_native@@QAV1@@@Z 
01:0004F7C0 errorDescriptorInformation?_initObject@@@QAGXQAV1@H@Z 
01:0004F7D8 ?@create_object@errorDescriptorInformation@@SGQAV1@@XZ 
01:0004F7F4 errorDescriptorInformation?_InternalFinalizer@@@QAGXQAV1@@Z 
--- From 'obj\programcontrol.2B27F1CB.obj'
01:0004F800 ?_setRuntimeExceptionRaiser@programControl@@SAXXPAX@Z 
--- From 'obj\reflection.ACE59E5C.obj'
01:0004F840 ?_getScopeDescriptor@reflection_native@reflection@pfc@@SAXPBUhScopeDescriptor@core@@PAPAVscopeDescriptor@@23@@Z 
01:0004F850 ?isPointerNull@reflection_native@reflection@pfc@@SAXQAVrTypeLibrary@TypeLibraries@RunTime@VIP@@X@Z  (Idle)
01:0004F864 ?isPointerNullEx@reflection_native@reflection@pfc@@SAXQAVtypeLibrary@@23@PBUboxedTerm@223@@Z 
01:0004F884 ?isPointerValidEx@reflection_native@reflection@pfc@@SAXQAVtypeLibrary@@23@PBUboxedTerm@223@@Z 
01:0004F99C ?isListType@reflection_native@reflection@pfc@@SAXQAVtypeLibrary@@23@@Z  (Idle)
01:0004F9DC ?isEndOfList@reflection_native@reflection@pfc@@SAXPBUboxedTerm@223@@Z  (Idle)
01:0004F9F4 ?isSomeType@reflection_native@reflection@pfc@@SAXQAVtypeLibrary@@23@@Z  (Idle)
01:0004FA54 ?expandAnyTerm@reflection_native@reflection@pfc@@SAXPBUany@_builtIn@@PAPAVtypeLibrary@@23@AAUboxedTerm@223@@Z 
01:0004FA70 ?_mk_anyTerm@reflection_native@reflection@pfc@@SAXQAVtypeLibrary@@23@PBUboxedTerm@223@AAUany@_builtIn@@@Z  (Idle)
01:0004FA9C ?_getTypeDescriptor@reflection_native@reflection@pfc@@SAXQAVtypeLibrary@@23@PAPAVtypeDescriptor@@23@@Z  (Idle)
01:0004FACC ?expandPrologPredicateValue@reflection_native@reflection@pfc@@SAXPBUboxedTerm@223@PAPAXPAPAVobject@@@@Z  (Idle)
01:0004FB10 ?_mk_prologPredicateValue@reflection_native@reflection@pfc@@SAXPAXQAVobject@@@AAUboxedTerm@223@@Z  (Idle)
01:0004FB3C ?expandFormalParameter@reflection_native@reflection@pfc@@SAXPAUformalParameter_struct@typeLibrary_arrow@23@PAPAVtypeLibrary@@23@PAPAUargumentFlow_struct@223@AAUarity@223@PAPAUoptional_struct@core@@PAPAUtypePattern_struct@523@@Z  (Idle)
01:0004FB90 ?expandFactDbValue@reflection_native@reflection@pfc@@SAXPBUboxedTerm@223@PAPAVtypeLibrary@@23@PAPAVobject@@@@Z  (Idle)
01:0004FBAC ?isPrologObject@reflection_native@reflection@pfc@@SAXQAVobject@@@@Z  (Idle)
01:0004FBCC ?tryGetPrologObjectDescription@reflection_native@reflection@pfc@@SAXQAVobject@@@PAPAUviewDescriptor_struct@123@PAPAUviewDescriptorTableHeader_struct@123@@Z  (Idle)
01:0004FC34 ?_tryGetViewDescriptorPtr@reflection_native@reflection@pfc@@SAXQAVobject@@@PAPAX@Z 
01:0004FC80 ?_getClassTypeParameters@reflection_native@reflection@pfc@@SAXQAVobject@@@PAUviewDescriptorTableHeader_struct@123@PAPAU?$__packedList_struct@PAPAUtuple_struct@core@@PAPB_WPAPAVtypeLibrary@@23@@@@Z  (Idle)
01:0004FE5C ?getPrologObjectOffsets@reflection_native@reflection@pfc@@SAXIAAUbyteOffset@core@@1@Z  (Idle)
01:0004FE80 ?_tryGetConstructionInterfaceTypeDescriptor@reflection_native@reflection@pfc@@SAXQAVscopeDescriptor@@23@PAPAVtypeDescriptor@@23@@Z  (Idle)
01:0004FEC4 ?_tryGetInterfaceScopeDescriptor@reflection_native@reflection@pfc@@SAXQAVtypeDescriptor@@23@PAPAVscopeDescriptor@@23@@Z  (Idle)
01:0004FF08 ?_tryGetObjectClassDescriptor@reflection_native@reflection@pfc@@SAXQAVobject@@@PAPAVscopeDescriptor@@23@@Z  (Idle)
01:0004FF3C ?tryGetObjectClassInfo@reflection_native@reflection@pfc@@SAXQAVscopeDescriptor@@23@AAUbyteCount@core@@PAPAU?$__packedList_struct@PAPAV4@23@@@@Z  (Idle)
01:000500C0 ?_setPresenter@reflection_native@reflection@pfc@@SAXQAVtypeLibrary@@23@XPAX@Z  (Idle)
01:00050168 ?_getPresenterDescriptor@reflection_native@reflection@pfc@@SAXQAVtypeLibrary@@23@PAPAUpresenterDescriptor_struct@123@@Z 
01:000501A4 ?isNullaryStruct@reflection_native@reflection@pfc@@SAXQAVtypeLibrary@@23@@Z 
01:00050208 ?isAnonymousPredicateClosure@reflection_native@reflection@pfc@@SAXPAUprologPredicateValue_struct@123@@Z  (Idle)
01:00050254 ?_tryGetInterfaceViewDescriptor@reflection_native@reflection@pfc@@SAXQAVscopeDescriptor@@23@QAVobject@@@PAPAUviewDescriptor_struct@123@@Z  (Idle)
01:000502E8 ?isViewDescriptorForInterface@reflection_native@reflection@pfc@@SAXQAVscopeDescriptor@@23@PAUviewDescriptor_struct@123@@Z 
01:00050308 ?_lookupInterfaceInViewDescriptorTable@reflection_native@reflection@pfc@@SAXQAVscopeDescriptor@@23@PAXPAPAUviewDescriptor_struct@123@@Z 
01:000503F4 ?_tryGetObjectStructure@reflection_native@reflection@pfc@@SAXQAVobject@@@PAPAUobjectStructure_struct@123@@Z  (Idle)
01:00050434 ?_tryGetObjectStructure_internal@reflection_native@reflection@pfc@@SAXQAVobject@@@0PAUoptional_struct@core@@QAVvarM@@@PAXPAPAUobjectStructure_struct@123@@Z 
01:000505BC ?_getSubobjectList@reflection_native@reflection@pfc@@SAXQAVobject@@@QAVvarM@@@PAXPBUbyteCount@core@@PAU?$__packedList_struct@QAVscopeDescriptor@@23@@@PAPAU?$__packedList_struct@PAPAUobjectStructure_struct@123@@@@Z 
01:00050764 ?isValidTypeLibrary@reflection_native@reflection@pfc@@SAXQAVtypeLibrary@@23@@Z  (Idle)
01:0005078C ?isKnownTypeLibraryVTBL@reflection_native@reflection@pfc@@SAXPAX@Z 
01:0005082C ?isValidTypeLibraryArguments@reflection_native@reflection@pfc@@SAXQAVtypeLibrary@@23@@Z 
01:000508B4 ?typeLibraryDependsOnSomeType@reflection_native@reflection@pfc@@SAXQAVtypeLibrary@@23@@Z  (Idle)
01:0005093C ?_mk_typeLibrary@reflection_native@reflection@pfc@@SAXQAVtypeDescriptor@@23@PAU?$__packedList_struct@QAV7@23@@@PAPAV7@23@@Z  (Idle)
01:00050A94 ?_getTypeLibraryVTBL@reflection_native@reflection@pfc@@SAXQAVtypeDescriptor@@23@PAPAX@Z 
01:00050B9C ?setTypeLibraryArguments@reflection_native@reflection@pfc@@SAXPAU?$__packedList_struct@QAVtypeLibrary@@23@@@PAX@Z 
01:00050BE4 ?termRepresentedByValue@reflection_native@reflection@pfc@@SAXQAVtypeLibrary@@23@@Z 
01:00050C48 ?_tryGetFunctorName@reflection@1pfc@@SAXQAVrTypeLibrary@TypeLibraries@RunTime@VIP@@XPAPB_W@Z  (Idle)
01:00050C78 ?_getFunctorName@reflection@1pfc@@SAXQAVrTypeLibrary@TypeLibraries@RunTime@VIP@@XPAPB_W@Z  (Idle)
01:00050D1C ?_offsetOfTl@reflection@1pfc@@SAXQAVtypeLibrary@@13@IAAUbyteOffset@core@@@Z  (Idle)
01:00050E88 ?_offsetOf@reflection@1pfc@@SAXQAVrTypeLibrary@TypeLibraries@RunTime@VIP@@XIAAUbyteOffset@core@@@Z  (Idle)
01:00050EE4 ?_pointerOfField@reflection@1pfc@@SAXQAVrTypeLibrary@TypeLibraries@RunTime@VIP@@XIPAPAX@Z  (Idle)
01:00050F0C ?_deParameterizeName@reflection@1pfc@@SAXPB_WPAPB_W@Z  (Idle)
01:00050F54 ?isEmbeddedClassName@reflection@1pfc@@SAXPB_W@Z  (Idle)
01:00050FD8 reflection$noboxing 
01:00050FE8 ?_unbox_char@reflection@1pfc@@SAXPBUboxedTerm@113@PA_W@Z  (Idle)
01:00050FFC ?_box_integer@reflection@1pfc@@SAXHAAUboxedTerm@113@@Z  (Idle)
01:0005100C ?_box_unsigned@reflection@1pfc@@SAXIAAUboxedTerm@113@@Z  (Idle)
01:0005101C ?_box_char@reflection@1pfc@@SAX_WAAUboxedTerm@113@@Z  (Idle)
01:00051030 ?_box_real32@reflection@1pfc@@SAXMAAUboxedTerm@113@@Z  (Idle)
01:00051040 ?_mustGetFunctorTypeLibrary_explicit@reflection@1pfc@@SAXPAUprogramPoint_struct@core@@QAVtypeLibrary@@13@PAPAVtypeLibrary_functor@@13@@Z  (Idle)
01:00051084 ?unexpectedTypeLibrary@reflection@1pfc@@SAXPAUprogramPoint_struct@core@@PB_WQAVtypeLibrary@@13@@Z 
01:000510E8 ?_mustGetNumericTypeLibrary_explicit@reflection@1pfc@@SAXPAUprogramPoint_struct@core@@QAVtypeLibrary@@13@PAPAVtypeLibrary_numeric@@13@@Z  (Idle)
01:0005112C ?_mustGetArrowTypeLibrary_explicit@reflection@1pfc@@SAXPAUprogramPoint_struct@core@@QAVtypeLibrary@@13@PAPAVtypeLibrary_arrow@@13@@Z  (Idle)
01:00051170 ?_mustGetInterfaceDescriptor_explicit@reflection@1pfc@@SAXPAUprogramPoint_struct@core@@QAVtypeLibrary@@13@PAPAVscopeDescriptor@@13@@Z  (Idle)
01:000511B4 ?_mustGetInlineSizeInTypeElements_explicit@reflection@1pfc@@SAXPAUprogramPoint_struct@core@@QAVtypeLibrary_functor@@13@AAUbyteCount@5@@Z  (Idle)
01:00051208 ?mustGetNumericRange_integer_explicit@reflection@1pfc@@SAXPAUprogramPoint_struct@core@@QAVtypeLibrary_numeric@@13@PAHPAH@Z  (Idle)
01:000512A0 ?unexpectedNumericRange@reflection@1pfc@@SAXPAUprogramPoint_struct@core@@QAVtypeLibrary_numeric@@13@@Z 
01:00051338 ?mustGetNumericRange_integer64_explicit@reflection@1pfc@@SAXPAUprogramPoint_struct@core@@QAVtypeLibrary_numeric@@13@PAPA_J2@Z  (Idle)
01:000513B0 ?mustGetNumericRange_unsigned_explicit@reflection@1pfc@@SAXPAUprogramPoint_struct@core@@QAVtypeLibrary_numeric@@13@PAIPAI@Z  (Idle)
01:00051448 ?mustGetNumericRange_unsigned64_explicit@reflection@1pfc@@SAXPAUprogramPoint_struct@core@@QAVtypeLibrary_numeric@@13@PAPA_K2@Z  (Idle)
01:000514C0 ?mustGetNumericRange_real_explicit@reflection@1pfc@@SAXPAUprogramPoint_struct@core@@QAVtypeLibrary_numeric@@13@PAPAN2@Z  (Idle)
01:00051558 ?_tryGetListElementTypeLibrary@reflection@1pfc@@SAXQAVtypeLibrary@@13@PAPAV4@13@@Z  (Idle)
01:000515A8 ?writeTypeName@reflection@1pfc@@SAXQAVtypeLibrary@@13@QAVoutputStream@@@@Z  (Idle)
01:00051760 ?typeLibraryName2stream@reflection@1pfc@@SAXQAVtypeLibrary@@13@QAVoutputStream@@@@Z 
01:00051864 ?comma2stream_iffNotFirst@reflection@1pfc@@SAXQAVvarM_boolean@@@QAVoutputStream@@@@Z 
01:000518E4 ?_tryGetObjectName@reflection@1pfc@@SAXQAVobject@@@PAPB_W@Z  (Idle)
01:000519C8 ?_getSubstitutedClassName@reflection@1pfc@@SAXPB_WPAU?$__packedList_struct@PAUtuple_struct@core@@0QAVtypeLibrary@@13@@@PAPB_W@Z 
01:00051B6C ?_getTypeName@reflection@1pfc@@SAXQAVtypeLibrary@@13@PAPB_W@Z 
01:00051BC8 ?_unbox_unsigned@reflection@1pfc@@SAXPBUboxedTerm@113@PAI@Z  (Idle)
01:00051BD8 ?_unbox_integer@reflection@1pfc@@SAXPBUboxedTerm@113@PAH@Z  (Idle)
01:00051BE8 ?_unbox_integer64@reflection@1pfc@@SAXPBUboxedTerm@113@PAPA_J@Z  (Idle)
01:00051C08 ?_unbox_unsigned64@reflection@1pfc@@SAXPBUboxedTerm@113@PAPA_K@Z  (Idle)
01:00051C28 ?_unbox_real@reflection@1pfc@@SAXPBUboxedTerm@113@PAPAN@Z  (Idle)
01:00051C48 ?_unbox_real32@reflection@1pfc@@SAXPBUboxedTerm@113@PAM@Z  (Idle)
01:00051C58 ?_box_integer64@reflection@1pfc@@SAXPA_JAAUboxedTerm@113@@Z  (Idle)
01:00051C88 ?_box_unsigned64@reflection@1pfc@@SAXPA_KAAUboxedTerm@113@@Z  (Idle)
01:00051CB8 ?_box_real@reflection@1pfc@@SAXPANAAUboxedTerm@113@@Z  (Idle)
--- From 'obj\stream.8B55AAA7.obj'
01:00051CF0 ?withStream@streamExtension@@SAXQAVrTypeLibrary@TypeLibraries@RunTime@VIP@@XPA$?predicate$1@core@@SAXX@Z$@Z  (Idle)
01:00051D94 ?_withStream@streamExtension@@SAXQAVrTypeLibrary@TypeLibraries@RunTime@VIP@@0XPA$?_function$2@core@@SAXXPAX@Z$PAX@Z  (Idle)
01:00051E3C ?raise_endOfStream_explicit@stream_exception@@SAXPAUprogramPoint_struct@core@@@Z 
01:00051E58 ?raise_notSupportedProperty_explicit@stream_exception@@SAXPAUprogramPoint_struct@core@@@Z 
01:00051E74 ?raise_noCRLFconversion_explicit@stream_exception@@SAXPAUprogramPoint_struct@core@@@Z 
--- From 'obj\inputstreamsupport.7AF62102.obj'
01:00051E90 ?raise_wrongMode_explicit@stream_exception@@SAXPAUprogramPoint_struct@core@@PB_W@Z 
--- From 'obj\stream.8B55AAA7.obj'
01:00051F04 ?raise_noStream_explicit@stream_exception@@SAXPAUprogramPoint_struct@core@@@Z  (Idle)
01:00051F20 ?_tryGetInputStream$@stdioState@@SAXQAV1@@PAPAVinputStream@@@@Z 
01:00051F44 ?_tryGetOutputStream$@stdioState@@SAXQAV1@@PAPAVoutputStream@@@@Z 
01:00051F68 ?_tryGetErrorStream$@stdioState@@SAXQAV1@@PAPAVoutputStream@@@@Z 
01:00051F8C ?new$@stdioState@@SAXQAV1@@@Z  (Idle)
01:00051F94 ?_new@stdioState@@SAXPAPAV1@@@Z  (Idle)
01:00051FB8 ?_object_facts_initializer$@stdioState@@SGXQAV1@@@Z 
01:00051FD4 ?inputStream@stdioState@@SGXQAV1@@QAV0@@@Z 
01:00051FE4 ?inputStream@stdioState@@SGQAV0@@QAV1@@@Z 
01:00052000 ?outputStream@stdioState@@SGXQAV1@@QAV0@@@Z 
01:00052010 ?outputStream@stdioState@@SGQAV0@@QAV1@@@Z 
01:0005202C ?errorStream@stdioState@@SGXQAV1@@QAVoutputStream@@@@Z 
01:0005203C ?errorStream@stdioState@@SGQAVoutputStream@@@QAV1@@@Z 
01:00052058 ?inputStream@stdio@@SGQAV0@@XZ  (Idle)
01:00052098 ?inputStream@stdio@@SGXQAV0@@@Z 
01:000520D8 ?_tryGetInputStream@stdio@@SAXPAPAVinputStream@@@@Z  (Idle)
01:00052124 ?outputStream@stdio@@SGQAV0@@XZ  (Idle)
01:00052164 ?outputStream@stdio@@SGXQAV0@@@Z 
01:000521A4 ?_tryGetOutputStream@stdio@@SAXPAPAVoutputStream@@@@Z 
01:000521F0 ?errorStream@stdio@@SGQAVoutputStream@@@XZ  (Idle)
01:00052230 ?errorStream@stdio@@SGXQAVoutputStream@@@@Z 
01:00052270 ?_tryGetErrorStream@stdio@@SAXPAPAVoutputStream@@@@Z 
01:000522BC ?write@stdio@@SAXXZ 
01:000522F8 ?writef@stdio@@SAXPB_W@Z  (Idle)
01:0005233C ?writeBytes@stdio@@SAXPAXPBUbyteCount@core@@@Z  (Idle)
01:00052380 ?writeQuoted@stdio@@SAXXZ  (Idle)
01:000523BC ?nl@stdio@@SAXXZ 
01:000523E8 ?save@stdio@@SAXPBUfactDB@_builtIn@@@Z  (Idle)
01:00052424 ?flush@stdio@@SAXXZ  (Idle)
01:00052450 ?present@stdio@@SAXXZ  (Idle)
01:0005248C ?write_error@stdio@@SAXXZ  (Idle)
01:000524C8 ?writef_error@stdio@@SAXPB_W@Z  (Idle)
01:0005250C ?writeBytes_error@stdio@@SAXPAXPBUbyteCount@core@@@Z  (Idle)
01:00052550 ?writeQuoted_error@stdio@@SAXXZ  (Idle)
01:0005258C ?nl_error@stdio@@SAXXZ  (Idle)
01:000525B8 ?save_error@stdio@@SAXPBUfactDB@_builtIn@@@Z  (Idle)
01:000525F4 ?flush_error@stdio@@SAXXZ  (Idle)
01:00052620 ?present_error@stdio@@SAXXZ  (Idle)
01:0005265C ?_read@stdio@@SAXQAVrTypeLibrary@TypeLibraries@RunTime@VIP@@PAX@Z  (Idle)
01:000526A0 ?_readChar@stdio@@SAXPA_W@Z  (Idle)
01:000526DC ?ungetChar@stdio@@SAXXZ  (Idle)
01:00052708 ?_readLine@stdio@@SAXPAPB_W@Z  (Idle)
01:00052744 ?_readString@stdio@@SAXPBUcharCount@core@@PAPB_W@Z  (Idle)
01:00052788 ?_readBytes@stdio@@SAXPBUbyteCount@core@@QAPAE@Z  (Idle)
01:000527CC ?consult@stdio@@SAXPBUfactDB@_builtIn@@@Z  (Idle)
01:00052808 ?endOfStream@stdio@@SAXXZ  (Idle)
01:00052834 ?_getOutputStreamPP_explicit@stdio@@SAXPAUprogramPoint_struct@core@@PAPAVoutputStream@@@@Z 
01:00052898 ?_getErrorStreamPP_explicit@stdio@@SAXPAUprogramPoint_struct@core@@PAPAVoutputStream@@@@Z 
01:000528FC ?_getInputStreamPP_explicit@stdio@@SAXPAUprogramPoint_struct@core@@PAPAVinputStream@@@@Z 
01:00052960 ?__lateFactInit$stdiostate$0$stdio@classDB@1@SAXPAPAVstdioState@@@@Z 
01:00052968 ?stdioState@stdio@@SGXQAV0@@@Z  (Idle)
01:00052974 ?stdioState@stdio@@SGQAV0@@XZ  (Idle)
01:000529AC ?new$@outputStream_null@@SAXQAV1@@@Z  (Idle)
01:000529B4 ?getPosition$@outputStream_null@@SGPBUfileSize@fileSystem_api@@QAVstream@@@@Z 
01:000529BC ?setPosition$@outputStream_null@@SGXQAVstream@@@PBUfileSize@fileSystem_api@@@Z 
01:000529CC ?getCRLFconversion$@outputStream_null@@SGPAUboolean_struct@_builtIn@@QAVstream@@@@Z 
01:000529D4 ?setCRLFconversion$@outputStream_null@@SGXQAVstream@@@PAUboolean_struct@_builtIn@@@Z 
01:000529E4 ?close$@outputStream_null@@SGXQAVstream@@@@Z 
01:000529F4 ?setMode$@outputStream_null@@SGXQAVstream@@@PAUmode_struct@2@@Z 
01:00052A04 ?getMode$@outputStream_null@@SGPAUmode_struct@stream@@QAV3@@@Z 
01:00052A0C ?write$@outputStream_null@@SAXQAVoutputStream@@@@Z 
01:00052A14 ?writeQuoted$@outputStream_null@@SAXQAVoutputStream@@@@Z 
01:00052A1C ?writeBytes$@outputStream_null@@SAXQAVoutputStream@@@PAXPBUbyteCount@core@@@Z 
01:00052A24 ?writef$@outputStream_null@@SAXQAVoutputStream@@@PB_W@Z 
01:00052A2C ?nl$@outputStream_null@@SAXQAVoutputStream@@@@Z 
01:00052A34 ?save$@outputStream_null@@SAXQAVoutputStream@@@PBUfactDB@_builtIn@@@Z 
01:00052A3C ?flush$@outputStream_null@@SAXQAVoutputStream@@@@Z 
01:00052A44 ?allowNullPointers@outputStream_null@@SGPAUboolean_struct@_builtIn@@QAVstream@@@@Z 
01:00052A4C ?allowNullPointers@outputStream_null@@SGXQAVstream@@@PAUboolean_struct@_builtIn@@@Z 
01:00052A5C ?present$@outputStream_null@@SAXQAVoutputStream@@@@Z 
01:00052A64 ?streamFromInputBuffer$@outputStream_null@@SAXQAVoutputStream@@@QAVinputBuffer@@@@Z 
01:00052A6C ?_new@outputStream_null@@SAXPAPAVoutputStream@@@@Z  (Idle)
01:00052A94 ?__lateFactInit$null$0$outputStream_null@classDB@1@SAXPAPAVoutputStream@@@@Z 
01:00052A98 ?null@outputStream_0@SGQAVoutputStream@@@XZ  (Idle)
01:00052AD0 ?new$@inputStream_null@@SAXQAV1@@@Z  (Idle)
01:00052AD8 ?getPosition$@inputStream_null@@SGPBUfileSize@fileSystem_api@@QAVstream@@@@Z 
01:00052AE0 ?setPosition$@inputStream_null@@SGXQAVstream@@@PBUfileSize@fileSystem_api@@@Z 
01:00052AF0 ?getCRLFconversion$@inputStream_null@@SGPAUboolean_struct@_builtIn@@QAVstream@@@@Z 
01:00052AF8 ?setCRLFconversion$@inputStream_null@@SGXQAVstream@@@PAUboolean_struct@_builtIn@@@Z 
01:00052B08 ?close$@inputStream_null@@SGXQAVstream@@@@Z 
01:00052B18 ?setMode$@inputStream_null@@SGXQAVstream@@@PAUmode_struct@2@@Z 
01:00052B28 ?getMode$@inputStream_null@@SGPAUmode_struct@stream@@QAV3@@@Z 
01:00052B30 ?_read$@inputStream_null@@SAXQAVinputStream@@@QAVrTypeLibrary@TypeLibraries@RunTime@VIP@@PAX@Z 
01:00052B40 ?_readBytes$@inputStream_null@@SAXQAVinputStream@@@PBUbyteCount@core@@QAPAE@Z 
01:00052B50 ?_readString$@inputStream_null@@SAXQAVinputStream@@@PBUcharCount@core@@PAPB_W@Z 
01:00052B60 ?_readChar$@inputStream_null@@SAXQAVinputStream@@@PA_W@Z 
01:00052B70 ?ungetChar$@inputStream_null@@SAXQAVinputStream@@@@Z 
01:00052B80 ?_readLine$@inputStream_null@@SAXQAVinputStream@@@PAPB_W@Z 
01:00052B90 ?_readLineCRLF$@inputStream_null@@SAXQAVinputStream@@@PAPB_W@Z 
01:00052BA0 ?consult$@inputStream_null@@SAXQAVinputStream@@@PBUfactDB@_builtIn@@@Z 
01:00052BB0 ?reconsult$@inputStream_null@@SAXQAVinputStream@@@PBUfactDB@_builtIn@@@Z 
01:00052BC0 ?endOfStream$@inputStream_null@@SAXQAVinputStream@@@@Z 
01:00052BC8 ?repeatToEndOfStream$@inputStream_null@@SAXQAVinputStream@@@@Z 
01:00052BD4 ?exhausted@inputStream_null@@SAXXZ 
01:00052C08 ?allowNullPointers@inputStream_null@@SGPAUboolean_struct@_builtIn@@QAVstream@@@@Z 
01:00052C10 ?allowNullPointers@inputStream_null@@SGXQAVstream@@@PAUboolean_struct@_builtIn@@@Z 
01:00052C20 ?streamTo$@inputStream_null@@SAXQAVinputStream@@@QAVoutputStream@@@@Z 
01:00052C28 ?_new@inputStream_null@@SAXPAPAVinputStream@@@@Z  (Idle)
01:00052C50 ?__lateFactInit$null$0$inputStream_null@classDB@1@SAXPAPAVinputStream@@@@Z 
01:00052C54 ?null@inputStream_0@SGQAVinputStream@@@XZ  (Idle)
01:00052CF4 stdioState?_initObject@@@QAGXQAV1@H@Z 
01:00052D18 ?@create_object@stdioState@@SGQAV1@@XZ 
01:00052D34 stdioState?_InternalFinalizer@@@QAGXQAV1@@Z 
01:00052D48 outputStream_null?_initObject@@@QAGXQAV1@H@Z 
01:00052D5C ?@create_object@outputStream_null@@SGQAV1@@XZ 
01:00052D78 outputStream_null?_InternalFinalizer@@@QAGXQAV1@@Z 
01:00052D8C inputStream_null?_initObject@@@QAGXQAV1@H@Z 
01:00052DA0 ?@create_object@inputStream_null@@SGQAV1@@XZ 
01:00052DBC inputStream_null?_InternalFinalizer@@@QAGXQAV1@@Z 
--- From 'obj\segmented.E9C86B20.obj'
01:00052DD0 ?_presenter_segmented_utf16@segmented@@SAXPAUsegmented_utf16_struct@1@PAPAUpresentation_struct@presenter@@@Z  (Idle)
01:00052DFC ?_presenter_segmented@1@SAXQAVrTypeLibrary@TypeLibraries@RunTime@VIP@@PAUsegmented_struct@1@XPAPAUpresentation_struct@presenter@@@Z 
01:00053070 ?_mkfp_sub/2nf$1@segmented@@SAXPAUmkfp_sub/2nf$1_struct@1@PAPAUpresentation_struct@presenter@@@Z 
01:000530A4 ?_mkFP_sub@segmented@@SAXQAVrTypeLibrary@TypeLibraries@RunTime@VIP@@PB_WPAUsegmented_struct@1@XPAPAUfieldPresentation_struct@presenter@@@Z 
01:00053114 ?_getByteSize@segmented@@SAXQAVrTypeLibrary@TypeLibraries@RunTime@VIP@@PAUsegmented_struct@1@XAAUbyteCount@core@@@Z 
01:00053170 ?_getAllBuffer_nd@segmented@@SAXQAVrTypeLibrary@TypeLibraries@RunTime@VIP@@PAUsegmented_struct@1@XPAPAUbinary2_struct@core@@@Z  (Idle)
01:000532E4 ?_wrap$presenter_segmented_utf16@segmented@@SGPAUpresentation_struct@presenter@@QAVrTypeLibrary@TypeLibraries@RunTime@VIP@@X@Z 
--- From 'obj\inputstreamsupport.7AF62102.obj'
01:00053310 ?new$@inputSupport@@SAXQAV1@@QAVinputBuffer@@@PAUmode_struct@stream@@@Z 
01:00053344 ?setMode$@inputSupport@@SGXQAV1@@PAUmode_struct@stream@@@Z 
01:00053378 ?getMode$@inputSupport@@SGPAUmode_struct@stream@@QAV1@@@Z 
01:00053384 ?_readChar$@inputSupport@@SAXQAV1@@PA_W@Z 
01:000533B0 ?ungetChar$@inputSupport@@SAXQAV1@@@Z 
01:000533D8 ?_readLine$@inputSupport@@SAXQAV1@@PAPB_W@Z 
01:00053404 ?_readLineCRLF$@inputSupport@@SAXQAV1@@PAPB_W@Z 
01:00053430 ?_read$@inputSupport@@SAXQAV1@@QAVrTypeLibrary@TypeLibraries@RunTime@VIP@@PAX@Z 
01:00053450 ?consult$@inputSupport@@SAXQAV1@@PBUfactDB@_builtIn@@@Z 
01:0005347C ?reconsult$@inputSupport@@SAXQAV1@@PBUfactDB@_builtIn@@@Z 
01:00053490 ?_readBytes$@inputSupport@@SAXQAV1@@PBUbyteCount@core@@QAPAE@Z 
01:000534AC ?_readString$@inputSupport@@SAXQAV1@@PBUcharCount@core@@PAPB_W@Z 
01:000534DC ?checkMode_text_explicit$@inputSupport@@SAXQAV1@@PAUprogramPoint_struct@core@@@Z 
01:00053504 ?_convertMode@inputSupport@@SAXPAUmode_struct@stream@@AAUbooleanInt@core@@@Z 
01:0005352C ?endOfStream$@inputSupport@@SAXQAV1@@@Z 
01:00053568 ?repeatToEndOfStream$@inputSupport@@SAXQAV1@@@Z 
01:000535C0 ?allowNullPointersBufferSupport@inputSupport@@SGPAUboolean_struct@_builtIn@@QAV1@@@Z 
01:000535CC ?bufferNotFound_exception_explicit@inputSupport@@SAXPAUprogramPoint_struct@core@@I@Z  (Idle)
01:000535E4 ?streamTo$@inputSupport@@SAXQAV1@@QAVoutputStream@@@@Z 
01:00053608 ?_new@inputSupport@@SAXQAVinputBuffer@@@PAUmode_struct@stream@@PAPAV1@@@Z  (Idle)
01:00053634 ?_object_facts_initializer$@inputSupport@@SGXQAV1@@@Z 
01:0005364C ?inputBuffer@inputSupport@@SGXQAV1@@QAV0@@@Z 
01:0005365C ?inputBuffer@inputSupport@@SGQAV0@@QAV1@@@Z 
01:00053668 ?allowNullPointers@inputSupport@@SGXQAV1@@PAUboolean_struct@_builtIn@@@Z 
01:00053678 ?allowNullPointers@inputSupport@@SGPAUboolean_struct@_builtIn@@QAV1@@@Z 
01:0005368C inputSupport?_initObject@@@QAGXQAV1@H@Z 
01:000536B0 ?@create_object@inputSupport@@SGQAV1@@XZ 
01:000536CC inputSupport?_InternalFinalizer@@@QAGXQAV1@@Z 
--- From 'obj\console_api.316E7EC3.obj'
01:000536E0 ?_getStdHandle@console_api@@SAXIAAUfileHandle@core@@@Z 
01:00053720 ?setStdHandle@console_api@@SAXIPBUfileHandle@core@@@Z  (Idle)
01:0005375C ?addConsoleCtrlHandler@console_api@@SAXX@Z  (Idle)
01:00053798 ?removeConsoleCtrlHandler@console_api@@SAXX@Z  (Idle)
01:000537D4 ?setConsoleCP@console_api@@SAXPBUcodePage@core@@@Z 
01:0005380C ?setConsoleOutputCP@console_api@@SAXPBUcodePage@core@@@Z 
--- From 'obj\exe_api.A246601B.obj'
01:00053850 ?hInstance@exe_api@@SGPBUhModule@core@@XZ 
01:0005387C ?hInstanceExe@exe_api@@SGPBUhModule@core@@XZ 
01:00053894 ?_getModuleNameByAddress@exe_api@@SAXPBUhModule@core@@PAPB_W@Z 
01:00053950 ?_isOSConsoleApplication@exe_api@@SAXPB_WPAPAUboolean_struct@_builtIn@@@Z  (Idle)
01:00053B28 ?run@exe_api@@SAXXPAUrunMode_struct@1@@Z 
01:00053C84 ?coInitialize@exe_api@@SAXPAU?$__packedList_struct@PAUcoInit_struct@1@@@@Z  (Idle)
01:00053D24 ?coUninitialize@exe_api@@SAXXZ  (Idle)
01:00053D30 ?_toCoInitFlag@exe_api@@SAXPAU?$__packedList_struct@PAUcoInit_struct@1@@@PAI@Z 
01:00053D84 ?_coInitMap@exe_api@@SAXPAUcoInit_struct@1@PAI@Z 
--- From 'obj\filesystem_api.DE0803A2.obj'
01:00053DC0 _GetFileInformationByHandleEx@16  (Idle)
01:00053DE4 _GetFinalPathNameByHandleW@16 
01:00053E08 ?fileAttributeCorrespondence@fileSystem_api@@SAXPAUfileAttributeAtom_struct@1@PAI@Z  (Idle)
01:00053E84 ?_toApiAttributes@fileSystem_api@@SAXPAU?$__packedList_struct@PAUfileAttributeAtom_struct@1@@@PAI@Z 
01:00053EA0 ?_toApiAttributes@fileSystem_api@@SAXPAU?$__packedList_struct@PAUfileAttributeAtom_struct@1@@@IPAI@Z 
01:00053EF4 ?_fromApiAttributes@fileSystem_api@@SAXIPAPAU?$__packedList_struct@PAPAUfileAttributeAtom_struct@1@@@@Z 
01:00053F58 ?_convertToFileAttribute_nd@fileSystem_api@@SAXIPAPAUfileAttributeAtom_struct@1@@Z 
01:00053F90 ?_createFile@fileSystem_api@@SAXPB_WIPAUaccessPermit_struct@1@IPAU?$__packedList_struct@PAUfileAttributeAtom_struct@1@@@AAUfileHandle@core@@@Z 
01:00053FD0 ?_toShareModeAPI@fileSystem_api@@SAXPAUaccessPermit_struct@1@PAI@Z 
01:0005400C ?_createFile_flag@fileSystem_api@@SAXPB_WIIIIAAUfileHandle@core@@@Z 
01:00054058 ?_getFileSize@fileSystem_api@@SAXPBUfileHandle@core@@PAAAUfileSize@1@@Z 
01:000540A0 ?_setFilePointer@fileSystem_api@@SAXPBUfileHandle@core@@PA_JIPAAAUfileSize@1@@Z 
01:000540FC ?getVolumeInformation@fileSystem_api@@SAXPB_WPAPB_WPAI1@Z 
01:000541CC ?raise_cannotCreate_explicit@fileSystem_api@@SAXPAUprogramPoint_struct@core@@PB_WPBUhResult@3@@Z 
01:000542FC ?raise_cannotGetFileSize_explicit@fileSystem_api@@SAXPAUprogramPoint_struct@core@@PBUfileHandle@3@PBUhResult@3@@Z 
01:00054384 ?raise_cannotSetFilePointer_explicit@fileSystem_api@@SAXPAUprogramPoint_struct@core@@PBUfileHandle@3@PA_JIPBUhResult@3@@Z 
01:000544AC ?crlf_lf@fileSystem_api@@SAXPAXHPAUboolean_struct@_builtIn@@PAPAXAAUbyteCount@core@@PAPAU?$__packedList_struct@AAU45@@@PAPAU23@@Z 
01:00054530 ?prepareSearch@fileSystem_api@@SAXPAXHAAUbyteCount@core@@PAPAUboolean_struct@_builtIn@@@Z 
01:000545B4 ?searchCRLF@fileSystem_api@@SAXPAXPBUbyteCount@core@@1AAU23@PAPAU?$__packedList_struct@AAU23@@@3@Z 
01:0005469C ?_tryGetPositionOfCRLF@fileSystem_api@@SAXPAXHPBUbyteCount@core@@AAU23@@Z 
01:00054714 ?_convertCRLF_IfNeeded@fileSystem_api@@SAXPAUboolean_struct@_builtIn@@PAXPBUbyteCount@core@@PAU?$__packedList_struct@PBU45@@@2PAPAX@Z 
01:0005481C ?checkFirstPos@fileSystem_api@@SAXPBUbyteCount@core@@PAU?$__packedList_struct@PBU23@@@PAXPAPAX3PAPAU?$__packedList_struct@AAU23@@@@Z 
01:0005489C ?_mem_move@fileSystem_api@@SAXPAXPAXPBUbyteCount@core@@PAPAX@Z 
01:000548C0 ?_mem_copy@fileSystem_api@@SAXPAXPAXPBUbyteCount@core@@PAPAX@Z 
01:000548E4 ?convertCRLF_LF@fileSystem_api@@SAXXPAXPAXPBUbyteCount@core@@PAU?$__packedList_struct@PBU23@@@@Z 
01:00054974 ?crlf_lf@fileSystem_api@@SAXPB_W@Z 
01:0005498C ?do_CRLF_LF@fileSystem_api@@SAXPB_W0@Z 
01:00054A24 ?lf_crlf@fileSystem_api@@SAXPAXPBUbyteCountOptional@core@@PAPAXAAUbyteCount@3@@Z 
01:00054A98 ?_getSize@fileSystem_api@@SAXPB_WPBUbyteCountOptional@core@@AAUbyteCount@3@@Z 
01:00054AD4 ?searchLineFeeds@fileSystem_api@@SAXPAXPBUbyteCount@core@@1AAU23@PAPAU?$__packedList_struct@AAU23@@@3@Z 
01:00054B90 ?_convertToCRLF_IfNeeded@fileSystem_api@@SAXPAXPBUbyteCount@core@@PAU?$__packedList_struct@PBU23@@@1PAPAX@Z 
01:00054BF4 ?convertToCRLF@fileSystem_api@@SAXPAXPAXPBUbyteCount@core@@PAU?$__packedList_struct@PBU23@@@@Z 
01:00054C84 ?removeDirectory@fileSystem_api@@SAXPB_W@Z 
01:00054D20 ?createDirectory@fileSystem_api@@SAXPB_WPAUsecurity_attributes_struct@windowsAPI@@@Z 
01:00054DC0 ?moveFile@fileSystem_api@@SAXPB_W0@Z 
01:00054EB4 ?setVolumeLabel@fileSystem_api@@SAXPB_W0@Z 
01:00054FA8 ?getDiskFreeSpaceEx@fileSystem_api@@SAXPB_WPAAAUfileSize@1@11@Z 
01:00055080 ?_getcurrentdirectory/0nf$1@fileSystem_api@@SAXPB_WPBUcharCount@core@@AAU23@@Z 
01:00055098 ?_getCurrentDirectory@fileSystem_api@@SAXPAPB_W@Z 
01:000550CC ?setCurrentDirectory@fileSystem_api@@SAXPB_W@Z 
01:000551E0 ?_getshortpathname/1nf$1@fileSystem_api@@SAXPAUgetshortpathname/1nf$1_struct@1@PB_WPBUcharCount@core@@AAU45@@Z 
01:00055204 ?_getShortPathName@fileSystem_api@@SAXPB_WPAPB_W@Z 
01:000552B4 ?_getlongpathname/1nf$1@fileSystem_api@@SAXPAUgetlongpathname/1nf$1_struct@1@PB_WPBUcharCount@core@@AAU45@@Z 
01:000552D8 ?_getLongPathName@fileSystem_api@@SAXPB_WPAPB_W@Z 
01:00055388 ?_getFileAttributesEx@fileSystem_api@@SAXPB_WPAPAUfileAttributesInfo_struct@fileSystem_native@@@Z 
01:000554A4 ?_gettemppath/0nf$1@fileSystem_api@@SAXPB_WPBUcharCount@core@@AAU23@@Z 
01:000554BC ?_getTempPath@fileSystem_api@@SAXPAPB_W@Z 
01:000554F0 ?findClose@fileSystem_api@@SAXPBUsearchHandle@fileSystem_native@@@Z 
01:00055538 ?_firstSizeThenOperation_explicit@fileSystem_api@@SAXPAUprogramPoint_struct@core@@PAU?$__packedList_struct@PAUnamedValue_struct@3@PAUvalue_struct@3@@@XPAPB_W@Z 
01:000555F4 ?readFile@fileSystem_api@@SAXPBUfileHandle@core@@PAXPBUbyteCount@3@AAU43@@Z 
01:00055608 ?readFile@fileSystem_api@@SAXPBUfileHandle@core@@PAXPBUbyteCount@3@AAU43@PBUhResult@3@@Z 
01:000556B0 ?readFile_pipe@fileSystem_api@@SAXPBUfileHandle@core@@PAXPBUbyteCount@3@AAU43@@Z  (Idle)
01:000556C8 ?readFile_overlapped@fileSystem_api@@SAXPBUfileHandle@core@@PAXPBUbyteCount@3@PAUoverlapped_struct@fileSystem_native@@@Z  (Idle)
01:000556DC ?readFile_overlapped@fileSystem_api@@SAXPBUfileHandle@core@@PAXPBUbyteCount@3@PAUoverlapped_struct@fileSystem_native@@PBUhResult@3@@Z 
01:00055734 ?writeFile@fileSystem_api@@SAXPBUfileHandle@core@@PAXPBUbyteCount@3@AAU43@@Z 
01:000557D0 ?writeFile_overlapped@fileSystem_api@@SAXPBUfileHandle@core@@PAXPBUbyteCount@3@PAUoverlapped_struct@fileSystem_native@@@Z  (Idle)
01:000557E4 ?writeFile_overlapped@fileSystem_api@@SAXPBUfileHandle@core@@PAXPBUbyteCount@3@PAUoverlapped_struct@fileSystem_native@@PBUhResult@3@@Z 
--- From 'obj\multithread_api.44799675.obj'
01:00055898 ?closeHandle@fileSystem_api@@SAXPBUhandle@_builtIn@@@Z 
--- From 'obj\filesystem_api.DE0803A2.obj'
01:00055934 ?closeHandle_robust@fileSystem_api@@SAXPBUhandle@_builtIn@@@Z  (Idle)
01:00055944 ?flushFileBuffers@fileSystem_api@@SAXPBUfileHandle@core@@@Z 
--- From 'obj\multithread_api.44799675.obj'
01:000559E0 ?_duplicateHandle@fileSystem_api@@SAXPBUprocessHandle@windowsAPI@@PBUhandle@_builtIn@@0IHIAAU45@@Z 
--- From 'obj\filesystem_api.DE0803A2.obj'
01:00055A84 ?tryGetOverlappedResult_wait@fileSystem_api@@SAXPBUfileHandle@core@@PAUoverlapped_struct@fileSystem_native@@AAUbyteCount@3@@Z  (Idle)
01:00055AA4 ?tryGetOverlappedResult_noWait@fileSystem_api@@SAXPBUfileHandle@core@@PAUoverlapped_struct@fileSystem_native@@AAUbyteCount@3@@Z  (Idle)
01:00055AC0 ?getOverlappedResult2@fileSystem_api@@SAXPBUfileHandle@core@@PAUoverlapped_struct@fileSystem_native@@AAUbyteCount@3@PBUbooleanInt@3@PBUhResult@3@@Z 
01:00055B68 ?_createIoCompletionPort@fileSystem_api@@SAXIAAUioCompletionPort@1@@Z  (Idle)
01:00055B98 ?_createIoCompletionPort@fileSystem_api@@SAXIPBUhandle@_builtIn@@PAXAAUioCompletionPort@1@@Z  (Idle)
01:00055BD0 ?attachIoCompletionPort@fileSystem_api@@SAXPBUioCompletionPort@1@PBUhandle@_builtIn@@PAX@Z  (Idle)
01:00055BF4 ?_createIoCompletionPort2@fileSystem_api@@SAXPBUhandle@_builtIn@@PBUioCompletionPort@1@PAXIAAU41@@Z 
01:00055C74 ?tryGetQueuedCompletionStatus@fileSystem_api@@SAXPBUioCompletionPort@1@AAUbyteCount@core@@PAPAXPAPAUoverlapped_struct@fileSystem_native@@I@Z  (Idle)
01:00055CD8 ?getQueuedCompletionStatus@fileSystem_api@@SAXPBUioCompletionPort@1@AAUbyteCount@core@@PAPAXPAPAUoverlapped_struct@fileSystem_native@@@Z  (Idle)
01:00055D3C ?checkQueuedCompletionStatusException_explicit@fileSystem_api@@SAXPAUprogramPoint_struct@core@@PBUhResult@3@PBUbyteCount@3@PAXPAUoverlapped_struct@fileSystem_native@@@Z 
01:00055EC4 ?_tryGetQueuedCompletionStatus_hResult@fileSystem_api@@SAXPBUioCompletionPort@1@AAUbyteCount@core@@PAPAXPAPAUoverlapped_struct@fileSystem_native@@IAAU85@@Z 
01:00055F00 ?_getQueuedCompletionStatus_hResult@fileSystem_api@@SAXPBUioCompletionPort@1@AAUbyteCount@core@@PAPAXPAPAUoverlapped_struct@fileSystem_native@@AAU85@@Z 
01:00055F50 ?_getQueuedCompletionStatus_hResult2_explicit@fileSystem_api@@SAXPAUprogramPoint_struct@core@@PBUioCompletionPort@1@AAUbyteCount@3@PAPAXPAPAUoverlapped_struct@fileSystem_native@@IAAUhResult@3@@Z 
01:00055FE8 ?getQueuedCompletionStatusException_explicit@fileSystem_api@@SAXPAUprogramPoint_struct@core@@PBUhResult@3@PAU?$__packedList_struct@PAUnamedValue_struct@3@PAUvalue_struct@3@@@@Z 
01:00056008 ?postQueuedCompletionStatus@fileSystem_api@@SAXPBUioCompletionPort@1@PAUoverlapped_struct@fileSystem_native@@@Z  (Idle)
01:00056020 ?postQueuedCompletionStatus@fileSystem_api@@SAXPBUioCompletionPort@1@PAUoverlapped_struct@fileSystem_native@@PBUbyteCount@core@@@Z  (Idle)
01:00056034 ?postQueuedCompletionStatus@fileSystem_api@@SAXPBUioCompletionPort@1@PAUoverlapped_struct@fileSystem_native@@PBUbyteCount@core@@PAX@Z 
01:00056078 ?readDirectoryChanges@fileSystem_api@@SAXPBUfileHandle@core@@PAXPBUbyteCount@3@PAUboolean_struct@_builtIn@@IAAU43@@Z  (Idle)
01:00056090 ?readDirectoryChanges_overlapped@fileSystem_api@@SAXPBUfileHandle@core@@PAXPBUbyteCount@3@PAUboolean_struct@_builtIn@@IPAUoverlapped_struct@fileSystem_native@@@Z  (Idle)
01:000560BC ?readDirectoryChanges_overlapped@fileSystem_api@@SAXPBUfileHandle@core@@PAXPBUbyteCount@3@PAUboolean_struct@_builtIn@@IPAUoverlapped_struct@fileSystem_native@@X@Z  (Idle)
01:000560EC ?readDirectoryChanges2@fileSystem_api@@SAXPBUfileHandle@core@@PAXPBUbyteCount@3@PAUboolean_struct@_builtIn@@IAAU43@PAUoverlapped_struct@fileSystem_native@@X@Z 
01:0005614C ?cancelIo@fileSystem_api@@SAXPBUfileHandle@core@@@Z  (Idle)
01:000561E8 ?fileAttributeCorrespondence@fileSystem_api@@SAXPAPAUfileAttributeAtom_struct@1@I@Z  (Idle)
01:000562C0 ?fileAttributeCorrespondence@fileSystem_api@@SAXPAPAUfileAttributeAtom_struct@1@PAI@Z 
01:000563E0 ?fileAttributeCorrespondence@fileSystem_api@@SAXPAUfileAttributeAtom_struct@1@I@Z  (Idle)
--- From 'obj\memory.568C55F8.obj'
01:00056470 ?_alloc_kind@memory@@SAXQAVrTypeLibrary@TypeLibraries@RunTime@VIP@@PAUmemoryKind_struct@1@PBUcontext@1@PAX@Z  (Idle)
--- From 'obj\time_api.0FD0D46D.obj'
01:00056498 ?_alloc@memory@@SAXQAVrTypeLibrary@TypeLibraries@RunTime@VIP@@PBUcontext@1@PAX@Z 
01:000564C0 ?_alloc_atomic@memory@@SAXQAVrTypeLibrary@TypeLibraries@RunTime@VIP@@PBUcontext@1@PAX@Z 
--- From 'obj\memory.568C55F8.obj'
01:000564E8 ?_alloc_uncollectable@memory@@SAXQAVrTypeLibrary@TypeLibraries@RunTime@VIP@@PBUcontext@1@PAX@Z  (Idle)
--- From 'obj\time_api.0FD0D46D.obj'
01:00056510 ?_alloc_atomicWithSize@memory@@SAXQAVrTypeLibrary@TypeLibraries@RunTime@VIP@@PBUcontext@1@PAX@Z 
--- From 'obj\memory.568C55F8.obj'
01:00056544 ?_alloc_WithSize@memory@@SAXQAVrTypeLibrary@TypeLibraries@RunTime@VIP@@PBUcontext@1@PAX@Z 
01:0005657C ?_alloc_kind_array@memory@@SAXQAVrTypeLibrary@TypeLibraries@RunTime@VIP@@PAUmemoryKind_struct@1@PBUpositive@core@@PBUcontext@1@PAX@Z  (Idle)
01:000565A4 ?_doAllocate@memory@@SAXQAVrTypeLibrary@TypeLibraries@RunTime@VIP@@PAUmemoryKind_struct@1@PBUpositive@core@@PBUcontext@1@AAUbyteCount@5@PAX@Z 
01:0005662C ?_doAllocate2@memory@@SAXPAUmemoryKind_struct@1@PBUbyteCount@core@@PAPAX@Z 
--- From 'obj\multithread_api.44799675.obj'
01:0005666C uncheckedFromPointer@memory@pfc 
--- From 'obj\memory.568C55F8.obj'
01:0005667C ?copyTo@memory@@SAXQAVrTypeLibrary@TypeLibraries@RunTime@VIP@@XX@Z 
01:000566A0 ?_copyTo@memory@@SAXQAVrTypeLibrary@TypeLibraries@RunTime@VIP@@XXPAX@Z 
01:000566D4 ?_copyTo_pointer@memory@@SAXQAVrTypeLibrary@TypeLibraries@RunTime@VIP@@PAXXPAPAX@Z 
01:00056700 ?_mkList_kind@memory@@SAXQAVrTypeLibrary@TypeLibraries@RunTime@VIP@@PAUmemoryKind_struct@1@XPBUpositive@core@@PAPAU?$__packedList_struct@PAX@@@Z  (Idle)
01:000567C0 ?_append@memory@@SAXPAXPAXPBUbyteCount@core@@PAPAX@Z 
01:000567E4 ?isReadable@memory@@SAXPAXPBUbyteCount@core@@@Z 
01:00056804 ?isWritable@memory@@SAXPAXPBUbyteCount@core@@@Z  (Idle)
01:00056824 ?_allocHeapProfile@memory@@SAXPBUbyteCount@core@@PBUcontext@1@PAPAX@Z  (Idle)
01:0005682C ?_allocHeap@memory@@SAXPBUbyteCount@core@@PBUcontext@1@PAPAX@Z 
01:00056858 ?_allocHeap@memory@@SAXPBUbyteCount@core@@PAUboolean_struct@_builtIn@@PBUcontext@1@PAPAX@Z 
01:0005688C ?_allocHeapProfile@memory@@SAXPBUbyteCount@core@@PBUcontext@1@PAUboolean_struct@_builtIn@@PAPAX@Z  (Idle)
01:000568B0 ?_allocAtomicHeapProfile@memory@@SAXPBUbyteCount@core@@PBUcontext@1@PAPAX@Z  (Idle)
01:000568B8 ?_allocAtomicHeap@memory@@SAXPBUbyteCount@core@@PBUcontext@1@PAPAX@Z 
01:000568E4 ?_allocUncollectableHeapProfile@memory@@SAXPBUbyteCount@core@@PBUcontext@1@PAPAX@Z  (Idle)
01:000568EC ?_allocAtomicHeap_array@memory@@SAXQAVrTypeLibrary@TypeLibraries@RunTime@VIP@@PBUpositive@core@@PAX@Z  (Idle)
01:00056958 ?_allocUncollectableHeap_array@memory@@SAXQAVrTypeLibrary@TypeLibraries@RunTime@VIP@@PBUpositive@core@@PAX@Z  (Idle)
01:000569C8 ?_allocUncollectableHeap@memory@@SAXPBUbyteCount@core@@PBUcontext@1@PAPAX@Z 
01:000569F4 ?_allocStringProfile@memory@@SAXPBUcharCount@core@@PBUcontext@1@PAPB_W@Z  (Idle)
01:000569FC ?_allocString@memory@@SAXPBUcharCount@core@@PBUcontext@1@PAPB_W@Z 
01:00056A3C ?_allocStringBufferProfile@memory@@SAXPBUcharCount@core@@PBUcontext@1@PAPB_W@Z  (Idle)
--- From 'obj\windowsapi.AA084B33.obj'
01:00056A44 ?_allocStringBuffer@memory@@SAXPBUcharCount@core@@PBUcontext@1@PAPB_W@Z 
--- From 'obj\memory.568C55F8.obj'
01:00056A74 ?releaseHeap@memory@@SAXQAVrTypeLibrary@TypeLibraries@RunTime@VIP@@X@Z 
01:00056A84 ?listToArray@memory@@SAXQAVrTypeLibrary@TypeLibraries@RunTime@VIP@@PAU?$__packedList_struct@X@@PBUbyteCount@core@@PA$?predicate$2@3@SAXPAXX@Z$PAPAXAAUpositive@3@@Z  (Idle)
01:00056AEC ?listToArray_nonatomic@memory@@SAXQAVrTypeLibrary@TypeLibraries@RunTime@VIP@@PAU?$__packedList_struct@X@@PBUbyteCount@core@@PA$?predicate$2@3@SAXPAXX@Z$PAPAXAAUpositive@3@@Z 
01:00056B54 ?fillArray@memory@@SAXQAVrTypeLibrary@TypeLibraries@RunTime@VIP@@PAXPAU?$__packedList_struct@X@@PBUbyteCount@core@@PA$?predicate$2@3@SAXPAXX@Z$@Z 
01:00056BCC ?_pointerAddLite@memory@@SAXPAXPBUbyteOffset@core@@PAPAX@Z 
--- From 'obj\windowsapi.AA084B33.obj'
01:00056BE4 ?_pointerAdd@memory@@SAXQAVrTypeLibrary@TypeLibraries@RunTime@VIP@@XPBUbyteOffset@core@@PAPAX@Z 
--- From 'obj\memory.568C55F8.obj'
01:00056C10 ?_getOffset@memory@@SAXQAVrTypeLibrary@TypeLibraries@RunTime@VIP@@XXAAUbyteOffset@core@@@Z 
01:00056C50 ?_getPointerValue@memory@@SAXQAVrTypeLibrary@TypeLibraries@RunTime@VIP@@XAAUintegerNative@_builtIn@@@Z 
01:00056DE0 ?isNull@memory@@SAXQAVrTypeLibrary@TypeLibraries@RunTime@VIP@@X@Z 
--- From 'obj\multithread_api.44799675.obj'
01:00056DF4 ?_notNull@memory@@SAXQAVrTypeLibrary@TypeLibraries@RunTime@VIP@@XPAX@Z 
--- From 'obj\memory.568C55F8.obj'
01:00056E10 getAp@memory@pfc 
01:00056E48 getA1@memory@pfc 
01:00056E80 getA2@memory@pfc  (Idle)
01:00056EBC getA4@memory@pfc  (Idle)
01:00056EF4 getA8@memory@pfc 
01:00056F44 set4r@memory@pfc  (Idle)
01:00056F74 set8@memory@pfc  (Idle)
01:00056FB0 setAp@memory@pfc 
01:00056FEC setA1@memory@pfc  (Idle)
01:00057028 setA2@memory@pfc  (Idle)
01:00057068 setA4@memory@pfc 
01:000570A4 setA8@memory@pfc 
01:000570E4 mkp@memory@pfc  (Idle)
01:00057108 mk1@memory@pfc  (Idle)
01:0005712C mk2@memory@pfc 
01:00057154 mk4@memory@pfc 
01:00057178 mk8@memory@pfc  (Idle)
01:000571A8 ?_get@memory@@SAXQAVrTypeLibrary@TypeLibraries@RunTime@VIP@@PAUpointerTo_struct@1@XPAX@Z  (Idle)
01:000571D0 ?set@memory@@SAXQAVrTypeLibrary@TypeLibraries@RunTime@VIP@@PAUpointerTo_struct@1@XX@Z  (Idle)
01:000571F0 ?_mkPointerTo@memory@@SAXQAVrTypeLibrary@TypeLibraries@RunTime@VIP@@XPAPAUpointerTo_struct@1@PAX@Z  (Idle)
01:00057214 ?_bitOr@bit@@SAXIIIPAI@Z  (Idle)
01:0005722C ?_bitOr@bit@@SAXIIIIPAI@Z  (Idle)
01:00057248 ?_bitOr@bit@@SAXIIIIIPAI@Z  (Idle)
01:00057268 ?_bitOrList@bit@@SAXPAU?$__packedList_struct@I@@PAI@Z  (Idle)
01:00057284 ?_bitOrList_Tail@bit@@SAXPAU?$__packedList_struct@I@@IPAI@Z 
01:000572BC ?isSet@bit@@SAXII@Z  (Idle)
01:000572DC ?_clear@bit@@SAXIIPAI@Z  (Idle)
01:000572F8 ?_bit2boolean@bit@@SAXIIPAPAUboolean_struct@_builtIn@@@Z  (Idle)
01:0005732C ?_getLow4of8@bit@@SAXPBUunsigned8@core@@AAUunsigned4@1@@Z  (Idle)
01:00057348 ?_setLow4of8@bit@@SAXPBUunsigned8@core@@PBUunsigned4@1@AAU23@@Z  (Idle)
01:00057388 ?_getHigh4of8@bit@@SAXPBUunsigned8@core@@AAUunsigned4@1@@Z  (Idle)
01:000573A8 ?_setHigh4of8@bit@@SAXPBUunsigned8@core@@PBUunsigned4@1@AAU23@@Z  (Idle)
01:000573FC ?_swap4of8@bit@@SAXPBUunsigned8@core@@AAU23@@Z  (Idle)
01:0005744C ?_getLow8of16@bit@@SAXPBUunsigned16@core@@AAUunsigned8@3@@Z  (Idle)
01:0005746C ?_setLow8of16@bit@@SAXPBUunsigned16@core@@PBUunsigned8@3@AAU23@@Z  (Idle)
01:0005749C ?_getHigh8of16@bit@@SAXPBUunsigned16@core@@AAUunsigned8@3@@Z  (Idle)
01:000574BC ?_setHigh8of16@bit@@SAXPBUunsigned16@core@@PBUunsigned8@3@AAU23@@Z  (Idle)
01:000574FC ?_swap8of16@bit@@SAXPBUunsigned16@core@@AAU23@@Z  (Idle)
01:00057534 ?_getLow16of32@bit@@SAXIAAUunsigned16@core@@@Z 
01:0005754C ?_setLow16of32@bit@@SAXIPBUunsigned16@core@@PAI@Z  (Idle)
01:00057578 ?_getHigh16of32@bit@@SAXIAAUunsigned16@core@@@Z 
01:00057594 ?_setHigh16of32@bit@@SAXIPBUunsigned16@core@@PAI@Z  (Idle)
01:000575D4 ?_swap16of32@bit@@SAXIPAI@Z 
01:00057624 ?_toBigEndian16@bit@@SAXPBUunsigned16@core@@AAU23@@Z  (Idle)
01:00057654 ?_toBigEndian@bit@@SAXIPAI@Z  (Idle)
01:000576A8 ?_toBigEndian64@bit@@SAXPA_KPAPA_K@Z  (Idle)
01:0005776C ?_bitSplit@bit@@SAXIPAPAU?$__packedList_struct@PAI@@@Z  (Idle)
01:000577C8 ?getUnsigned32bytes@bit@@SAXIAAUunsigned16@core@@1@Z  (Idle)
01:000577EC ?getInteger32bytes@bit@@SAXIAAUunsigned16@core@@AAUinteger16@3@@Z  (Idle)
01:00057824 ?getUnsigned64bytes@bit@@SAXPA_KPAIPAI@Z 
01:00057864 ?getInteger64bytes@bit@@SAXPA_JPAIPAH@Z  (Idle)
01:000578A4 ?_mkUnsigned32@bit@@SAXPBUunsigned16@core@@0PAI@Z 
01:000578D0 ?_mkInteger32@bit@@SAXPBUunsigned16@core@@PBUinteger16@3@PAH@Z  (Idle)
01:000578FC ?_mkUnsigned64@bit@@SAXIIPAPA_K@Z 
01:0005795C ?_mkInteger64@bit@@SAXIHPAPA_J@Z  (Idle)
01:000579AC ?_bitCount@bit@@SAXIPAI@Z  (Idle)
01:00057A1C ?isPow2@bit@@SAXI@Z  (Idle)
01:00057A4C ?_trailingZeroBits@bit@@SAXIPAI@Z  (Idle)
01:00057A84 ?_getLow16@bit@@SAXPBUunsignedNative@_builtIn@@AAUunsigned16@core@@@Z  (Idle)
01:00057AA0 ?_getLow32of64@bit@@SAXPA_KPAI@Z  (Idle)
01:00057AB4 ?_bitOr@bit@@SAXPA_K00PAPA_K@Z  (Idle)
01:00057B04 ?_bitOr@bit@@SAXPBUunsignedNative@_builtIn@@00AAU23@@Z  (Idle)
01:00057B1C ?_bitOr@bit@@SAXPA_K000PAPA_K@Z  (Idle)
01:00057B84 ?_bitOr@bit@@SAXPBUunsignedNative@_builtIn@@000AAU23@@Z  (Idle)
01:00057BA0 ?_bitOr@bit@@SAXPA_K0000PAPA_K@Z  (Idle)
01:00057C20 ?_bitOr@bit@@SAXPBUunsignedNative@_builtIn@@0000AAU23@@Z  (Idle)
01:00057C40 ?isSet@bit@@SAXPA_K0@Z  (Idle)
01:00057C80 ?isSet@bit@@SAXPBUunsignedNative@_builtIn@@0@Z  (Idle)
01:00057CA0 ?_clear@bit@@SAXPA_K0PAPA_K@Z  (Idle)
01:00057CE4 ?_clear@bit@@SAXPBUunsignedNative@_builtIn@@0AAU23@@Z  (Idle)
01:00057D00 ?_getLow32of64@bit@@SAXPA_JPAI@Z  (Idle)
--- From 'obj\multithread_api.44799675.obj'
01:00057D20 ?_mkSrwLock@multiThread_native@@SAXPAPAUsrwLock_struct@1@@Z 
01:00057D48 _GetThreadDescriptionW@8  (Idle)
01:00057D6C _SetThreadDescriptionW@8  (Idle)
01:00057D90 _Wow64GetThreadSelectorEntry@12 
01:00057DB4 ?_createEvent@multiThread_api@@SAXPB_WPAUboolean_struct@_builtIn@@1AAUsyncHandle@windowsAPI@@@Z 
01:00057EE8 ?_createOrOpenEvent@multiThread_api@@SAXPB_WPAUboolean_struct@_builtIn@@1AAUsyncHandle@windowsAPI@@@Z 
01:00057FFC ?_openEvent@multiThread_api@@SAXPB_WIAAUsyncHandle@windowsAPI@@@Z 
01:0005804C ?invokeNative_explicit@multiThread_api@@SAXPAUprogramPoint_struct@core@@PBUsyncHandle@windowsAPI@@X@Z  (Idle)
01:000580E0 ?setEvent@multiThread_api@@SAXPBUsyncHandle@windowsAPI@@@Z 
01:00058110 ?resetEvent@multiThread_api@@SAXPBUsyncHandle@windowsAPI@@@Z 
01:00058140 ?pulseEvent@multiThread_api@@SAXPBUsyncHandle@windowsAPI@@@Z 
01:00058170 ?_createMutex@multiThread_api@@SAXPB_WPAUboolean_struct@_builtIn@@AAUsyncHandle@windowsAPI@@@Z 
01:00058228 ?_openMutex@multiThread_api@@SAXPB_WAAUsyncHandle@windowsAPI@@@Z  (Idle)
01:00058278 ?releaseMutex@multiThread_api@@SAXPBUsyncHandle@windowsAPI@@@Z 
01:000582A8 ?_createSemaphore@multiThread_api@@SAXPB_WIIAAUsyncHandle@windowsAPI@@@Z 
01:000583D4 ?_openSemaphore@multiThread_api@@SAXPB_WAAUsyncHandle@windowsAPI@@@Z 
01:00058424 ?_releaseSemaphore@multiThread_api@@SAXPBUsyncHandle@windowsAPI@@IPAI@Z 
01:00058510 ?_createWaitableTimer@multiThread_api@@SAXPB_WPAUboolean_struct@_builtIn@@AAUsyncHandle@windowsAPI@@@Z 
01:000585E8 ?_openWaitableTimer@multiThread_api@@SAXPB_WAAUsyncHandle@windowsAPI@@@Z 
01:00058638 ?setWaitableTimer@multiThread_api@@SAXPBUsyncHandle@windowsAPI@@PAPBUdurationValue@core@@HPAUboolean_struct@_builtIn@@@Z 
01:00058658 ?setWaitableTimer@multiThread_api@@SAXPBUsyncHandle@windowsAPI@@PAPBUdurationValue@core@@HXPAXPAUboolean_struct@_builtIn@@@Z 
01:00058804 ?cancelWaitableTimer@multiThread_api@@SAXPBUsyncHandle@windowsAPI@@@Z 
01:00058834 ?isWow64Process@multiThread_api@@SAXPBUprocessHandle@windowsAPI@@@Z 
01:0005885C ?_handlingNullString@multiThread_api@@SAXPB_WPAPAUnamedValue_struct@core@@PAPAUvalue_struct@3@@Z  (Idle)
01:000588FC ?checkHandle_explicit@multiThread_api@@SAXPAUprogramPoint_struct@core@@PBUsyncHandle@windowsAPI@@PB_W2PAU?$__packedList_struct@PAUnamedValue_struct@3@PAUvalue_struct@3@@@@Z 
01:00058954 ?checkAlreadyExist_explicit@multiThread_api@@SAXPAUprogramPoint_struct@core@@PBUhandle@_builtIn@@PB_W@Z 
01:000589C0 ?getThreadContext@multiThread_api@@SAXPBUthreadHandle@multiThread_native@@PBUcontext@3@@Z  (Idle)
01:00058A54 ?setThreadContext@multiThread_api@@SAXPBUthreadHandle@multiThread_native@@PBUcontext@3@@Z  (Idle)
01:00058AE8 ?_getThreadSelectorEntry@multiThread_api@@SAXPBUthreadHandle@multiThread_native@@IPAPAUselectorEntry_struct@3@@Z  (Idle)
01:00058BEC ?_wow64GetThreadSelectorEntry@multiThread_api@@SAXPBUthreadHandle@multiThread_native@@IPAPAUselectorEntry_struct@3@@Z  (Idle)
01:00058CF0 ?_mkInheritable@multiThread_api@@SAXPBUhandle@_builtIn@@PAUboolean_struct@3@AAU23@@Z  (Idle)
01:00058D2C ?setProcessAffinityMask@multiThread_api@@SAXPBUunsignedNative@_builtIn@@@Z  (Idle)
01:00058D44 ?setProcessAffinityMask@multiThread_api@@SAXPBUunsignedNative@_builtIn@@PBUprocessHandle@windowsAPI@@@Z 
01:00058D80 ?_queryProcessCycleTime@multiThread_api@@SAXPAPA_K@Z  (Idle)
01:00058DA4 ?_queryProcessCycleTime@multiThread_api@@SAXPBUprocessHandle@windowsAPI@@PAPA_K@Z 
01:00058DF0 ?_tlsAlloc@multiThread_api@@SAXAAUtlsIndex@multiThread_native@@@Z  (Idle)
01:00058E2C ?tlsFree@multiThread_api@@SAXPBUtlsIndex@multiThread_native@@@Z  (Idle)
01:00058E64 ?_tlsGetValue@multiThread_api@@SAXPBUtlsIndex@multiThread_native@@PAPAX@Z  (Idle)
01:00058EA4 ?tlsSetValue@multiThread_api@@SAXPBUtlsIndex@multiThread_native@@PAX@Z  (Idle)
01:00058EE0 ?tryInterlockedCompareExchangePointer@multiThread_api@@SAXQAVrTypeLibrary@TypeLibraries@RunTime@VIP@@PAUpointerTo_struct@memory@@XXX@Z  (Idle)
01:00058F2C ?_notTryInterlockedCompareExchangePointer@multiThread_api@@SAXQAVrTypeLibrary@TypeLibraries@RunTime@VIP@@PAUpointerTo_struct@memory@@XXXPAX@Z  (Idle)
01:00058F88 ?_interlockedExchangePointer@multiThread_api@@SAXQAVrTypeLibrary@TypeLibraries@RunTime@VIP@@PAUpointerTo_struct@memory@@XXPAX@Z  (Idle)
01:00058FAC ?_interlockedCompareExchangePointer@multiThread_api@@SAXQAVrTypeLibrary@TypeLibraries@RunTime@VIP@@PAUpointerTo_struct@memory@@XXXPAX@Z  (Idle)
--- From 'obj\time_api.0FD0D46D.obj'
01:00058FD0 ?_presenter_fileTime@time_native@@SAXPAUfileTime_struct@1@PAPAUpresentation_struct@presenter@@@Z 
01:00058FF8 _GetTickCount64@0 
01:0005901C _QueryUnbiasedInterruptTime@4 
01:00059040 ?_getSystemTimeAsFileTime@time_api@@SAXPAAAUgmtTimeValue@core@@@Z 
01:00059080 ?_gmtTimeToSystemTime@time_api@@SAXPAPBUgmtTimeValue@core@@PAPAUsystemTime_struct@time_native@@@Z 
01:00059138 ?_systemTimeToGmtTime@time_api@@SAXPAUsystemTime_struct@time_native@@PAAAUgmtTimeValue@core@@@Z  (Idle)
01:000594C4 ?_localTimeToSystemTime@time_api@@SAXPAPBUlocalTimeValue@core@@PAPAUsystemTime_struct@time_native@@@Z 
01:00059508 ?_systemTimeToLocalTime@time_api@@SAXPAUsystemTime_struct@time_native@@PAAAUlocalTimeValue@core@@@Z 
01:00059548 ?_getTimeZoneNames@time_api@@SAXPAPAU?$__packedList_struct@PAPB_W@@@Z 
01:00059574 ?_getTimeZoneInformation@time_api@@SAXPAPAUtimeZoneAPI_struct@time_native@@@Z 
01:000595C4 ?_getTimeZoneInformation@time_api@@SAXPB_WPAPAUtimeZoneAPI_struct@time_native@@@Z 
01:0005986C ?_systemTimeToTzSpecificLocalTimeEx@time_api@@SAXPAUtimeZoneAPI_struct@time_native@@PAUsystemTime_struct@3@PAPAU43@@Z  (Idle)
01:00059894 ?_tzSpecificLocalTimeToSystemTimeEx@time_api@@SAXPAUtimeZoneAPI_struct@time_native@@PAUsystemTime_struct@3@PAPAU43@@Z  (Idle)
01:000598BC ?_systemTimeToTzSpecificLocalTime@time_api@@SAXPAUtime_zone_information_struct@time_native@@PAUsystemTime_struct@3@PAPAU43@@Z 
01:000599E0 ?_tzSpecificLocalTimeToSystemTime@time_api@@SAXPAUtime_zone_information_struct@time_native@@PAUsystemTime_struct@3@PAPAU43@@Z 
01:00059B04 ?isDaylightTime@time_api@@SAXPAUtimeZoneAPI_struct@time_native@@PAPBUgmtTimeValue@core@@@Z 
01:00059C44 ?_getTimeZoneInformation_systemTime@time_api@@SAXPAUsystemTime_struct@time_native@@PAUtimeZoneAPI_struct@3@PAPAUtime_zone_information_struct@3@@Z 
01:00059C5C ?_gettimezoneinformationforyear/2nf$1@time_api@@SAXPAUgettimezoneinformationforyear/2nf$1_struct@1@PAPAUtime_zone_information_struct@time_native@@@Z 
01:00059CC4 ?_getTimeZoneInformationForYear@time_api@@SAXPBUunsigned16@core@@PAUtimeZoneAPI_struct@time_native@@PAPAUtime_zone_information_struct@5@@Z 
01:00059D70 ?_gmtTimeToLocalTime@time_api@@SAXPAPBUgmtTimeValue@core@@PAAAUlocalTimeValue@3@@Z 
01:00059DA0 ?_gmtTimeToLocalTime@time_api@@SAXPAPBUgmtTimeValue@core@@PAUtimeZoneAPI_struct@time_native@@PAAAUlocalTimeValue@3@@Z 
01:00059EA4 ?_localTimeToGmtTime@time_api@@SAXPAPBUlocalTimeValue@core@@PAAAUgmtTimeValue@3@@Z  (Idle)
01:00059ED4 ?_localTimeToGmtTime@time_api@@SAXPAPBUlocalTimeValue@core@@PAUtimeZoneAPI_struct@time_native@@PAAAUgmtTimeValue@3@@Z 
01:00059FD8 ?_getTimeZoneOffset@time_api@@SAXPAPBUgmtTimeValue@core@@PAPBUlocalTimeValue@3@PAH@Z 
01:0005A0B8 ?_gmtTimeToFileTime@time_api@@SAXPAPBUgmtTimeValue@core@@PAPAUfileTime_struct@time_native@@@Z 
01:0005A0DC ?_fileTimeToGmtTime@time_api@@SAXPAUfileTime_struct@time_native@@PAAAUgmtTimeValue@core@@@Z 
01:0005A0E4 ?_formatDate@time_api@@SAXPAPBUlocalTimeValue@core@@PB_WPBUlcId@locale_native@@PAPB_W@Z  (Idle)
01:0005A130 ?_formatTime@time_api@@SAXPAPBUlocalTimeValue@core@@PB_WPBUlcId@locale_native@@PAPB_W@Z  (Idle)
01:0005A17C ?_getDateFormat@time_api@@SAXPBUlcId@locale_native@@IPAUsystemTime_struct@time_native@@PB_WPAPB_W@Z 
01:0005A2B0 ?_getTimeFormat@time_api@@SAXPBUlcId@locale_native@@IPAUsystemTime_struct@time_native@@PB_WPAPB_W@Z 
01:0005A3E4 ?_getLocaleInfo_string@time_api@@SAXPBUlcId@locale_native@@PBUlcType@3@PAPB_W@Z 
01:0005A464 ?_getLocaleInfo_integer@time_api@@SAXPBUlcId@locale_native@@PBUlcType@3@PAH@Z 
01:0005A4B4 ?_getFirstDayOfWeek@time_api@@SAXPBUlcId@locale_native@@PAH@Z 
01:0005A4D0 ?_fromUnixTime@time_api@@SAXIPAAAUgmtTimeValue@core@@@Z  (Idle)
01:0005A530 ?_toUnixTime@time_api@@SAXPAPBUgmtTimeValue@core@@PAI@Z  (Idle)
01:0005A5CC ?raise_cannotGetDateTimeFormat_explicit@time_api@@SAXPAUprogramPoint_struct@core@@IIIIIIIIIIPB_WPBUhResult@3@@Z 
01:0005A9DC ?raise_cannotGetLocaleInfo_explicit@time_api@@SAXPAUprogramPoint_struct@core@@PBUlcId@locale_native@@IPBUhResult@3@@Z 
01:0005AAF8 ?_getLastInputTick@time_api@@SAXPAI@Z  (Idle)
01:0005AB50 ?isSessionIdle@time_api@@SAXXZ  (Idle)
01:0005AB64 ?isSessionIdle@time_api@@SAXI@Z 
01:0005ABA0 ?_fromUnixTime@time_api@@SAXIPAAAUlocalTimeValue@core@@@Z  (Idle)
01:0005AC00 ?_toUnixTime@time_api@@SAXPAPBUlocalTimeValue@core@@PAI@Z  (Idle)
01:0005AC9C ?__lateFactInit$timezoneinfocache$0$time_api@classDB@1@SAXPAPAVmapM@@@PAPAUtuple_struct@core@@AAUunsigned16@4@PAPAUtimeZoneAPI_struct@time_native@@PAPAUtime_zone_information_struct@8@@Z 
--- From 'obj\locale_api.1E7D05A5.obj'
01:0005ACD0 ?_makeLangId@locale_api@@SAXIIPAI@Z  (Idle)
01:0005ACE8 ?_primaryLangId@locale_api@@SAXIPAI@Z  (Idle)
01:0005AD00 ?_subLangId@locale_api@@SAXIPAI@Z  (Idle)
01:0005AD14 ?_makeLcId@locale_api@@SAXIIAAUlcId@locale_native@@@Z  (Idle)
01:0005AD2C ?_makeSortLcId@locale_api@@SAXIIIPAI@Z  (Idle)
01:0005AD54 ?_langIdFromLcId@locale_api@@SAXIPAI@Z  (Idle)
01:0005AD6C ?_sortIdFromLcId@locale_api@@SAXIPAI@Z  (Idle)
01:0005AD84 ?_sortVersionFromLcId@locale_api@@SAXIPAI@Z  (Idle)
01:0005AD9C ?_getNumberFormat@locale_api@@SAXPB_WPAPB_W@Z  (Idle)
01:0005ADC0 ?_getNumberFormat@locale_api@@SAXPB_WPBUlcId@locale_native@@PAPB_W@Z 
01:0005ADDC ?_getNumberFormat@locale_api@@SAXPB_WPBUlcId@locale_native@@PAUnumberfmt_struct@3@PAPB_W@Z 
01:0005AE34 ?_getLocaleInfo_integer@locale_api@@SAXPBUlcType@locale_native@@PAH@Z  (Idle)
01:0005AE58 ?_getLocaleInfo_integer@locale_api@@SAXPBUlcType@locale_native@@PBUlcId@3@PAH@Z 
01:0005AE7C ?_getLocaleInfo_string@locale_api@@SAXPBUlcType@locale_native@@PAPB_W@Z  (Idle)
01:0005AEA0 ?_getLocaleInfo_string@locale_api@@SAXPBUlcType@locale_native@@PBUlcId@3@PAPB_W@Z 
--- From 'obj\windowsapi.AA084B33.obj'
01:0005AEF0 ?_toMsStringSeq@windowsAPI@@SAXPAU?$__packedList_struct@PB_W@@AAUmsStringSeq@1@@Z  (Idle)
01:0005AF38 ?_totalLength@windowsAPI@@SAXPAU?$__packedList_struct@PB_W@@PBUcharCount@core@@AAU23@@Z 
01:0005AFA4 ?fill@windowsAPI@@SAXPAU?$__packedList_struct@PB_W@@PBUmsStringSeq@1@@Z 
01:0005B040 ?_fromMsStringSeq@windowsAPI@@SAXPBUmsStringSeq@1@PAPAU?$__packedList_struct@PAPB_W@@@Z  (Idle)
01:0005B0B8 ?_getString_nd@windowsAPI@@SAXPBUmsStringSeq@1@PAPB_W@Z 
--- From 'obj\winerrors.5F2CCDFC.obj'
01:0005B170 ?_getFacility@winErrors@@SAXPBUhResult@core@@PAI@Z  (Idle)
--- From 'obj\redblackset.DC1C3622.obj'
01:0005B190 ?_empty/0$1@redBlackSet@@SAXPAUempty/0$1_struct@1@XXPAPAUcompareResult_struct@_builtIn@@@Z 
01:0005B1A8 ?_empty@redBlackSet@@SAXQAVrTypeLibrary@TypeLibraries@RunTime@VIP@@PAPAUset_struct@1@PAX@Z 
01:0005B1FC ?_emptyCustom@redBlackSet@@SAXQAVrTypeLibrary@TypeLibraries@RunTime@VIP@@PA$?_comparator$1@core@@SAXXXPAPAUcompareResult_struct@_builtIn@@@Z$PAPAUset_struct@1@PAX@Z 
01:0005B228 ?_emptySameKind@redBlackSet@@SAXQAVrTypeLibrary@TypeLibraries@RunTime@VIP@@PAUset_struct@1@XPAPAU21@PAX@Z 
01:0005B260 ?isEmpty@redBlackSet@@SAXQAVrTypeLibrary@TypeLibraries@RunTime@VIP@@PAUset_struct@1@X@Z  (Idle)
01:0005B278 ?_insert@redBlackSet@@SAXQAVrTypeLibrary@TypeLibraries@RunTime@VIP@@PAUset_struct@1@XXPAPAU21@PAX@Z 
01:0005B304 ?_delete@redBlackSet@@SAXQAVrTypeLibrary@TypeLibraries@RunTime@VIP@@PAUset_struct@1@XXPAPAU21@PAX@Z 
01:0005B390 ?_tryDeleteFirst@redBlackSet@@SAXQAVrTypeLibrary@TypeLibraries@RunTime@VIP@@PAUset_struct@1@XPAXPAPAU21@PAX@Z  (Idle)
01:0005B40C ?isMember@redBlackSet@@SAXQAVrTypeLibrary@TypeLibraries@RunTime@VIP@@XPAUset_struct@1@X@Z 
01:0005B440 ?_getAll_nd@redBlackSet@@SAXQAVrTypeLibrary@TypeLibraries@RunTime@VIP@@PAUset_struct@1@XPAX@Z 
01:0005B458 ?_getAll_multi@redBlackSet@@SAXQAVrTypeLibrary@TypeLibraries@RunTime@VIP@@PAUset_struct@1@XPAX@Z  (Idle)
01:0005B470 ?_upFrom_nd@redBlackSet@@SAXQAVrTypeLibrary@TypeLibraries@RunTime@VIP@@PAUset_struct@1@XXPAX@Z 
01:0005B4AC ?_downFrom_nd@redBlackSet@@SAXQAVrTypeLibrary@TypeLibraries@RunTime@VIP@@PAUset_struct@1@XXPAX@Z 
01:0005B4E8 ?_up_nd@redBlackSet@@SAXQAVrTypeLibrary@TypeLibraries@RunTime@VIP@@PAUset_struct@1@XPAX@Z  (Idle)
01:0005B500 ?_down_nd@redBlackSet@@SAXQAVrTypeLibrary@TypeLibraries@RunTime@VIP@@PAUset_struct@1@XPAX@Z  (Idle)
01:0005B518 ?_tryGetMin@redBlackSet@@SAXQAVrTypeLibrary@TypeLibraries@RunTime@VIP@@PAUset_struct@1@XPAX@Z  (Idle)
01:0005B53C ?_tryGetMax@redBlackSet@@SAXQAVrTypeLibrary@TypeLibraries@RunTime@VIP@@PAUset_struct@1@XPAX@Z  (Idle)
01:0005B560 ?isMember_rep@redBlackSet@@SAXQAVrTypeLibrary@TypeLibraries@RunTime@VIP@@PA$?_comparator$1@core@@SAXXXPAPAUcompareResult_struct@_builtIn@@@Z$XPAUsetRep_struct@1@X@Z 
01:0005B668 ?isMember_node_rep@redBlackSet@@SAXQAVrTypeLibrary@TypeLibraries@RunTime@VIP@@PA$?_comparator$1@core@@SAXXXPAPAUcompareResult_struct@_builtIn@@@Z$PAU23@XPAUsetRep_struct@1@X4@Z 
01:0005B6A8 ?_getAll_nd_rep@redBlackSet@@SAXQAVrTypeLibrary@TypeLibraries@RunTime@VIP@@PAUsetRep_struct@1@XPAX@Z 
01:0005B774 ?_get_multi_rep@redBlackSet@@SAXQAVrTypeLibrary@TypeLibraries@RunTime@VIP@@PAUsetRep_struct@1@XPAX@Z 
01:0005B878 ?_get_node_multi_rep@redBlackSet@@SAXQAVrTypeLibrary@TypeLibraries@RunTime@VIP@@PAUsetRep_struct@1@XX1PAX@Z 
01:0005B8E4 ?_upFrom_nd_rep@redBlackSet@@SAXQAVrTypeLibrary@TypeLibraries@RunTime@VIP@@PA$?_comparator$1@core@@SAXXXPAPAUcompareResult_struct@_builtIn@@@Z$XPAUsetRep_struct@1@XPAX@Z 
01:0005BA14 ?_upFrom_node_nd_rep@redBlackSet@@SAXQAVrTypeLibrary@TypeLibraries@RunTime@VIP@@PA$?_comparator$1@core@@SAXXXPAPAUcompareResult_struct@_builtIn@@@Z$PAU23@XPAUsetRep_struct@1@XX4PAX@Z 
01:0005BB0C ?_downFrom_nd_rep@redBlackSet@@SAXQAVrTypeLibrary@TypeLibraries@RunTime@VIP@@PA$?_comparator$1@core@@SAXXXPAPAUcompareResult_struct@_builtIn@@@Z$XPAUsetRep_struct@1@XPAX@Z 
01:0005BC3C ?_downFrom_node_nd_rep@redBlackSet@@SAXQAVrTypeLibrary@TypeLibraries@RunTime@VIP@@PA$?_comparator$1@core@@SAXXXPAPAUcompareResult_struct@_builtIn@@@Z$PAU23@XPAUsetRep_struct@1@XX4PAX@Z 
01:0005BD3C ?_down_nd_rep@redBlackSet@@SAXQAVrTypeLibrary@TypeLibraries@RunTime@VIP@@PAUsetRep_struct@1@XPAX@Z 
01:0005BE08 ?_down_node_multi_rep@redBlackSet@@SAXQAVrTypeLibrary@TypeLibraries@RunTime@VIP@@PAUsetRep_struct@1@XX1PAX@Z 
01:0005BE7C ?_tryInsert_rep@redBlackSet@@SAXQAVrTypeLibrary@TypeLibraries@RunTime@VIP@@PA$?_comparator$1@core@@SAXXXPAPAUcompareResult_struct@_builtIn@@@Z$XPAUsetRep_struct@1@XPAPAU21@PAX@Z 
01:0005BEB0 ?_tryIns@redBlackSet@@SAXQAVrTypeLibrary@TypeLibraries@RunTime@VIP@@PA$?_comparator$1@core@@SAXXXPAPAUcompareResult_struct@_builtIn@@@Z$XPAUsetRep_struct@1@XPAPAU21@PAX@Z 
01:0005C014 ?_tryIns_black@redBlackSet@@SAXQAVrTypeLibrary@TypeLibraries@RunTime@VIP@@PA$?_comparator$1@core@@SAXXXPAPAUcompareResult_struct@_builtIn@@@Z$PAU23@XPAUsetRep_struct@1@XX4PAPAU41@PAX@Z 
01:0005C0A8 ?_tryIns_red@redBlackSet@@SAXQAVrTypeLibrary@TypeLibraries@RunTime@VIP@@PA$?_comparator$1@core@@SAXXXPAPAUcompareResult_struct@_builtIn@@@Z$PAU23@XPAUsetRep_struct@1@XX4PAPAU41@PAX@Z 
01:0005C14C ?_balance@redBlackSet@@SAXQAVrTypeLibrary@TypeLibraries@RunTime@VIP@@PAUsetRep_struct@1@XX1PAPAU21@PAX@Z 
01:0005C600 ?_makeblack@redBlackSet@@SAXQAVrTypeLibrary@TypeLibraries@RunTime@VIP@@PAUsetRep_struct@1@XPAPAU21@PAX@Z 
01:0005C67C ?_tryDelete_rep@redBlackSet@@SAXQAVrTypeLibrary@TypeLibraries@RunTime@VIP@@PA$?_comparator$1@core@@SAXXXPAPAUcompareResult_struct@_builtIn@@@Z$XPAUsetRep_struct@1@XPAPAU21@PAX@Z 
01:0005C6B0 ?_tryDel_rep@redBlackSet@@SAXQAVrTypeLibrary@TypeLibraries@RunTime@VIP@@PA$?_comparator$1@core@@SAXXXPAPAUcompareResult_struct@_builtIn@@@Z$XPAUsetRep_struct@1@XPAPAU21@PAX@Z 
01:0005C7E0 ?_tryDel_node_rep@redBlackSet@@SAXQAVrTypeLibrary@TypeLibraries@RunTime@VIP@@PA$?_comparator$1@core@@SAXXXPAPAUcompareResult_struct@_builtIn@@@Z$PAU23@XPAUsetRep_struct@1@XX4PAPAU41@PAX@Z 
01:0005C85C ?_tryDelLeft_rep@redBlackSet@@SAXQAVrTypeLibrary@TypeLibraries@RunTime@VIP@@PA$?_comparator$1@core@@SAXXXPAPAUcompareResult_struct@_builtIn@@@Z$XPAUsetRep_struct@1@XX3PAPAU21@PAX@Z 
01:0005C8FC ?_tryDelRight_rep@redBlackSet@@SAXQAVrTypeLibrary@TypeLibraries@RunTime@VIP@@PA$?_comparator$1@core@@SAXXXPAPAUcompareResult_struct@_builtIn@@@Z$XPAUsetRep_struct@1@XX3PAPAU21@PAX@Z 
01:0005C9A4 ?_balLeft@redBlackSet@@SAXQAVrTypeLibrary@TypeLibraries@RunTime@VIP@@PAUsetRep_struct@1@XX1PAPAU21@PAX@Z 
01:0005CBC4 ?_balRight@redBlackSet@@SAXQAVrTypeLibrary@TypeLibraries@RunTime@VIP@@PAUsetRep_struct@1@XX1PAPAU21@PAX@Z 
01:0005CDE4 ?_sub1@redBlackSet@@SAXQAVrTypeLibrary@TypeLibraries@RunTime@VIP@@PAUsetRep_struct@1@XPAPAU21@PAX@Z 
01:0005CE7C ?_mkNode@redBlackSet@@SAXQAVrTypeLibrary@TypeLibraries@RunTime@VIP@@PAUsetRep_struct@1@X1PAPAU21@PAX@Z 
01:0005D128 ?_mkNodeRR_BC@redBlackSet@@SAXQAVrTypeLibrary@TypeLibraries@RunTime@VIP@@PAUsetRep_struct@1@XX1X1PAPAU21@PAX@Z 
01:0005D224 ?_mkNodeBB_BC@redBlackSet@@SAXQAVrTypeLibrary@TypeLibraries@RunTime@VIP@@PAUsetRep_struct@1@XX1X1PAPAU21@PAX@Z 
01:0005D31C ?_present_set@redBlackSet@@SAXQAVrTypeLibrary@TypeLibraries@RunTime@VIP@@PAUset_struct@1@XPAPAUpresentation_struct@presenter@@@Z 
01:0005D334 ?_present_setrep/1nf$1@redBlackSet@@SAXPAUpresent_setrep/1nf$1_struct@1@PAX@Z 
01:0005D368 ?_present_setRep@redBlackSet@@SAXQAVrTypeLibrary@TypeLibraries@RunTime@VIP@@PAUsetRep_struct@1@XPAPAUpresentation_struct@presenter@@@Z 
--- From 'obj\collectionmsupport.3A44ED4E.obj'
01:0005D3B0 ?new$@collectionMsupport@collectionSupport@@SAXQAV1@2@XQAVrTypeLibrary@TypeLibraries@RunTime@VIP@@QAVcollectionMsupportSite@@2@X@Z 
01:0005D3F8 ?_new@collectionMsupport@collectionSupport@@SAXQAVrTypeLibrary@TypeLibraries@RunTime@VIP@@QAVcollectionMsupportSite@@2@XPAPAV1@2@PAX@Z  (Idle)
01:0005D424 ?_object_typelib_initializer$@collectionMsupport@collectionSupport@@SGXQAV1@2@XQAVrTypeLibrary@TypeLibraries@RunTime@VIP@@@Z 
01:0005D5B4 collectionSupport\collectionMsupport{@Type}?_initObject@@@QAGXQAV1@H@Z 
01:0005D620 ?@create_object@collectionMsupport@collectionSupport@@SGQAV1@2@XQAVrTypeLibrary@TypeLibraries@RunTime@VIP@@@Z 
01:0005D644 collectionSupport\collectionMsupport{@Type}?_InternalFinalizer@@@QAGXQAV1@@Z 
001000:05C660 000210   .text$mn::CODE::<no group> F=4
--- From '..\..\..\_intermediate\sourceVS\vipInit\Win32\ReleasePE\VIPMain.obj'
01:0005D660 _VIPStartUp@0  (Idle)
--- From '..\..\..\_intermediate\sourceVS\vipInit\Win32\ReleasePE\VIPDll.obj'
01:0005D6D0 ?VIPDllGetHandleModule@RunTime@VIP@@YAPAXXZ 
01:0005D6E0 ?tryCallHook@VIPDllHook@RunTime@VIP@@QBEHPAXK0@Z 
01:0005D720 _VIPDllMain@12  (Idle)
01:0005D800 _VIPSetDllHook@4  (Idle)
--- From '..\..\..\_intermediate\sourceVS\vipInit\Win32\ReleasePE\VIPPE.obj'
01:0005D820 ?VIP_PE_Dialog@@YAXXZ 
Frame 05E000   Size 054920.  Name=<  .rdata>, 	Chars=40000040h. [IR]
05E000:000000 000090   VIPBrow::VIPBrow::.rdata F=4
--- From 'obj\gui_api.16868AAC.obj'
02:0005E000 v$$constant$$0000002C  (Idle)
02:0005E010 v$$constant$$00000030  (Idle)
--- From 'obj\time.6AFD2988.obj'
02:0005E020 v$$constant$$0000  (Idle)
--- From 'obj\gui_api.16868AAC.obj'
02:0005E030 v$$constant$$00000068  (Idle)
02:0005E040 v$$constant$$0000001C  (Idle)
--- From 'obj\memory.568C55F8.obj'
02:0005E050 v$$constant$$00000004  (Idle)
02:0005E060 v$$constant$$00000001  (Idle)
02:0005E070 v$$constant$$00000002  (Idle)
02:0005E080 v$$constant$$00000008  (Idle)
05E000:000090 0034B0   VIPTypeL::VIPTypeL::.rdata F=4
--- From 'obj\segmented_utf16.76E668A2.obj'
02:0005E090 $segmentedSupport{@Segment}$_global_class$1$domain$$type_library$1${class$_builtIn::string$}$static$ 
--- From 'obj\locale_api.1E7D05A5.obj'
02:0005E0A0 $outputStream_string$_global_class$0$domain$$type_library$ 
--- From 'obj\segmented_utf16.76E668A2.obj'
02:0005E0B0 $segmented_utf16@classDB$segmented_utf16_implement$0$domain$$type_library$ 
--- From 'obj\string.19AABD3B.obj'
02:0005E0C0 $tuple$core_class$2$domain$$type_library$2${class$_builtIn::real$class$_builtIn::string$}$static$ 
--- From 'obj\collectionmsupport.3A44ED4E.obj'
02:0005E0D0 $object$_global_class$0$domain$$type_library$ 
02:0005E0E0 $errorDescriptorInformation$_global_class$0$domain$$type_library$ 
02:0005E0F0 $trapInformationObject$_global_class$0$domain$$type_library$ 
02:0005E100 $pfc\reflection\factDescriptor$_global_class$0$domain$$type_library$ 
02:0005E110 $pfc\reflection\functorDescriptor$_global_class$0$domain$$type_library$ 
02:0005E120 $factRepresentationKind$pfc\reflection\functorDescriptor_interface$0$domain$$type_library$ 
02:0005E130 $pfc\reflection\scopeDescriptor$_global_class$0$domain$$type_library$ 
02:0005E140 $scopeKind$pfc\reflection\scopeDescriptor_interface$0$domain$$type_library$ 
02:0005E150 $pfc\reflection\typeDescriptor$_global_class$0$domain$$type_library$ 
02:0005E160 $pfc\reflection\typeDescriptor_arrow$_global_class$0$domain$$type_library$ 
02:0005E170 $callTypeDescriptor$pfc\reflection\typeDescriptor_arrow_interface$0$domain$$type_library$ 
02:0005E180 $callArgumentDescriptor$pfc\reflection\typeDescriptor_arrow_interface$0$domain$$type_library$ 
02:0005E190 $pfc\reflection\typeLibrary$_global_class$0$domain$$type_library$ 
02:0005E1A0 $presenter$pfc\reflection\typeLibrary_interface$0$domain$$type_library$ 
02:0005E1B0 $pfc\reflection\typeLibrary_arrow$_global_class$0$domain$$type_library$ 
02:0005E1C0 $formalParameter$pfc\reflection\typeLibrary_arrow_interface$0$domain$$type_library$ 
02:0005E1D0 $typePattern$pfc\reflection\typeLibrary_arrow_interface$0$domain$$type_library$ 
02:0005E1E0 $callTypeDescription$pfc\reflection\typeLibrary_arrow_interface$0$domain$$type_library$ 
02:0005E1F0 $callParameterDescription$pfc\reflection\typeLibrary_arrow_interface$0$domain$$type_library$ 
02:0005E200 $pfc\reflection\typeLibrary_functor$_global_class$0$domain$$type_library$ 
02:0005E210 $pfc\reflection\typeLibrary_numeric$_global_class$0$domain$$type_library$ 
02:0005E220 $inputBuffer$_global_class$0$domain$$type_library$ 
02:0005E230 $inputSupport$_global_class$0$domain$$type_library$ 
--- From 'obj\inputstreamsupport.7AF62102.obj'
02:0005E240 $outputBuffer$_global_class$0$domain$$type_library$ 
02:0005E250 $outputStreamSupport$_global_class$0$domain$$type_library$ 
02:0005E260 $outputStreamSupportSite$_global_class$0$domain$$type_library$ 
--- From 'obj\collectionmsupport.3A44ED4E.obj'
02:0005E270 $bufferSupport$_global_class$0$domain$$type_library$ 
02:0005E280 $inputStream$_global_class$0$domain$$type_library$ 
02:0005E290 $outputStream$_global_class$0$domain$$type_library$ 
02:0005E2A0 $outputSerializer$outputStream_interface$0$domain$$type_library$ 
02:0005E2B0 $stdioState$_global_class$0$domain$$type_library$ 
02:0005E2C0 $stream$_global_class$0$domain$$type_library$ 
02:0005E2D0 $mode$stream_interface$0$domain$$type_library$ 
02:0005E2E0 $runtimeLinknamesKernel$_global_class$0$domain$$type_library$ 
02:0005E2F0 $runtimeLinkNamesRun$_global_class$0$domain$$type_library$ 
--- From 'obj\string.19AABD3B.obj'
02:0005E300 $caseSensitivity$string_class$0$domain$$type_library$ 
02:0005E310 $adjustBehaviour$string_class$0$domain$$type_library$ 
02:0005E320 $adjustSide$string_class$0$domain$$type_library$ 
02:0005E330 $oneSymbolString$string_implement$0$domain$$type_library$ 
02:0005E340 $getstring/2nf$1$outputStream_string_implement$0$domain$$type_library$ 
02:0005E350 $getstring/3nf$1$outputStream_string_implement$0$domain$$type_library$ 
02:0005E360 $getstring/4nf$1$outputStream_string_implement$0$domain$$type_library$ 
02:0005E370 $getstring/5nf$1$outputStream_string_implement$0$domain$$type_library$ 
02:0005E380 $getstringallownull/2nf$1$outputStream_string_implement$0$domain$$type_library$ 
02:0005E390 $getstringallownull/3nf$1$outputStream_string_implement$0$domain$$type_library$ 
02:0005E3A0 $getstringallownull/4nf$1$outputStream_string_implement$0$domain$$type_library$ 
02:0005E3B0 $getstringallownull/5nf$1$outputStream_string_implement$0$domain$$type_library$ 
02:0005E3C0 $inputStream_string@objectDB$inputStream_string_implement$0$domain$$type_library$ 
--- From 'obj\mapm_redblack.875A0474.obj'
02:0005E3D0 $mapM_redBlack@objectDB$mapM_redBlack{@Key,@Data}_implement$0$domain$$type_library$ 
02:0005E3E0 $mapm_redblack$typeLibDB$mapM_redBlack{@Key,@Data}_implement$0$domain$$type_library$ 
--- From 'obj\math.5D7D6037.obj'
02:0005E3F0 $inCircle$math_class$0$domain$$type_library$ 
02:0005E400 $aPeriod$math_class$0$domain$$type_library$ 
02:0005E410 $uReal$math_class$0$domain$$type_library$ 
--- From 'obj\exe.D80FC844.obj'
02:0005E420 $mainExe@classDB$mainExe_implement$0$domain$$type_library$ 
--- From 'obj\shell_api.E8D4E14B.obj'
02:0005E430 $shellExecuteInfo$shell_native_class$0$domain$$type_library$ 
02:0005E440 $appBarData$shell_native_class$0$domain$$type_library$ 
02:0005E450 $shFileOpStruct$shell_native_class$0$domain$$type_library$ 
02:0005E460 $sHNameMapping$shell_native_class$0$domain$$type_library$ 
02:0005E470 $shQueryRBinfo$shell_native_class$0$domain$$type_library$ 
02:0005E480 $notifyIcondata$shell_native_class$0$domain$$type_library$ 
02:0005E490 $sHFileInfo$shell_native_class$0$domain$$type_library$ 
02:0005E4A0 $browseinfo$shell_native_class$0$domain$$type_library$ 
02:0005E4B0 $browseCallbackProc$shell_native_class$0$domain$$type_library$ 
02:0005E4C0 $shard$shell_native_class$0$domain$$type_library$ 
--- From 'obj\exe_api.A246601B.obj'
02:0005E4D0 $outputStream_binary$_global_class$0$domain$$type_library$ 
--- From 'obj\commandlineparser.67E728BA.obj'
02:0005E4E0 $iStream_native$_global_class$0$domain$$type_library$ 
02:0005E4F0 $iUnknown$_global_class$0$domain$$type_library$ 
--- From 'obj\gui_api.16868AAC.obj'
02:0005E500 $pnt$vpiDomains_class$0$domain$$type_library$ 
02:0005E510 $rct$vpiDomains_class$0$domain$$type_library$ 
--- From 'obj\vpidomains.E7102A6D.obj'
02:0005E520 $brush$vpiDomains_class$0$domain$$type_library$ 
02:0005E530 $pen$vpiDomains_class$0$domain$$type_library$ 
02:0005E540 $drawtools$vpiDomains_class$0$domain$$type_library$ 
02:0005E550 $menu$vpiDomains_class$0$domain$$type_library$ 
02:0005E560 $keyModifier$vpiDomains_class$0$domain$$type_library$ 
02:0005E570 $acceleratorKey$vpiDomains_class$0$domain$$type_library$ 
02:0005E580 $menuItem$vpiDomains_class$0$domain$$type_library$ 
02:0005E590 $event$vpiDomains_class$0$domain$$type_library$ 
02:0005E5A0 $controlInfo$vpiDomains_class$0$domain$$type_library$ 
02:0005E5B0 $stateInfo$vpiDomains_class$0$domain$$type_library$ 
02:0005E5C0 $windef$vpiDomains_class$0$domain$$type_library$ 
02:0005E5D0 $wdef$vpiDomains_class$0$domain$$type_library$ 
02:0005E5E0 $errhandler$vpiDomains_class$0$domain$$type_library$ 
02:0005E5F0 $eHandler$vpiDomains_class$0$domain$$type_library$ 
02:0005E600 $accelerator$vpiDomains_class$0$domain$$type_library$ 
02:0005E610 $bitmapId$vpiDomains_class$0$domain$$type_library$ 
02:0005E620 $ddeserviceInfo$vpiDomains_class$0$domain$$type_library$ 
02:0005E630 $ddedata$vpiDomains_class$0$domain$$type_library$ 
02:0005E640 $ddeevent$vpiDomains_class$0$domain$$type_library$ 
02:0005E650 $alignment$vpiDomains_class$0$domain$$type_library$ 
02:0005E660 $ellipsis$vpiDomains_class$0$domain$$type_library$ 
--- From 'obj\gui_api.16868AAC.obj'
02:0005E670 $tuple$core_class$2$domain$$type_library$2${class$_builtIn::integer$class$_builtIn::integer$}$static$ 
02:0005E680 $*$_builtIn_class$1$domain$$type_library$1${class$vpiDomains::pnt$}$static$ 
02:0005E690 $tuple$core_class$4$domain$$type_library$4${class$_builtIn::integer$class$_builtIn::integer$class$_builtIn::integer$class$_builtIn::integer$}$static$ 
02:0005E6B0 $*$_builtIn_class$1$domain$$type_library$1${typelib(class$vpiDomains::pnt*)$}$static$ 
--- From 'obj\systeminformation_api.2864B3DF.obj'
02:0005E6C0 $logfont$gui_native_class$0$domain$$type_library$ 
--- From 'obj\gui_api.16868AAC.obj'
02:0005E6D0 $mouseMovePoint$gui_native_class$0$domain$$type_library$ 
02:0005E6E0 $enumDesktopProc$gui_native_class$0$domain$$type_library$ 
02:0005E6F0 $enumWindowStationProc$gui_native_class$0$domain$$type_library$ 
02:0005E700 $copyDataStruct$gui_native_class$0$domain$$type_library$ 
02:0005E710 $trackMouseEvent$gui_native_class$0$domain$$type_library$ 
02:0005E720 $msg$gui_native_class$0$domain$$type_library$ 
02:0005E730 $sendAsyncProc$gui_native_class$0$domain$$type_library$ 
02:0005E740 $wndProc$gui_native_class$0$domain$$type_library$ 
02:0005E750 $wndClassEx$gui_native_class$0$domain$$type_library$ 
02:0005E760 $createstruct$gui_native_class$0$domain$$type_library$ 
02:0005E770 $flashInfo$gui_native_class$0$domain$$type_library$ 
02:0005E780 $windowPos$gui_native_class$0$domain$$type_library$ 
02:0005E790 $windowPlacement$gui_native_class$0$domain$$type_library$ 
02:0005E7A0 $windowInfo$gui_native_class$0$domain$$type_library$ 
02:0005E7B0 $monitorInfo$gui_native_class$0$domain$$type_library$ 
02:0005E7C0 $monitorInfoEx$gui_native_class$0$domain$$type_library$ 
02:0005E7D0 $monitorEnumProc$gui_native_class$0$domain$$type_library$ 
02:0005E7E0 $dlgTemplate$gui_native_class$0$domain$$type_library$ 
02:0005E7F0 $dlgItemTemplate$gui_native_class$0$domain$$type_library$ 
02:0005E800 $dlgTemplateEx$gui_native_class$0$domain$$type_library$ 
02:0005E810 $timerProc$gui_native_class$0$domain$$type_library$ 
02:0005E820 $accel$gui_native_class$0$domain$$type_library$ 
02:0005E830 $menuItemInfo$gui_native_class$0$domain$$type_library$ 
02:0005E840 $drawTextParams$gui_native_class$0$domain$$type_library$ 
02:0005E850 $grayStringProc$gui_native_class$0$domain$$type_library$ 
02:0005E860 $drawStateProc$gui_native_class$0$domain$$type_library$ 
02:0005E870 $size$gui_native_class$0$domain$$type_library$ 
02:0005E880 $textmetric$gui_native_class$0$domain$$type_library$ 
02:0005E890 $paintStruct$gui_native_class$0$domain$$type_library$ 
02:0005E8A0 $scrollBar$gui_native_class$0$domain$$type_library$ 
02:0005E8B0 $propEnumProc$gui_native_class$0$domain$$type_library$ 
02:0005E8C0 $helpInfo$gui_native_class$0$domain$$type_library$ 
02:0005E8D0 $wndEnumProc$gui_native_class$0$domain$$type_library$ 
02:0005E8E0 $gaFlags$gui_native_class$0$domain$$type_library$ 
02:0005E8F0 $hookProc$gui_native_class$0$domain$$type_library$ 
02:0005E900 $kbdllhookstruct$gui_native_class$0$domain$$type_library$ 
02:0005E910 $iconInfo$gui_native_class$0$domain$$type_library$ 
02:0005E920 $buttonImageList$gui_native_class$0$domain$$type_library$ 
02:0005E930 $button_imageList_align$gui_native_class$0$domain$$type_library$ 
02:0005E940 $nmBcHotItem$gui_native_class$0$domain$$type_library$ 
02:0005E950 $button_splitInfo$gui_native_class$0$domain$$type_library$ 
02:0005E960 $nmBcDropdown$gui_native_class$0$domain$$type_library$ 
02:0005E970 $nmhdr$gui_native_class$0$domain$$type_library$ 
02:0005E980 $nmCustomDraw$gui_native_class$0$domain$$type_library$ 
02:0005E990 $scrollInfo$gui_native_class$0$domain$$type_library$ 
02:0005E9A0 $scrollBarInfo$gui_native_class$0$domain$$type_library$ 
02:0005E9B0 $logbrush$gui_native_class$0$domain$$type_library$ 
02:0005E9C0 $tcItem$gui_native_class$0$domain$$type_library$ 
02:0005E9D0 $tagInitCommonControlsEx$gui_native_class$0$domain$$type_library$ 
02:0005E9E0 $logPalette$gui_native_class$0$domain$$type_library$ 
02:0005E9F0 $mouseInput$gui_native_class$0$domain$$type_library$ 
02:0005EA00 $keybdInput$gui_native_class$0$domain$$type_library$ 
02:0005EA10 $hardwareInput$gui_native_class$0$domain$$type_library$ 
02:0005EA20 $inputUnion$gui_native_class$0$domain$$type_library$ 
02:0005EA30 $input$gui_native_class$0$domain$$type_library$ 
02:0005EA40 $toolinfo$gui_native_class$0$domain$$type_library$ 
02:0005EA50 $nmttdispInfo$gui_native_class$0$domain$$type_library$ 
02:0005EA60 $blendFunction$gui_native_class$0$domain$$type_library$ 
02:0005EA70 $chooseFont$gui_native_class$0$domain$$type_library$ 
02:0005EA80 $printdlg$gui_native_class$0$domain$$type_library$ 
02:0005EA90 $printdlgEx$gui_native_class$0$domain$$type_library$ 
02:0005EAA0 $initCommonControlsEx$gui_native_class$0$domain$$type_library$ 
02:0005EAB0 $colorScheme$gui_native_class$0$domain$$type_library$ 
02:0005EAC0 $nmTooltipsCreated$gui_native_class$0$domain$$type_library$ 
02:0005EAD0 $nmMouse$gui_native_class$0$domain$$type_library$ 
02:0005EAE0 $nmObjectNotify$gui_native_class$0$domain$$type_library$ 
02:0005EAF0 $nmKey$gui_native_class$0$domain$$type_library$ 
02:0005EB00 $nmchar$gui_native_class$0$domain$$type_library$ 
02:0005EB10 $nmCustomText$gui_native_class$0$domain$$type_library$ 
02:0005EB20 $nmttCustomDraw$gui_native_class$0$domain$$type_library$ 
02:0005EB30 $nmCustomSplitRectInfo$gui_native_class$0$domain$$type_library$ 
02:0005EB40 $imageListDrawParams$gui_native_class$0$domain$$type_library$ 
02:0005EB50 $imageInfo$gui_native_class$0$domain$$type_library$ 
02:0005EB60 $hd_textFilter$gui_native_class$0$domain$$type_library$ 
02:0005EB70 $hdItem$gui_native_class$0$domain$$type_library$ 
02:0005EB80 $hdLayout$gui_native_class$0$domain$$type_library$ 
02:0005EB90 $hdHitTestInfo$gui_native_class$0$domain$$type_library$ 
02:0005EBA0 $nmHeader$gui_native_class$0$domain$$type_library$ 
02:0005EBB0 $nmhdDispInfo$gui_native_class$0$domain$$type_library$ 
02:0005EBC0 $nmhdFilterBtnClick$gui_native_class$0$domain$$type_library$ 
02:0005EBD0 $tbButton$gui_native_class$0$domain$$type_library$ 
02:0005EBE0 $colormap$gui_native_class$0$domain$$type_library$ 
02:0005EBF0 $nmtbCustomDraw$gui_native_class$0$domain$$type_library$ 
02:0005EC00 $tbAddBitmap$gui_native_class$0$domain$$type_library$ 
02:0005EC10 $tbSaveParams$gui_native_class$0$domain$$type_library$ 
02:0005EC20 $tbInsertMark$gui_native_class$0$domain$$type_library$ 
02:0005EC30 $tbReplaceBitmap$gui_native_class$0$domain$$type_library$ 
02:0005EC40 $tbButtonInfo$gui_native_class$0$domain$$type_library$ 
02:0005EC50 $tbMetrics$gui_native_class$0$domain$$type_library$ 
02:0005EC60 $nmtbHotItem$gui_native_class$0$domain$$type_library$ 
02:0005EC70 $nmtbSave$gui_native_class$0$domain$$type_library$ 
02:0005EC80 $nmtbRestore$gui_native_class$0$domain$$type_library$ 
02:0005EC90 $nmtbGetInfoTip$gui_native_class$0$domain$$type_library$ 
02:0005ECA0 $nmtbDispInfo$gui_native_class$0$domain$$type_library$ 
02:0005ECB0 $nmToolbar$gui_native_class$0$domain$$type_library$ 
02:0005ECC0 $rebarInfo$gui_native_class$0$domain$$type_library$ 
02:0005ECD0 $rebarBandInfo$gui_native_class$0$domain$$type_library$ 
02:0005ECE0 $nmRebarChildSize$gui_native_class$0$domain$$type_library$ 
02:0005ECF0 $nmRebar$gui_native_class$0$domain$$type_library$ 
02:0005ED00 $nmrbAutoSize$gui_native_class$0$domain$$type_library$ 
02:0005ED10 $nmRebarChevron$gui_native_class$0$domain$$type_library$ 
02:0005ED20 $nmRebarSplitter$gui_native_class$0$domain$$type_library$ 
02:0005ED30 $nmRebarAutoBreak$gui_native_class$0$domain$$type_library$ 
02:0005ED40 $rbHitTestInfo$gui_native_class$0$domain$$type_library$ 
02:0005ED50 $ttToolInfo$gui_native_class$0$domain$$type_library$ 
02:0005ED60 $ttGetTitle$gui_native_class$0$domain$$type_library$ 
02:0005ED70 $ttHitTestInfo$gui_native_class$0$domain$$type_library$ 
02:0005ED80 $nmtrbThumbPosChanging$gui_native_class$0$domain$$type_library$ 
02:0005ED90 $dragListInfo$gui_native_class$0$domain$$type_library$ 
02:0005EDA0 $udAccel$gui_native_class$0$domain$$type_library$ 
02:0005EDB0 $nmUpDown$gui_native_class$0$domain$$type_library$ 
02:0005EDC0 $pbRange$gui_native_class$0$domain$$type_library$ 
02:0005EDD0 $lItem$gui_native_class$0$domain$$type_library$ 
02:0005EDE0 $lHitTestInfo$gui_native_class$0$domain$$type_library$ 
02:0005EDF0 $nmLink$gui_native_class$0$domain$$type_library$ 
02:0005EE00 $lvItem$gui_native_class$0$domain$$type_library$ 
02:0005EE10 $lvfindInfo$gui_native_class$0$domain$$type_library$ 
02:0005EE20 $lvHitTestInfo$gui_native_class$0$domain$$type_library$ 
02:0005EE30 $lvcolumn$gui_native_class$0$domain$$type_library$ 
02:0005EE40 $pfnlvcompare$gui_native_class$0$domain$$type_library$ 
02:0005EE50 $lvbkImage$gui_native_class$0$domain$$type_library$ 
02:0005EE60 $lvGroup$gui_native_class$0$domain$$type_library$ 
02:0005EE70 $lvGroupMetrics$gui_native_class$0$domain$$type_library$ 
02:0005EE80 $pfnlvGroupcompare$gui_native_class$0$domain$$type_library$ 
02:0005EE90 $lvInsertGroupsorted$gui_native_class$0$domain$$type_library$ 
02:0005EEA0 $lvtileViewInfo$gui_native_class$0$domain$$type_library$ 
02:0005EEB0 $lvtileInfo$gui_native_class$0$domain$$type_library$ 
02:0005EEC0 $lvInsertMark$gui_native_class$0$domain$$type_library$ 
02:0005EED0 $lvsetInfoTip$gui_native_class$0$domain$$type_library$ 
02:0005EEE0 $lvfooterInfo$gui_native_class$0$domain$$type_library$ 
02:0005EEF0 $lvfooterItem$gui_native_class$0$domain$$type_library$ 
02:0005EF00 $lvItemIndex$gui_native_class$0$domain$$type_library$ 
02:0005EF10 $nmListView$gui_native_class$0$domain$$type_library$ 
02:0005EF20 $nmItemActivate$gui_native_class$0$domain$$type_library$ 
02:0005EF30 $nmlvCustomDraw$gui_native_class$0$domain$$type_library$ 
02:0005EF40 $nmlvcachehint$gui_native_class$0$domain$$type_library$ 
02:0005EF50 $nmlvfindItem$gui_native_class$0$domain$$type_library$ 
02:0005EF60 $nmlvodStateChange$gui_native_class$0$domain$$type_library$ 
02:0005EF70 $nmlvDispInfo$gui_native_class$0$domain$$type_library$ 
02:0005EF80 $nmlvKeyDown$gui_native_class$0$domain$$type_library$ 
02:0005EF90 $nmlvLink$gui_native_class$0$domain$$type_library$ 
02:0005EFA0 $nmlvGetInfoTip$gui_native_class$0$domain$$type_library$ 
02:0005EFB0 $nmlvscroll$gui_native_class$0$domain$$type_library$ 
02:0005EFC0 $nmlvemptyMarkup$gui_native_class$0$domain$$type_library$ 
02:0005EFD0 $nmtvStateImageChanging$gui_native_class$0$domain$$type_library$ 
02:0005EFE0 $tvItem$gui_native_class$0$domain$$type_library$ 
02:0005EFF0 $tvItemexa$gui_native_class$0$domain$$type_library$ 
02:0005F000 $tvItemEx$gui_native_class$0$domain$$type_library$ 
02:0005F010 $tvHitTestInfo$gui_native_class$0$domain$$type_library$ 
02:0005F020 $tvGetItemPartRectInfo$gui_native_class$0$domain$$type_library$ 
02:0005F030 $pfntvcompare$gui_native_class$0$domain$$type_library$ 
02:0005F040 $tvsortcb$gui_native_class$0$domain$$type_library$ 
02:0005F050 $nmTreeView$gui_native_class$0$domain$$type_library$ 
02:0005F060 $nmtvDispInfo$gui_native_class$0$domain$$type_library$ 
02:0005F070 $nmtvDispInfoexa$gui_native_class$0$domain$$type_library$ 
02:0005F080 $nmtvDispInfoEx$gui_native_class$0$domain$$type_library$ 
02:0005F090 $nmtvKeyDown$gui_native_class$0$domain$$type_library$ 
02:0005F0A0 $nmtvCustomDraw$gui_native_class$0$domain$$type_library$ 
02:0005F0B0 $nmtvGetInfoTipa$gui_native_class$0$domain$$type_library$ 
02:0005F0C0 $nmtvGetInfoTip$gui_native_class$0$domain$$type_library$ 
02:0005F0D0 $nmtvItemChange$gui_native_class$0$domain$$type_library$ 
02:0005F0E0 $nmtvasyncDraw$gui_native_class$0$domain$$type_library$ 
02:0005F0F0 $comboBoxexItema$gui_native_class$0$domain$$type_library$ 
02:0005F100 $comboBoxexItem$gui_native_class$0$domain$$type_library$ 
02:0005F110 $nmcomboBoxexa$gui_native_class$0$domain$$type_library$ 
02:0005F120 $nmcomboBoxEx$gui_native_class$0$domain$$type_library$ 
02:0005F130 $nmcbeDragbegin$gui_native_class$0$domain$$type_library$ 
02:0005F140 $nmcbeDragbegina$gui_native_class$0$domain$$type_library$ 
02:0005F150 $nmcbeEndedit$gui_native_class$0$domain$$type_library$ 
02:0005F160 $nmcbeEndedita$gui_native_class$0$domain$$type_library$ 
02:0005F170 $tcItemHeadera$gui_native_class$0$domain$$type_library$ 
02:0005F180 $tcItemHeader$gui_native_class$0$domain$$type_library$ 
02:0005F190 $tcItema$gui_native_class$0$domain$$type_library$ 
02:0005F1A0 $tcHitTestInfo$gui_native_class$0$domain$$type_library$ 
02:0005F1B0 $nmtcKeyDown$gui_native_class$0$domain$$type_library$ 
02:0005F1C0 $mcHitTestInfo$gui_native_class$0$domain$$type_library$ 
02:0005F1D0 $mcgridInfo$gui_native_class$0$domain$$type_library$ 
02:0005F1E0 $nmSelChange$gui_native_class$0$domain$$type_library$ 
02:0005F1F0 $nmdayState$gui_native_class$0$domain$$type_library$ 
02:0005F200 $nmViewChange$gui_native_class$0$domain$$type_library$ 
02:0005F210 $dateTimepickerInfo$gui_native_class$0$domain$$type_library$ 
02:0005F220 $nmDateTimeChange$gui_native_class$0$domain$$type_library$ 
02:0005F230 $nmDateTimeStringa$gui_native_class$0$domain$$type_library$ 
02:0005F240 $nmDateTimeString$gui_native_class$0$domain$$type_library$ 
02:0005F250 $nmDateTimewmKeyDowna$gui_native_class$0$domain$$type_library$ 
02:0005F260 $nmDateTimewmKeyDown$gui_native_class$0$domain$$type_library$ 
02:0005F270 $nmDateTimeFormat$gui_native_class$0$domain$$type_library$ 
02:0005F280 $nmDateTimeFormatQuery$gui_native_class$0$domain$$type_library$ 
02:0005F290 $nmiPaddress$gui_native_class$0$domain$$type_library$ 
02:0005F2A0 $nmpgscroll$gui_native_class$0$domain$$type_library$ 
02:0005F2B0 $nmpgcalcSize$gui_native_class$0$domain$$type_library$ 
02:0005F2C0 $nmpgHotItem$gui_native_class$0$domain$$type_library$ 
02:0005F2D0 $button_imageList$gui_native_class$0$domain$$type_library$ 
02:0005F2E0 $editballoonTip$gui_native_class$0$domain$$type_library$ 
02:0005F2F0 $pftaskdialogcallback$gui_native_class$0$domain$$type_library$ 
02:0005F300 $taskdialog_button$gui_native_class$0$domain$$type_library$ 
02:0005F310 $taskdialogconfig$gui_native_class$0$domain$$type_library$ 
02:0005F320 $pfndaeNumcallback$gui_native_class$0$domain$$type_library$ 
02:0005F330 $pfndaeNumcallbackconst$gui_native_class$0$domain$$type_library$ 
02:0005F340 $pfndacompare$gui_native_class$0$domain$$type_library$ 
02:0005F350 $pfndacompareconst$gui_native_class$0$domain$$type_library$ 
02:0005F360 $dpastreamInfo$gui_native_class$0$domain$$type_library$ 
02:0005F370 $pfndpastream$gui_native_class$0$domain$$type_library$ 
02:0005F380 $pfndpamerge$gui_native_class$0$domain$$type_library$ 
02:0005F390 $pfndpamergeconst$gui_native_class$0$domain$$type_library$ 
02:0005F3A0 $subclassproc$gui_native_class$0$domain$$type_library$ 
02:0005F3B0 $inputUnion_mi$gui_native_class$0$domain$$type_library$ 
02:0005F3C0 $inputUnion_ki$gui_native_class$0$domain$$type_library$ 
02:0005F3D0 $inputUnion_hi$gui_native_class$0$domain$$type_library$ 
02:0005F3E0 $scrollInfo$gui_api_class$0$domain$$type_library$ 
02:0005F3F0 $scrollBarInfo$gui_api_class$0$domain$$type_library$ 
02:0005F400 $scrollBarInfoRgState$gui_api_class$0$domain$$type_library$ 
02:0005F410 $windowPlacement$gui_api_class$0$domain$$type_library$ 
02:0005F420 $dlgTemplate$gui_api_class$0$domain$$type_library$ 
02:0005F430 $varArray$gui_api_class$0$domain$$type_library$ 
02:0005F440 $dlgItemTemplate$gui_api_class$0$domain$$type_library$ 
02:0005F450 $monitorInfo$gui_api_class$0$domain$$type_library$ 
02:0005F460 $sendinput/1np$1$gui_api_implement$0$domain$$type_library$ 
--- From 'obj\registry_api.337CB6E1.obj'
02:0005F470 $securityAttr$registry_native_class$0$domain$$type_library$ 
--- From 'obj\list.A75CEA31.obj'
02:0005F480 $*$_builtIn_class$1$domain$$type_library$1${class$core::positive$}$static$ 
02:0005F490 $comparelexically/1nf$1$list_implement$0$domain$$type_library$ 
02:0005F4A0 $comp2eq/1nf$1$list_implement$0$domain$$type_library$ 
02:0005F4B0 $sortby/3nf$1$list_implement$0$domain$$type_library$ 
02:0005F4C0 $sort/2$1$list_implement$0$domain$$type_library$ 
02:0005F4D0 $removeConsecutiveDuplicates/1$1$list_implement$0$domain$$type_library$ 
02:0005F4E0 $splitafter/2nf$1$list_implement$0$domain$$type_library$ 
02:0005F4F0 $maximum/1$1$list_implement$0$domain$$type_library$ 
02:0005F500 $minimumby/2nf$1$list_implement$0$domain$$type_library$ 
02:0005F510 $minimum/1$1$list_implement$0$domain$$type_library$ 
02:0005F520 $groupbyeq/2nf$1$list_implement$0$domain$$type_library$ 
02:0005F530 $groupbycmp/2nf$1$list_implement$0$domain$$type_library$ 
02:0005F540 $foldr/3nf$1$list_implement$0$domain$$type_library$ 
--- From 'obj\multithread.32507C62.obj'
02:0005F550 $arrayM_inline{@ItemType}$_global_class$1$domain$$type_library$1${class$_builtIn::handle$}$static$ 
--- From 'obj\criticalsectionsupport.56CDFDBE.obj'
02:0005F560 $criticalSectionSupport$_global_class$0$domain$$type_library$ 
02:0005F570 $criticalSectionSupportSite$_global_class$0$domain$$type_library$ 
--- From 'obj\exception.B6F320E8.obj'
02:0005F580 $criticalSection$_global_class$0$domain$$type_library$ 
02:0005F590 $event$_global_class$0$domain$$type_library$ 
02:0005F5A0 $mutex$_global_class$0$domain$$type_library$ 
02:0005F5B0 $semaphore$_global_class$0$domain$$type_library$ 
02:0005F5C0 $srwLock$_global_class$0$domain$$type_library$ 
02:0005F5D0 $syncObject$_global_class$0$domain$$type_library$ 
02:0005F5E0 $thread$_global_class$0$domain$$type_library$ 
02:0005F5F0 $waitableTimer$_global_class$0$domain$$type_library$ 
--- From 'obj\multithread.32507C62.obj'
02:0005F600 $threadEntryParam$thread_implement$0$domain$$type_library$ 
02:0005F610 $threadname_info$thread_implement$0$domain$$type_library$ 
02:0005F620 $thread@objectDB$thread_implement$0$domain$$type_library$ 
02:0005F630 $thread@classDB$thread_implement$0$domain$$type_library$ 
02:0005F640 $syncObject@objectDB$syncObject_implement$0$domain$$type_library$ 
02:0005F650 $srwLock@objectDB$srwLock_implement$0$domain$$type_library$ 
02:0005F660 $criticalSection@objectDB$criticalSection_implement$0$domain$$type_library$ 
--- From 'obj\arraym_inline.F665267A.obj'
02:0005F670 $arrayM_inline@objectDB$arrayM_inline{@ItemType}_implement$0$domain$$type_library$ 
02:0005F680 $arrayM_inline@classDB$arrayM_inline{@ItemType}_implement$0$domain$$type_library$ 
02:0005F690 $arraym_inline$typeLibDB$arrayM_inline{@ItemType}_implement$0$domain$$type_library$ 
--- From 'obj\std.2DE0EC97.obj'
02:0005F6A0 $lazy/1nf$1$std_implement$0$domain$$type_library$ 
--- From 'obj\varm.B882E173.obj'
02:0005F6B0 $varM_reference@objectDB$varM_reference{@Term}_implement$0$domain$$type_library$ 
02:0005F6C0 $varm_reference$typeLibDB$varM_reference{@Term}_implement$0$domain$$type_library$ 
02:0005F6D0 $varm_optional$typeLibDB$varM_optional{@Term}_implement$0$domain$$type_library$ 
02:0005F6E0 $varM_lazy@objectDB$varM_lazy{@Term}_implement$0$domain$$type_library$ 
02:0005F6F0 $varm_lazy$typeLibDB$varM_lazy{@Term}_implement$0$domain$$type_library$ 
02:0005F700 $varM@objectDB$varM{@Term}_implement$0$domain$$type_library$ 
02:0005F710 $varm$typeLibDB$varM{@Term}_implement$0$domain$$type_library$ 
02:0005F720 $newmodel_unary/2np$1$varM{@Term}_implement$0$domain$$type_library$ 
02:0005F730 $newmodel_unary/2np$2$varM{@Term}_implement$0$domain$$type_library$ 
02:0005F740 $newmodel_binary/3np$1$varM{@Term}_implement$0$domain$$type_library$ 
02:0005F750 $newmodel_binary/3np$2$varM{@Term}_implement$0$domain$$type_library$ 
--- From 'obj\event.D92D3A63.obj'
02:0005F760 $event7@objectDB$event7{@Type1,@Type2,@Type3,@Type4,@Type5,@Type6,@Type7}_implement$0$domain$$type_library$ 
02:0005F770 $event7$typeLibDB$event7{@Type1,@Type2,@Type3,@Type4,@Type5,@Type6,@Type7}_implement$0$domain$$type_library$ 
02:0005F780 $addlistener_once/1np$1$event7{@Type1,@Type2,@Type3,@Type4,@Type5,@Type6,@Type7}_implement$0$domain$$type_library$ 
02:0005F790 $addlistener_once/1np$2$event7{@Type1,@Type2,@Type3,@Type4,@Type5,@Type6,@Type7}_implement$0$domain$$type_library$ 
02:0005F7A0 $addlistener/2np0$1$event7{@Type1,@Type2,@Type3,@Type4,@Type5,@Type6,@Type7}_implement$0$domain$$type_library$ 
02:0005F7B0 $addlistener/2np1$1$event7{@Type1,@Type2,@Type3,@Type4,@Type5,@Type6,@Type7}_implement$0$domain$$type_library$ 
02:0005F7C0 $addlistener/2np2$1$event7{@Type1,@Type2,@Type3,@Type4,@Type5,@Type6,@Type7}_implement$0$domain$$type_library$ 
02:0005F7D0 $addlistener/2np3$1$event7{@Type1,@Type2,@Type3,@Type4,@Type5,@Type6,@Type7}_implement$0$domain$$type_library$ 
02:0005F7E0 $addlistener/2np4$1$event7{@Type1,@Type2,@Type3,@Type4,@Type5,@Type6,@Type7}_implement$0$domain$$type_library$ 
02:0005F7F0 $addlistener/2np5$1$event7{@Type1,@Type2,@Type3,@Type4,@Type5,@Type6,@Type7}_implement$0$domain$$type_library$ 
02:0005F800 $addlistener/2np6$1$event7{@Type1,@Type2,@Type3,@Type4,@Type5,@Type6,@Type7}_implement$0$domain$$type_library$ 
02:0005F810 $addlistener/2np7$1$event7{@Type1,@Type2,@Type3,@Type4,@Type5,@Type6,@Type7}_implement$0$domain$$type_library$ 
02:0005F820 $$_arrowtype@_procedure_prolog_28$XXXXXXXX@Z$event7{@Type1,@Type2,@Type3,@Type4,@Type5,@Type6,@Type7}_implement$0$domain$$event7{@Type1,@Type2,@Type3,@Type4,@Type5,@Type6,@Type7}_implement$0$domain$$type_library$ 
02:0005F830 $event6@objectDB$event6{@Type1,@Type2,@Type3,@Type4,@Type5,@Type6}_implement$0$domain$$type_library$ 
02:0005F840 $event6$typeLibDB$event6{@Type1,@Type2,@Type3,@Type4,@Type5,@Type6}_implement$0$domain$$type_library$ 
02:0005F850 $addlistener_once/1np$1$event6{@Type1,@Type2,@Type3,@Type4,@Type5,@Type6}_implement$0$domain$$type_library$ 
02:0005F860 $addlistener_once/1np$2$event6{@Type1,@Type2,@Type3,@Type4,@Type5,@Type6}_implement$0$domain$$type_library$ 
02:0005F870 $addlistener/2np0$1$event6{@Type1,@Type2,@Type3,@Type4,@Type5,@Type6}_implement$0$domain$$type_library$ 
02:0005F880 $addlistener/2np1$1$event6{@Type1,@Type2,@Type3,@Type4,@Type5,@Type6}_implement$0$domain$$type_library$ 
02:0005F890 $addlistener/2np2$1$event6{@Type1,@Type2,@Type3,@Type4,@Type5,@Type6}_implement$0$domain$$type_library$ 
02:0005F8A0 $addlistener/2np3$1$event6{@Type1,@Type2,@Type3,@Type4,@Type5,@Type6}_implement$0$domain$$type_library$ 
02:0005F8B0 $addlistener/2np4$1$event6{@Type1,@Type2,@Type3,@Type4,@Type5,@Type6}_implement$0$domain$$type_library$ 
02:0005F8C0 $addlistener/2np5$1$event6{@Type1,@Type2,@Type3,@Type4,@Type5,@Type6}_implement$0$domain$$type_library$ 
02:0005F8D0 $addlistener/2np6$1$event6{@Type1,@Type2,@Type3,@Type4,@Type5,@Type6}_implement$0$domain$$type_library$ 
02:0005F8E0 $$_arrowtype@_procedure_prolog_24$XXXXXXX@Z$event6{@Type1,@Type2,@Type3,@Type4,@Type5,@Type6}_implement$0$domain$$event6{@Type1,@Type2,@Type3,@Type4,@Type5,@Type6}_implement$0$domain$$type_library$ 
02:0005F8F0 $event5@objectDB$event5{@Type1,@Type2,@Type3,@Type4,@Type5}_implement$0$domain$$type_library$ 
02:0005F900 $event5$typeLibDB$event5{@Type1,@Type2,@Type3,@Type4,@Type5}_implement$0$domain$$type_library$ 
02:0005F910 $addlistener_once/1np$1$event5{@Type1,@Type2,@Type3,@Type4,@Type5}_implement$0$domain$$type_library$ 
02:0005F920 $addlistener_once/1np$2$event5{@Type1,@Type2,@Type3,@Type4,@Type5}_implement$0$domain$$type_library$ 
02:0005F930 $addlistener/2np0$1$event5{@Type1,@Type2,@Type3,@Type4,@Type5}_implement$0$domain$$type_library$ 
02:0005F940 $addlistener/2np1$1$event5{@Type1,@Type2,@Type3,@Type4,@Type5}_implement$0$domain$$type_library$ 
02:0005F950 $addlistener/2np2$1$event5{@Type1,@Type2,@Type3,@Type4,@Type5}_implement$0$domain$$type_library$ 
02:0005F960 $addlistener/2np3$1$event5{@Type1,@Type2,@Type3,@Type4,@Type5}_implement$0$domain$$type_library$ 
02:0005F970 $addlistener/2np4$1$event5{@Type1,@Type2,@Type3,@Type4,@Type5}_implement$0$domain$$type_library$ 
02:0005F980 $addlistener/2np5$1$event5{@Type1,@Type2,@Type3,@Type4,@Type5}_implement$0$domain$$type_library$ 
02:0005F990 $$_arrowtype@_procedure_prolog_20$XXXXXX@Z$event5{@Type1,@Type2,@Type3,@Type4,@Type5}_implement$0$domain$$event5{@Type1,@Type2,@Type3,@Type4,@Type5}_implement$0$domain$$type_library$ 
02:0005F9A0 $event4@objectDB$event4{@Type1,@Type2,@Type3,@Type4}_implement$0$domain$$type_library$ 
02:0005F9B0 $event4$typeLibDB$event4{@Type1,@Type2,@Type3,@Type4}_implement$0$domain$$type_library$ 
02:0005F9C0 $addlistener_once/1np$1$event4{@Type1,@Type2,@Type3,@Type4}_implement$0$domain$$type_library$ 
02:0005F9D0 $addlistener_once/1np$2$event4{@Type1,@Type2,@Type3,@Type4}_implement$0$domain$$type_library$ 
02:0005F9E0 $addlistener/2np0$1$event4{@Type1,@Type2,@Type3,@Type4}_implement$0$domain$$type_library$ 
02:0005F9F0 $addlistener/2np1$1$event4{@Type1,@Type2,@Type3,@Type4}_implement$0$domain$$type_library$ 
02:0005FA00 $addlistener/2np2$1$event4{@Type1,@Type2,@Type3,@Type4}_implement$0$domain$$type_library$ 
02:0005FA10 $addlistener/2np3$1$event4{@Type1,@Type2,@Type3,@Type4}_implement$0$domain$$type_library$ 
02:0005FA20 $addlistener/2np4$1$event4{@Type1,@Type2,@Type3,@Type4}_implement$0$domain$$type_library$ 
02:0005FA30 $addlistener/2np5$1$event4{@Type1,@Type2,@Type3,@Type4}_implement$0$domain$$type_library$ 
02:0005FA40 $$_arrowtype@_procedure_prolog_16$XXXXX@Z$event4{@Type1,@Type2,@Type3,@Type4}_implement$0$domain$$event4{@Type1,@Type2,@Type3,@Type4}_implement$0$domain$$type_library$ 
02:0005FA50 $event3@objectDB$event3{@Type1,@Type2,@Type3}_implement$0$domain$$type_library$ 
02:0005FA60 $event3$typeLibDB$event3{@Type1,@Type2,@Type3}_implement$0$domain$$type_library$ 
02:0005FA70 $addlistener_once/1np$1$event3{@Type1,@Type2,@Type3}_implement$0$domain$$type_library$ 
02:0005FA80 $addlistener_once/1np$2$event3{@Type1,@Type2,@Type3}_implement$0$domain$$type_library$ 
02:0005FA90 $addlistener/2np0$1$event3{@Type1,@Type2,@Type3}_implement$0$domain$$type_library$ 
02:0005FAA0 $addlistener/2np1$1$event3{@Type1,@Type2,@Type3}_implement$0$domain$$type_library$ 
02:0005FAB0 $addlistener/2np2$1$event3{@Type1,@Type2,@Type3}_implement$0$domain$$type_library$ 
02:0005FAC0 $addlistener/2np3$1$event3{@Type1,@Type2,@Type3}_implement$0$domain$$type_library$ 
02:0005FAD0 $addlistener/2np4$1$event3{@Type1,@Type2,@Type3}_implement$0$domain$$type_library$ 
02:0005FAE0 $addlistener/2np5$1$event3{@Type1,@Type2,@Type3}_implement$0$domain$$type_library$ 
02:0005FAF0 $$_arrowtype@_procedure_prolog_12$XXXX@Z$event3{@Type1,@Type2,@Type3}_implement$0$domain$$event3{@Type1,@Type2,@Type3}_implement$0$domain$$type_library$ 
02:0005FB00 $event2@objectDB$event2{@Type1,@Type2}_implement$0$domain$$type_library$ 
02:0005FB10 $event2$typeLibDB$event2{@Type1,@Type2}_implement$0$domain$$type_library$ 
02:0005FB20 $addlistener_once/1np$1$event2{@Type1,@Type2}_implement$0$domain$$type_library$ 
02:0005FB30 $addlistener_once/1np$2$event2{@Type1,@Type2}_implement$0$domain$$type_library$ 
02:0005FB40 $addlistener/2np0$1$event2{@Type1,@Type2}_implement$0$domain$$type_library$ 
02:0005FB50 $addlistener/2np1$1$event2{@Type1,@Type2}_implement$0$domain$$type_library$ 
02:0005FB60 $addlistener/2np2$1$event2{@Type1,@Type2}_implement$0$domain$$type_library$ 
02:0005FB70 $addlistener/2np3$1$event2{@Type1,@Type2}_implement$0$domain$$type_library$ 
02:0005FB80 $addlistener/2np4$1$event2{@Type1,@Type2}_implement$0$domain$$type_library$ 
02:0005FB90 $addlistener/2np5$1$event2{@Type1,@Type2}_implement$0$domain$$type_library$ 
02:0005FBA0 $$_arrowtype@_procedure_prolog_8$XXX@Z$event2{@Type1,@Type2}_implement$0$domain$$event2{@Type1,@Type2}_implement$0$domain$$type_library$ 
02:0005FBB0 $event1@objectDB$event1{@Type1}_implement$0$domain$$type_library$ 
02:0005FBC0 $event1$typeLibDB$event1{@Type1}_implement$0$domain$$type_library$ 
02:0005FBD0 $addlistener_once/1np$1$event1{@Type1}_implement$0$domain$$type_library$ 
02:0005FBE0 $addlistener_once/1np$2$event1{@Type1}_implement$0$domain$$type_library$ 
02:0005FBF0 $addlistener/2np0$1$event1{@Type1}_implement$0$domain$$type_library$ 
02:0005FC00 $addlistener/2np1$1$event1{@Type1}_implement$0$domain$$type_library$ 
02:0005FC10 $addlistener/2np2$1$event1{@Type1}_implement$0$domain$$type_library$ 
02:0005FC20 $addlistener/2np3$1$event1{@Type1}_implement$0$domain$$type_library$ 
02:0005FC30 $addlistener/2np4$1$event1{@Type1}_implement$0$domain$$type_library$ 
02:0005FC40 $addlistener/2np5$1$event1{@Type1}_implement$0$domain$$type_library$ 
02:0005FC50 $$_arrowtype@_procedure_prolog_4$XX@Z$event1{@Type1}_implement$0$domain$$event1{@Type1}_implement$0$domain$$type_library$ 
02:0005FC60 $event0@objectDB$event0_implement$0$domain$$type_library$ 
02:0005FC70 $addlistener_once/1np$1$event0_implement$0$domain$$type_library$ 
02:0005FC80 $addlistener/2np0$1$event0_implement$0$domain$$type_library$ 
02:0005FC90 $addlistener/2np1$1$event0_implement$0$domain$$type_library$ 
02:0005FCA0 $addlistener/2np2$1$event0_implement$0$domain$$type_library$ 
02:0005FCB0 $addlistener/2np3$1$event0_implement$0$domain$$type_library$ 
02:0005FCC0 $addlistener/2np4$1$event0_implement$0$domain$$type_library$ 
02:0005FCD0 $addlistener/2np5$1$event0_implement$0$domain$$type_library$ 
02:0005FCE0 $$_arrowtype@_procedure_prolog_0$XXZ$event0_implement$0$domain$$event0_implement$0$domain$$type_library$ 
--- From 'obj\exceptiondump.2B9C9E40.obj'
02:0005FCF0 $*$_builtIn_class$1$domain$$type_library$1${class$exception::descriptor$}$static$ 
--- From 'obj\exception.B6F320E8.obj'
02:0005FD00 $*$_builtIn_class$1$domain$$type_library$1${typelib(class$core::namedValue{class$core::value$})$}$static$ 
02:0005FD10 $namedValue$core_class$1$domain$$type_library$1${class$core::value$}$static$ 
02:0005FD20 $*$_builtIn_class$1$domain$$type_library$1${class$exception::lineInfo$}$static$ 
--- From 'obj\main.789E136F.obj'
02:0005FD30 $*$_builtIn_class$1$domain$$type_library$1${class$_builtIn::integer$}$static$ 
--- From 'obj\commandlineparser.67E728BA.obj'
02:0005FD40 $commandLineParser$_global_class$0$domain$$type_library$ 
--- From 'obj\windowsapi.AA084B33.obj'
02:0005FD50 $integer$_builtIn_class$0$domain$$type_library$ 
--- From 'obj\collectionmsupport.3A44ED4E.obj'
02:0005FD60 $unsigned$_builtIn_class$0$domain$$type_library$ 
--- From 'obj\memory.568C55F8.obj'
02:0005FD70 $real$_builtIn_class$0$domain$$type_library$ 
02:0005FD80 $real32$_builtIn_class$0$domain$$type_library$ 
--- From 'obj\main.789E136F.obj'
02:0005FD90 $$byte$_builtIn_class$0$domain$$type_library$ 
--- From 'obj\collectionmsupport.3A44ED4E.obj'
02:0005FDA0 $string$_builtIn_class$0$domain$$type_library$ 
--- From 'obj\main.789E136F.obj'
02:0005FDB0 $symbol$_builtIn_class$0$domain$$type_library$ 
--- From 'obj\memory.568C55F8.obj'
02:0005FDC0 $string8$_builtIn_class$0$domain$$type_library$ 
02:0005FDD0 $char$_builtIn_class$0$domain$$type_library$ 
02:0005FDE0 $binary$_builtIn_class$0$domain$$type_library$ 
02:0005FDF0 $binaryNonAtomic$_builtIn_class$0$domain$$type_library$ 
--- From 'obj\collectionmsupport.3A44ED4E.obj'
02:0005FE00 $pointer$_builtIn_class$0$domain$$type_library$ 
--- From 'obj\multithread_api.44799675.obj'
02:0005FE10 $handle$_builtIn_class$0$domain$$type_library$ 
--- From 'obj\filesystem.5B0F823E.obj'
02:0005FE20 $factdb$_builtIn_class$0$domain$$type_library$ 
02:0005FE30 $...$_builtIn_class$0$domain$$type_library$ 
--- From 'obj\multithread_api.44799675.obj'
02:0005FE40 $integer64$_builtIn_class$0$domain$$type_library$ 
02:0005FE50 $unsigned64$_builtIn_class$0$domain$$type_library$ 
--- From 'obj\exception.B6F320E8.obj'
02:0005FE60 $any$_builtIn_class$0$domain$$type_library$ 
--- From 'obj\memory.568C55F8.obj'
02:0005FE70 $integerNative$_builtIn_class$0$domain$$type_library$ 
--- From 'obj\multithread_api.44799675.obj'
02:0005FE80 $unsignedNative$_builtIn_class$0$domain$$type_library$ 
--- From 'obj\redblackset.DC1C3622.obj'
02:0005FE90 $_someType$_builtIn_class$0$domain$$type_library$ 
--- From 'obj\collectionmsupport.3A44ED4E.obj'
02:0005FEA0 $boolean$_builtIn_class$0$domain$$type_library$ 
--- From 'obj\core.5D9B9483.obj'
02:0005FEB0 $compareResult$_builtIn_class$0$domain$$type_library$ 
--- From 'obj\registry.917E8C91.obj'
02:0005FEC0 $rootKey$registry_class$0$domain$$type_library$ 
02:0005FED0 $registryView$registry_class$0$domain$$type_library$ 
--- From 'obj\time.6AFD2988.obj'
02:0005FEE0 $*$_builtIn_class$1$domain$$type_library$1${class$timeFormatter::dateTimePos$}$static$ 
02:0005FEF0 $function$core_class$1$domain$$type_library$1${class$_builtIn::unsigned64$}$static$ 
--- From 'obj\time_api.0FD0D46D.obj'
02:0005FF00 $calendarDuration$_global_class$0$domain$$type_library$ 
02:0005FF10 $duration$_global_class$0$domain$$type_library$ 
02:0005FF20 $gmtTime$_global_class$0$domain$$type_library$ 
02:0005FF30 $timeInterval$_global_class$0$domain$$type_library$ 
02:0005FF40 $calendarInterval$_global_class$0$domain$$type_library$ 
02:0005FF50 $time$_global_class$0$domain$$type_library$ 
02:0005FF60 $timeFormatter$_global_class$0$domain$$type_library$ 
--- From 'obj\time.6AFD2988.obj'
02:0005FF70 $weekRule$timeFormatter_implement$0$domain$$type_library$ 
02:0005FF80 $timeDesignator$timeFormatter_implement$0$domain$$type_library$ 
02:0005FF90 $dateTime$timeFormatter_implement$0$domain$$type_library$ 
02:0005FFA0 $templateAndPosition$timeFormatter_implement$0$domain$$type_library$ 
02:0005FFB0 $dateTimePos$timeFormatter_implement$0$domain$$type_library$ 
02:0005FFC0 $timeFormatter@objectDB$timeFormatter_implement$0$domain$$type_library$ 
02:0005FFD0 $timeFormatter@classDB$timeFormatter_implement$0$domain$$type_library$ 
02:0005FFE0 $gmtTimeFunction$time_class$0$domain$$type_library$ 
02:0005FFF0 $time@objectDB$time_implement$0$domain$$type_library$ 
02:00060000 $time@classDB$time_implement$0$domain$$type_library$ 
02:00060010 $duration@objectDB$duration_implement$0$domain$$type_library$ 
02:00060020 $calendarDuration@objectDB$calendarDuration_implement$0$domain$$type_library$ 
--- From 'obj\exception.B6F320E8.obj'
02:00060030 $memory_basic_information$memory_native_class$0$domain$$type_library$ 
--- From 'obj\memory_api.F938D1EE.obj'
02:00060040 $memoryStatusEx$memory_native_class$0$domain$$type_library$ 
02:00060050 $process_memory_counters$memory_native_class$0$domain$$type_library$ 
02:00060060 $garbageCollectorStatistics$memory_api_class$0$domain$$type_library$ 
--- From 'obj\systeminformation_api.2864B3DF.obj'
02:00060070 $system_Info$systemInformation_native_class$0$domain$$type_library$ 
02:00060080 $osVersionInfo$systemInformation_native_class$0$domain$$type_library$ 
02:00060090 $osVersionInfoEX$systemInformation_native_class$0$domain$$type_library$ 
02:000600A0 $nonclientMetricsXP$systemInformation_native_class$0$domain$$type_library$ 
02:000600B0 $nonclientMetrics$systemInformation_native_class$0$domain$$type_library$ 
02:000600C0 $systemInformation_api@classDB$systemInformation_api_implement$0$domain$$type_library$ 
--- From 'obj\segmented_binary.C16992E7.obj'
02:000600D0 $segmentedSupport{@Segment}$_global_class$1$domain$$type_library$1${class$_builtIn::binary$}$static$ 
--- From 'obj\presenter.E6E77556.obj'
02:000600E0 $varM_boolean$_global_class$0$domain$$type_library$ 
02:000600F0 $varM_integer$_global_class$0$domain$$type_library$ 
02:00060100 $varM_unsigned$_global_class$0$domain$$type_library$ 
02:00060110 $event0$_global_class$0$domain$$type_library$ 
02:00060120 $listener$event0_interface$0$domain$$type_library$ 
02:00060130 $listener$event1{@Type1}_interface$0$domain$$type_library$ 
02:00060140 $listener$event2{@Type1,@Type2}_interface$0$domain$$type_library$ 
02:00060150 $listener$event3{@Type1,@Type2,@Type3}_interface$0$domain$$type_library$ 
02:00060160 $listener$event4{@Type1,@Type2,@Type3,@Type4}_interface$0$domain$$type_library$ 
02:00060170 $listener$event5{@Type1,@Type2,@Type3,@Type4,@Type5}_interface$0$domain$$type_library$ 
02:00060180 $listener$event6{@Type1,@Type2,@Type3,@Type4,@Type5,@Type6}_interface$0$domain$$type_library$ 
02:00060190 $listener$event7{@Type1,@Type2,@Type3,@Type4,@Type5,@Type6,@Type7}_interface$0$domain$$type_library$ 
--- From 'obj\segmented_binary.C16992E7.obj'
02:000601A0 $segmented_binary@classDB$segmented_binary_implement$0$domain$$type_library$ 
--- From 'obj\mapmsupport.8CD6C048.obj'
02:000601B0 $mapMSupport@objectDB$collectionSupport\mapMSupport{@Key,@Data}_implement$0$domain$$type_library$ 
02:000601C0 $mapmsupport$typeLibDB$collectionSupport\mapMSupport{@Key,@Data}_implement$0$domain$$type_library$ 
--- From 'obj\mapsupport.59C06C8E.obj'
02:000601D0 $mapSupport@objectDB$collectionSupport\mapSupport{@Key,@Data}_implement$0$domain$$type_library$ 
02:000601E0 $mapsupport$typeLibDB$collectionSupport\mapSupport{@Key,@Data}_implement$0$domain$$type_library$ 
--- From 'obj\collectionsupport.A039CC0D.obj'
02:000601F0 $collectionSupport@objectDB$collectionSupport\collectionSupport{@Type}_implement$0$domain$$type_library$ 
02:00060200 $collectionsupport$typeLibDB$collectionSupport\collectionSupport{@Type}_implement$0$domain$$type_library$ 
--- From 'obj\modifiablesupport.5D48FFF1.obj'
02:00060210 $modifiableSupport@objectDB$collectionSupport\modifiableSupport{@Type}_implement$0$domain$$type_library$ 
02:00060220 $modifiablesupport$typeLibDB$collectionSupport\modifiableSupport{@Type}_implement$0$domain$$type_library$ 
--- From 'obj\redblacktree.401E21A0.obj'
02:00060230 $empty/0$1$redBlackTree_implement$0$domain$$type_library$ 
02:00060240 $emptyUnique/0$1$redBlackTree_implement$0$domain$$type_library$ 
--- From 'obj\redblacktreerep.E6A269FA.obj'
02:00060250 $uniqueKey$redBlackTreeRep_class$0$domain$$type_library$ 
02:00060260 $present_treerep/1nf$1$redBlackTreeRep_implement$0$domain$$type_library$ 
--- From 'obj\weakreference.0A1AF11C.obj'
02:00060270 $weakReference@objectDB$weakReference{@Type}_implement$0$domain$$type_library$ 
02:00060280 $weakreference$typeLibDB$weakReference{@Type}_implement$0$domain$$type_library$ 
--- From 'obj\outputstreamsupport.6F229CFB.obj'
02:00060290 $presentation2stringSerializer_function$outputStreamSupport_implement$0$domain$$type_library$ 
02:000602A0 $outputStreamSupport@objectDB$outputStreamSupport_implement$0$domain$$type_library$ 
02:000602B0 $outputStreamSegmentedSupport@objectDB$outputStreamSegmentedSupport{@Segment}_implement$0$domain$$type_library$ 
02:000602C0 $outputstreamsegmentedsupport$typeLibDB$outputStreamSegmentedSupport{@Segment}_implement$0$domain$$type_library$ 
02:000602D0 $presenter/0nf$1$outputStreamSegmentedSupport{@Segment}_implement$0$domain$$type_library$ 
--- From 'obj\segmentedsupport.2BAFE67D.obj'
02:000602E0 $segmentedSupport@objectDB$segmentedSupport{@Segment}_implement$0$domain$$type_library$ 
02:000602F0 $segmentedsupport$typeLibDB$segmentedSupport{@Segment}_implement$0$domain$$type_library$ 
02:00060300 $segmentedIterator@objectDB$segmentedIterator{@Segment}_implement$0$domain$$type_library$ 
02:00060310 $segmentediterator$typeLibDB$segmentedIterator{@Segment}_implement$0$domain$$type_library$ 
--- From 'obj\iterator.60C55021.obj'
02:00060320 $iterator@objectDB$iterator{@Elem}_implement$0$domain$$type_library$ 
02:00060330 $iterator$typeLibDB$iterator{@Elem}_implement$0$domain$$type_library$ 
02:00060340 $list/1np$1$iterator{@Elem}_implement$0$domain$$type_library$ 
02:00060350 $close/1np$1$iterator{@Elem}_implement$0$domain$$type_library$ 
--- From 'obj\binary.248EF86D.obj'
02:00060360 $inputStream_binary@objectDB$inputStream_binary_implement$0$domain$$type_library$ 
--- From 'obj\inputsupport_mode.ADC075EF.obj'
02:00060370 $inputSupport_mode$_global_class$0$domain$$type_library$ 
02:00060380 $inputSupportSite_mode$_global_class$0$domain$$type_library$ 
--- From 'obj\filesystem.5B0F823E.obj'
02:00060390 $outputStream_file@objectDB$outputStream_file_implement$0$domain$$type_library$ 
02:000603A0 $messageFile@objectDB$messageFile_implement$0$domain$$type_library$ 
02:000603B0 $write/0ep$1$messageFile_implement$0$domain$$type_library$ 
02:000603C0 $writef/1ep$1$messageFile_implement$0$domain$$type_library$ 
02:000603D0 $writequoted/0ep$1$messageFile_implement$0$domain$$type_library$ 
02:000603E0 $writebytes/2np$1$messageFile_implement$0$domain$$type_library$ 
02:000603F0 $save/1np$1$messageFile_implement$0$domain$$type_library$ 
02:00060400 $present/0ep$1$messageFile_implement$0$domain$$type_library$ 
02:00060410 $inputStream_file@objectDB$inputStream_file_implement$0$domain$$type_library$ 
02:00060420 $versionInformation$fileVersion_class$0$domain$$type_library$ 
02:00060430 $fileVersionInformation$fileVersion_class$0$domain$$type_library$ 
02:00060440 $languagex$fileVersion_implement$0$domain$$type_library$ 
02:00060450 $codePage$fileVersion_implement$0$domain$$type_library$ 
02:00060460 $twoInt$fileVersion_implement$0$domain$$type_library$ 
02:00060470 $pTwoInt$fileVersion_implement$0$domain$$type_library$ 
02:00060480 $vs_fixedfileinfo$fileVersion_implement$0$domain$$type_library$ 
02:00060490 $pvs_fixedfileinfo$fileVersion_implement$0$domain$$type_library$ 
02:000604A0 $overwrite$file_class$0$domain$$type_library$ 
02:000604B0 $volumeType$directory_class$0$domain$$type_library$ 
--- From 'obj\inputsupport_mode.ADC075EF.obj'
02:000604C0 $inputSupport_mode@objectDB$inputSupport_mode_implement$0$domain$$type_library$ 
--- From 'obj\setm_redblack.16EF8DC5.obj'
02:000604D0 $setM_redBlack@objectDB$setM_redBlack{@Type}_implement$0$domain$$type_library$ 
02:000604E0 $setm_redblack$typeLibDB$setM_redBlack{@Type}_implement$0$domain$$type_library$ 
--- From 'obj\criticalsectionsupport.56CDFDBE.obj'
02:000604F0 $criticalSectionSupport@objectDB$criticalSectionSupport_implement$0$domain$$type_library$ 
--- From 'obj\commandlineparser.67E728BA.obj'
02:00060500 $tuple$core_class$3$domain$$type_library$3${typelib(class$_builtIn::string*)$typelib({class$_builtIn::string*$}$$$procedure$(i)$prolog$)$typelib(class$_builtIn::boolean)$}$static$ 
02:00060520 $*$_builtIn_class$1$domain$$type_library$1${class$_builtIn::string$}$static$ 
02:00060530 $predicate$core_class$1$domain$$type_library$1${typelib(class$_builtIn::string*)$}$static$ 
02:00060540 $resultDB$commandLineParser_implement$0$domain$$type_library$ 
02:00060550 $commandLineParser@objectDB$commandLineParser_implement$0$domain$$type_library$ 
02:00060560 $addoption_0/3np$1$commandLineParser_implement$0$domain$$type_library$ 
02:00060570 $addoption_1/4np$1$commandLineParser_implement$0$domain$$type_library$ 
02:00060580 $addoption_2/5np$1$commandLineParser_implement$0$domain$$type_library$ 
02:00060590 $addoption_n/3np$1$commandLineParser_implement$0$domain$$type_library$ 
02:000605A0 $addoption_help/1np$1$commandLineParser_implement$0$domain$$type_library$ 
--- From 'obj\console.E8EB4F3C.obj'
02:000605B0 $outputStream_console@objectDB$outputStream_console_implement$0$domain$$type_library$ 
02:000605C0 $inputStream_console@objectDB$inputStream_console_implement$0$domain$$type_library$ 
02:000605D0 $event$console_class$0$domain$$type_library$ 
02:000605E0 $console@classDB$console_implement$0$domain$$type_library$ 
--- From 'obj\presenter.E6E77556.obj'
02:000605F0 $function$core_class$1$domain$$type_library$1${class$presenter::presentation$}$static$ 
--- From 'obj\core.5D9B9483.obj'
02:00060600 $resourceIdentifiers$_global_class$0$domain$$type_library$ 
02:00060610 $unit$core_class$0$domain$$type_library$ 
--- From 'obj\windowsapi.AA084B33.obj'
02:00060620 $unsigned8$core_class$0$domain$$type_library$ 
02:00060630 $unsigned16$core_class$0$domain$$type_library$ 
--- From 'obj\core.5D9B9483.obj'
02:00060640 $unsigned64_struct$core_class$0$domain$$type_library$ 
--- From 'obj\memory.568C55F8.obj'
02:00060650 $integer8$core_class$0$domain$$type_library$ 
02:00060660 $integer16$core_class$0$domain$$type_library$ 
--- From 'obj\core.5D9B9483.obj'
02:00060670 $integer64_struct$core_class$0$domain$$type_library$ 
--- From 'obj\time_api.0FD0D46D.obj'
02:00060680 $value$core_class$0$domain$$type_library$ 
--- From 'obj\exception.B6F320E8.obj'
02:00060690 $gmtTimeValue$core_class$0$domain$$type_library$ 
--- From 'obj\core.5D9B9483.obj'
02:000606A0 $localTimeValue$core_class$0$domain$$type_library$ 
--- From 'obj\exception.B6F320E8.obj'
02:000606B0 $exception$core_class$0$domain$$type_library$ 
--- From 'obj\core.5D9B9483.obj'
02:000606C0 $nativeGuid$core_class$0$domain$$type_library$ 
--- From 'obj\exception.B6F320E8.obj'
02:000606D0 $hResult$core_class$0$domain$$type_library$ 
--- From 'obj\core.5D9B9483.obj'
02:000606E0 $byteCountOptional$core_class$0$domain$$type_library$ 
--- From 'obj\multithread_api.44799675.obj'
02:000606F0 $byteCount$core_class$0$domain$$type_library$ 
--- From 'obj\core.5D9B9483.obj'
02:00060700 $charCountOptional$core_class$0$domain$$type_library$ 
--- From 'obj\memory.568C55F8.obj'
02:00060710 $charCount$core_class$0$domain$$type_library$ 
--- From 'obj\collectionmsupport.3A44ED4E.obj'
02:00060720 $positiveOptional$core_class$0$domain$$type_library$ 
--- From 'obj\reflection.ACE59E5C.obj'
02:00060730 $positive$core_class$0$domain$$type_library$ 
--- From 'obj\core.5D9B9483.obj'
02:00060740 $function$core_class$1$domain$$type_library$ 
02:00060750 $function$core_class$2$domain$$type_library$ 
02:00060760 $function$core_class$3$domain$$type_library$ 
02:00060770 $function$core_class$4$domain$$type_library$ 
02:00060780 $function$core_class$5$domain$$type_library$ 
02:00060790 $function$core_class$6$domain$$type_library$ 
02:000607A0 $function$core_class$7$domain$$type_library$ 
02:000607B0 $function$core_class$8$domain$$type_library$ 
02:000607C0 $function$core_class$9$domain$$type_library$ 
02:000607D0 $function$core_class$10$domain$$type_library$ 
02:000607E0 $function$core_class$11$domain$$type_library$ 
02:000607F0 $function_dt$core_class$1$domain$$type_library$ 
02:00060800 $function_dt$core_class$2$domain$$type_library$ 
02:00060810 $function_dt$core_class$3$domain$$type_library$ 
02:00060820 $function_dt$core_class$4$domain$$type_library$ 
02:00060830 $function_dt$core_class$5$domain$$type_library$ 
02:00060840 $function_dt$core_class$6$domain$$type_library$ 
02:00060850 $function_dt$core_class$7$domain$$type_library$ 
02:00060860 $function_dt$core_class$8$domain$$type_library$ 
02:00060870 $function_dt$core_class$9$domain$$type_library$ 
02:00060880 $function_dt$core_class$10$domain$$type_library$ 
02:00060890 $function_dt$core_class$11$domain$$type_library$ 
02:000608A0 $function_nd$core_class$1$domain$$type_library$ 
02:000608B0 $function_nd$core_class$2$domain$$type_library$ 
02:000608C0 $function_nd$core_class$3$domain$$type_library$ 
02:000608D0 $function_nd$core_class$4$domain$$type_library$ 
02:000608E0 $function_nd$core_class$5$domain$$type_library$ 
02:000608F0 $function_nd$core_class$6$domain$$type_library$ 
02:00060900 $function_nd$core_class$7$domain$$type_library$ 
02:00060910 $function_nd$core_class$8$domain$$type_library$ 
02:00060920 $function_nd$core_class$9$domain$$type_library$ 
02:00060930 $function_nd$core_class$10$domain$$type_library$ 
02:00060940 $function_nd$core_class$11$domain$$type_library$ 
02:00060950 $predicate$core_class$0$domain$$type_library$ 
02:00060960 $predicate$core_class$1$domain$$type_library$ 
02:00060970 $predicate$core_class$2$domain$$type_library$ 
02:00060980 $predicate$core_class$3$domain$$type_library$ 
02:00060990 $predicate$core_class$4$domain$$type_library$ 
02:000609A0 $predicate$core_class$5$domain$$type_library$ 
02:000609B0 $predicate$core_class$6$domain$$type_library$ 
02:000609C0 $predicate$core_class$7$domain$$type_library$ 
02:000609D0 $predicate$core_class$8$domain$$type_library$ 
02:000609E0 $predicate$core_class$9$domain$$type_library$ 
02:000609F0 $predicate$core_class$10$domain$$type_library$ 
02:00060A00 $predicate_dt$core_class$0$domain$$type_library$ 
02:00060A10 $predicate_dt$core_class$1$domain$$type_library$ 
02:00060A20 $predicate_dt$core_class$2$domain$$type_library$ 
02:00060A30 $predicate_dt$core_class$3$domain$$type_library$ 
02:00060A40 $predicate_dt$core_class$4$domain$$type_library$ 
02:00060A50 $predicate_dt$core_class$5$domain$$type_library$ 
02:00060A60 $predicate_dt$core_class$6$domain$$type_library$ 
02:00060A70 $predicate_dt$core_class$7$domain$$type_library$ 
02:00060A80 $predicate_dt$core_class$8$domain$$type_library$ 
02:00060A90 $predicate_dt$core_class$9$domain$$type_library$ 
02:00060AA0 $predicate_dt$core_class$10$domain$$type_library$ 
02:00060AB0 $predicate_nd$core_class$0$domain$$type_library$ 
02:00060AC0 $predicate_nd$core_class$1$domain$$type_library$ 
02:00060AD0 $predicate_nd$core_class$2$domain$$type_library$ 
02:00060AE0 $predicate_nd$core_class$3$domain$$type_library$ 
02:00060AF0 $predicate_nd$core_class$4$domain$$type_library$ 
02:00060B00 $predicate_nd$core_class$5$domain$$type_library$ 
02:00060B10 $predicate_nd$core_class$6$domain$$type_library$ 
02:00060B20 $predicate_nd$core_class$7$domain$$type_library$ 
02:00060B30 $predicate_nd$core_class$8$domain$$type_library$ 
02:00060B40 $predicate_nd$core_class$9$domain$$type_library$ 
02:00060B50 $predicate_nd$core_class$10$domain$$type_library$ 
02:00060B60 $runnable$core_class$0$domain$$type_library$ 
02:00060B70 $comparator$core_class$1$domain$$type_library$ 
02:00060B80 $comparator$core_class$2$domain$$type_library$ 
02:00060B90 $sortOrder$core_class$0$domain$$type_library$ 
--- From 'obj\exception.B6F320E8.obj'
02:00060BA0 $sourceCursor$core_class$0$domain$$type_library$ 
--- From 'obj\core.5D9B9483.obj'
02:00060BB0 $packedCursor$core_class$0$domain$$type_library$ 
02:00060BC0 $programPoint$core_class$0$domain$$type_library$ 
02:00060BD0 $hScopeDescriptor$core_class$0$domain$$type_library$ 
02:00060BE0 $allowBoolean$core_class$0$domain$$type_library$ 
02:00060BF0 $defaultActionBoolean$core_class$0$domain$$type_library$ 
02:00060C00 $binary2$core_class$0$domain$$type_library$ 
--- From 'obj\exception.B6F320E8.obj'
02:00060C10 $arguments$core_class$0$domain$$type_library$ 
--- From 'obj\core.5D9B9483.obj'
02:00060C20 $compareselect/1nf$1$core_implement$0$domain$$type_library$ 
--- From 'obj\presenter.E6E77556.obj'
02:00060C30 $predicate$core_class$1$domain$$type_library$1${class$exception::traceId$}$static$ 
02:00060C40 $tuple$core_class$2$domain$$type_library$2${class$_builtIn::unsigned$class$_builtIn::string$}$static$ 
02:00060C50 $presenter$presenter_class$1$domain$$type_library$ 
02:00060C60 $presenter$presenter_class$0$domain$$type_library$ 
--- From 'obj\collectionmsupport.3A44ED4E.obj'
02:00060C70 $presentation$presenter_class$0$domain$$type_library$ 
--- From 'obj\presenter.E6E77556.obj'
02:00060C80 $subPresenter$presenter_class$0$domain$$type_library$ 
02:00060C90 $subPresentation$presenter_class$1$domain$$type_library$1${class$presenter::presentation$}$static$ 
02:00060CA0 $sequencePresenter$presenter_class$0$domain$$type_library$ 
02:00060CB0 $fieldPresentation$presenter_class$0$domain$$type_library$ 
02:00060CC0 $fieldPresenter$presenter_class$0$domain$$type_library$ 
02:00060CD0 $functorDescr$presenter_class$0$domain$$type_library$ 
02:00060CE0 $presentDebugResult$presenter_class$0$domain$$type_library$ 
02:00060CF0 $excludedDomainChecker$presenter_class$0$domain$$type_library$ 
02:00060D00 $presenter@classDB$presenter_implement$0$domain$$type_library$ 
02:00060D10 $mkpresenter_setelements/1nf$1$presenter_implement$0$domain$$type_library$ 
02:00060D20 $mkpresenter_mapelements/2nf$1$presenter_implement$0$domain$$type_library$ 
02:00060D30 $presenter_flagset/2nf$1$presenter_implement$0$domain$$type_library$ 
02:00060D40 $presenter_flagset/2nf$2$presenter_implement$0$domain$$type_library$ 
--- From 'obj\exception.B6F320E8.obj'
02:00060D50 $tuple$core_class$2$domain$$type_library$2${class$_builtIn::string$class$_builtIn::any$}$static$ 
02:00060D60 $kind$exception_class$0$domain$$type_library$ 
02:00060D70 $programPointDescriptor$exception_class$0$domain$$type_library$ 
02:00060D80 $descriptor$exception_class$0$domain$$type_library$ 
02:00060D90 $traceInfo$exception_class$0$domain$$type_library$ 
02:00060DA0 $lineInfo$exception_class$0$domain$$type_library$ 
02:00060DB0 $raiser$exception_class$0$domain$$type_library$ 
02:00060DC0 $exception@classDB$exception_implement$0$domain$$type_library$ 
02:00060DD0 $getstacktrace_sync/2nf$1$exception_implement$0$domain$$type_library$ 
02:00060DE0 $errorDescriptorInformation@objectDB$errorDescriptorInformation_implement$0$domain$$type_library$ 
--- From 'obj\programcontrol.2B27F1CB.obj'
02:00060DF0 $exceptionRaiser$programControl_class$0$domain$$type_library$ 
02:00060E00 $deObject$programControl_implement$0$domain$$type_library$ 
--- From 'obj\reflection.ACE59E5C.obj'
02:00060E10 $*$_builtIn_class$1$domain$$type_library$1${typelib(class$core::tuple{class$_builtIn::string$interface$pfc\reflection\typeLibrary$})$}$static$ 
02:00060E20 $tuple$core_class$2$domain$$type_library$2${class$_builtIn::string$class$_global::pfc\reflection\typeLibrary$}$static$ 
02:00060E30 $*$_builtIn_class$1$domain$$type_library$1${class$_global::pfc\reflection\scopeDescriptor$}$static$ 
02:00060E40 $varM{@Term}$_global_class$1$domain$$type_library$1${class$_builtIn::pointer$}$static$ 
02:00060E50 $*$_builtIn_class$1$domain$$type_library$1${class$pfc\reflection\reflection_native::objectStructure$}$static$ 
02:00060E60 $anyTermValue$pfc\reflection\reflection_native_class$0$domain$$type_library$ 
02:00060E70 $factDbValue$pfc\reflection\reflection_native_class$0$domain$$type_library$ 
02:00060E80 $prologPredicateValue$pfc\reflection\reflection_native_class$0$domain$$type_library$ 
02:00060E90 $presenterDescriptor$pfc\reflection\reflection_native_class$0$domain$$type_library$ 
02:00060EA0 $predicateOrFunctionCallDescriptor$pfc\reflection\reflection_native_class$0$domain$$type_library$ 
02:00060EB0 $returnKind$pfc\reflection\reflection_native_class$0$domain$$type_library$ 
02:00060EC0 $viewDescriptor$pfc\reflection\reflection_native_class$0$domain$$type_library$ 
02:00060ED0 $viewDescriptorTableHeader$pfc\reflection\reflection_native_class$0$domain$$type_library$ 
02:00060EE0 $objectStructure$pfc\reflection\reflection_native_class$0$domain$$type_library$ 
02:00060EF0 $$_arrowtype@_procedure_prolog_0$XXZ$pfc\reflection\reflection_native_implement$0$domain$$pfc\reflection\reflection_native_implement$0$domain$$type_library$ 
02:00060F00 $typeKind$pfc\reflection\reflection_class$0$domain$$type_library$ 
--- From 'obj\collectionmsupport.3A44ED4E.obj'
02:00060F10 $predicateMode$pfc\reflection\reflection_class$0$domain$$type_library$ 
--- From 'obj\reflection.ACE59E5C.obj'
02:00060F20 $functor$pfc\reflection\reflection_class$0$domain$$type_library$ 
--- From 'obj\collectionmsupport.3A44ED4E.obj'
02:00060F30 $callingConvention$pfc\reflection\reflection_class$0$domain$$type_library$ 
02:00060F40 $argumentFlow$pfc\reflection\reflection_class$0$domain$$type_library$ 
--- From 'obj\stream.8B55AAA7.obj'
02:00060F50 $stdioState@objectDB$stdioState_implement$0$domain$$type_library$ 
02:00060F60 $stdio@classDB$stdio_implement$0$domain$$type_library$ 
02:00060F70 $outputStream_null@classDB$outputStream_null_implement$0$domain$$type_library$ 
02:00060F80 $inputStream_null@classDB$inputStream_null_implement$0$domain$$type_library$ 
--- From 'obj\segmented.E9C86B20.obj'
02:00060F90 $segmented$segmented_class$1$domain$$type_library$1${class$_builtIn::_someType$}$static$ 
02:00060FA0 $segmented_utf16$segmented_class$0$domain$$type_library$ 
02:00060FB0 $mkfp_sub/2nf$1$segmented_implement$0$domain$$type_library$ 
--- From 'obj\inputstreamsupport.7AF62102.obj'
02:00060FC0 $inputSupport@objectDB$inputSupport_implement$0$domain$$type_library$ 
--- From 'obj\console_api.316E7EC3.obj'
02:00060FD0 $coord$console_native_class$0$domain$$type_library$ 
02:00060FE0 $consoleScreenBufferInfo$console_native_class$0$domain$$type_library$ 
02:00060FF0 $char_info$console_native_class$0$domain$$type_library$ 
02:00061000 $small_rect$console_native_class$0$domain$$type_library$ 
02:00061010 $key_event_record$console_native_class$0$domain$$type_library$ 
02:00061020 $mouse_event_record$console_native_class$0$domain$$type_library$ 
02:00061030 $handlerRoutine$console_native_class$0$domain$$type_library$ 
--- From 'obj\exe_api.A246601B.obj'
02:00061040 $runMode$exe_api_class$0$domain$$type_library$ 
02:00061050 $coInit$exe_api_class$0$domain$$type_library$ 
--- From 'obj\filesystem_api.DE0803A2.obj'
02:00061060 $ofStruct$lZ_fileSystem_native_class$0$domain$$type_library$ 
02:00061070 $fileInfo$fileSystem_native_class$0$domain$$type_library$ 
02:00061080 $fileAttributesInfo$fileSystem_native_class$0$domain$$type_library$ 
02:00061090 $win32_find_data$fileSystem_native_class$0$domain$$type_library$ 
02:000610A0 $file_info_by_handle_class$fileSystem_native_class$0$domain$$type_library$ 
02:000610B0 $fileIOCompletionRoutine$fileSystem_native_class$0$domain$$type_library$ 
02:000610C0 $fileAction$fileSystem_native_class$0$domain$$type_library$ 
02:000610D0 $file_notify_information$fileSystem_native_class$0$domain$$type_library$ 
02:000610E0 $overlapped$fileSystem_native_class$0$domain$$type_library$ 
02:000610F0 $openFilename$fileSystem_native_class$0$domain$$type_library$ 
02:00061100 $oFNHookProc$fileSystem_native_class$0$domain$$type_library$ 
02:00061110 $use_info_0$fileSystem_native_class$0$domain$$type_library$ 
02:00061120 $fileAttributeAtom$fileSystem_api_class$0$domain$$type_library$ 
02:00061130 $accessPermit$fileSystem_api_class$0$domain$$type_library$ 
02:00061140 $memAppend_CallBack$fileSystem_api_implement$0$domain$$type_library$ 
02:00061150 $bufferOperation$fileSystem_api_implement$0$domain$$type_library$ 
02:00061160 $getshortpathname/1nf$1$fileSystem_api_implement$0$domain$$type_library$ 
02:00061170 $getlongpathname/1nf$1$fileSystem_api_implement$0$domain$$type_library$ 
--- From 'obj\memory.568C55F8.obj'
02:00061180 $contextMap$memory_class$0$domain$$type_library$ 
02:00061190 $memoryKind$memory_class$0$domain$$type_library$ 
02:000611A0 $pBinary$memory_class$0$domain$$type_library$ 
02:000611B0 $pBinaryNonAtomic$memory_class$0$domain$$type_library$ 
02:000611C0 $pByteCount$memory_class$0$domain$$type_library$ 
02:000611D0 $pChar$memory_class$0$domain$$type_library$ 
02:000611E0 $pChar8$memory_class$0$domain$$type_library$ 
02:000611F0 $pCharCount$memory_class$0$domain$$type_library$ 
02:00061200 $pHandle$memory_class$0$domain$$type_library$ 
02:00061210 $pInteger$memory_class$0$domain$$type_library$ 
02:00061220 $pInteger16$memory_class$0$domain$$type_library$ 
02:00061230 $pInteger64$memory_class$0$domain$$type_library$ 
02:00061240 $pInteger8$memory_class$0$domain$$type_library$ 
02:00061250 $pIntegerNative$memory_class$0$domain$$type_library$ 
02:00061260 $pObject$memory_class$0$domain$$type_library$ 
02:00061270 $pPointer$memory_class$0$domain$$type_library$ 
02:00061280 $pReal$memory_class$0$domain$$type_library$ 
02:00061290 $pReal32$memory_class$0$domain$$type_library$ 
02:000612A0 $pString$memory_class$0$domain$$type_library$ 
02:000612B0 $pString8$memory_class$0$domain$$type_library$ 
02:000612C0 $pUnsigned$memory_class$0$domain$$type_library$ 
02:000612D0 $pUnsigned16$memory_class$0$domain$$type_library$ 
02:000612E0 $pUnsigned64$memory_class$0$domain$$type_library$ 
02:000612F0 $pUnsigned8$memory_class$0$domain$$type_library$ 
02:00061300 $pUnsignedNative$memory_class$0$domain$$type_library$ 
02:00061310 $unsigned4$bit_class$0$domain$$type_library$ 
02:00061320 $swbo64$bit_implement$0$domain$$type_library$ 
--- From 'obj\multithread_api.44799675.obj'
02:00061330 $timerAPCProc$multiThread_native_class$0$domain$$type_library$ 
02:00061340 $startupInfo$multiThread_native_class$0$domain$$type_library$ 
02:00061350 $processInformation$multiThread_native_class$0$domain$$type_library$ 
02:00061360 $threadRunnable$multiThread_native_class$0$domain$$type_library$ 
02:00061370 $critical_section$multiThread_native_class$0$domain$$type_library$ 
02:00061380 $m128A$multiThread_native_class$0$domain$$type_library$ 
02:00061390 $selectorEntry$multiThread_native_class$0$domain$$type_library$ 
02:000613A0 $cache_descriptor$multiThread_native_class$0$domain$$type_library$ 
02:000613B0 $system_logical_processor_information$multiThread_native_class$0$domain$$type_library$ 
02:000613C0 $apcProc$multiThread_native_class$0$domain$$type_library$ 
02:000613D0 $srwLock$multiThread_native_class$0$domain$$type_library$ 
02:000613E0 $native$multiThread_api_implement$0$domain$$type_library$ 
--- From 'obj\time_api.0FD0D46D.obj'
02:000613F0 $mapM{@Key,@Data}$_global_class$2$domain$$type_library$2${typelib(class$core::tuple{class$core::unsigned16$class$time_native::timeZoneAPI$})$typelib(class$time_native::time_zone_information)$}$static$ 
02:00061400 $tuple$core_class$2$domain$$type_library$2${class$core::unsigned16$class$time_native::timeZoneAPI$}$static$ 
02:00061410 $systemTime$time_native_class$0$domain$$type_library$ 
02:00061420 $timeZoneAPI$time_native_class$0$domain$$type_library$ 
02:00061430 $time_zone_information$time_native_class$0$domain$$type_library$ 
02:00061440 $fileTime$time_native_class$0$domain$$type_library$ 
02:00061450 $reg_tzi_format$time_native_class$0$domain$$type_library$ 
02:00061460 $lastInputInfo$time_native_class$0$domain$$type_library$ 
02:00061470 $time_api@classDB$time_api_implement$0$domain$$type_library$ 
02:00061480 $gettimezoneinformationforyear/2nf$1$time_api_implement$0$domain$$type_library$ 
--- From 'obj\locale_api.1E7D05A5.obj'
02:00061490 $stdBoolFunc$locale_native_class$1$domain$$type_library$ 
02:000614A0 $stdBoolFunc$locale_native_class$2$domain$$type_library$ 
02:000614B0 $stdBoolFunc$locale_native_class$4$domain$$type_library$ 
02:000614C0 $stdBoolFunc$locale_native_class$5$domain$$type_library$ 
02:000614D0 $numberfmt$locale_native_class$0$domain$$type_library$ 
--- From 'obj\windowsapi.AA084B33.obj'
02:000614E0 $security_descriptor$windowsAPI_class$0$domain$$type_library$ 
02:000614F0 $acl$windowsAPI_class$0$domain$$type_library$ 
02:00061500 $security_attributes$windowsAPI_class$0$domain$$type_library$ 
--- From 'obj\redblackset.DC1C3622.obj'
02:00061510 $empty/0$1$redBlackSet_implement$0$domain$$type_library$ 
02:00061520 $present_setrep/1nf$1$redBlackSet_implement$0$domain$$type_library$ 
--- From 'obj\collectionmsupport.3A44ED4E.obj'
02:00061530 $collectionmsupport$typeLibDB$collectionSupport\collectionMsupport{@Type}_implement$0$domain$$type_library$ 
05E000:003540 006A00   VIPConst::VIPConst::.rdata F=4
--- From 'obj\string.19AABD3B.obj'
02:000615C8 $emptyString$string_exception_class$constant$ 
02:0006168C $outOfBoundaries$string_exception_class$constant$ 
02:00061730 $oddOffset$string_exception_class$constant$ 
--- From 'obj\math.5D7D6037.obj'
02:000617E0 $asinOutOfBounds$math_exception_class$constant$ 
02:0006188C $acoshOutOfBounds$math_exception_class$constant$ 
02:00061944 $atanhOutOfBounds$math_exception_class$constant$ 
02:000619FC $acotanhOutOfBounds$math_exception_class$constant$ 
02:00061A94 $cotanhInfinityResult$math_exception_class$constant$ 
--- From 'obj\gui_api.16868AAC.obj'
02:00062078 $wm_MsgCodeList$gui_native_class$constant$ 
02:00063C70 $wm_MsgNameList$gui_native_class$constant$ 
--- From 'obj\arraym_inline.F665267A.obj'
02:00063C98 $variableLengthTypes$pfc\reflection\reflection_class$constant$ 
--- From 'obj\namedvalue.6D52B2A6.obj'
02:00063D18 $nameNotInMap$namedValue_class$constant$ 
--- From 'obj\registry.917E8C91.obj'
02:00063DBC $wrongValue$registry_exception_class$constant$ 
02:00063E2C $noPath$registry_exception_class$constant$ 
02:00063EBC $cannotCreateKey$registry_exception_class$constant$ 
--- From 'obj\time.6AFD2988.obj'
02:00063FBC $wrongStringFormat$time_exception_class$constant$ 
02:0006407C $cannotGetTimeZoneInformation$time_exception_class$constant$ 
--- From 'obj\binary.248EF86D.obj'
02:00064120 $invalidCompressionFormat$binary_exception_class$constant$ 
02:000641A8 $internalDecodeError$binary_exception_class$constant$ 
02:00064240 $wrongBinaryFormat$binary_exception_class$constant$ 
--- From 'obj\filesystem.5B0F823E.obj'
02:000642C8 $fileAlreadyExists$fileSystem_exception_class$constant$ 
02:0006435C $wrongAttribute$fileSystem_exception_class$constant$ 
02:00064428 $fileTooBig$fileSystem_exception_class$constant$ 
--- From 'obj\exception.B6F320E8.obj'
02:000644AC $nativeCallException$exception_class$constant$ 
02:00064528 $systemException$runtime_exception_class$constant$ 
02:000645AC $realOverflow$runtime_exception_class$constant$ 
02:00064640 $realDivideByZero$runtime_exception_class$constant$ 
02:000646C4 $arithmeticOverflow$runtime_exception_class$constant$ 
02:00064790 $mismatchVersion$runtime_exception_class$constant$ 
02:00064808 $osError$runtime_exception_class$constant$ 
02:00064898 $cannotLoadLibrary$runtime_exception_class$constant$ 
02:00064960 $cannotGetProcAddress$runtime_exception_class$constant$ 
02:000649E8 $gcAbend$runtime_exception_class$constant$ 
02:00064A74 $gcError$runtime_exception_class$constant$ 
02:00064ADC $heapOverflow$runtime_exception_class$constant$ 
02:00064B68 $invalidTerm$runtime_exception_class$constant$ 
02:00064C30 $noRangeNumber$runtime_exception_class$constant$ 
02:00064CE8 $fromString$runtime_exception_class$constant$ 
02:00064DA8 $fromBinary$runtime_exception_class$constant$ 
02:00064E2C $negZero$runtime_exception_class$constant$ 
02:00064ED4 $objectConversion$runtime_exception_class$constant$ 
02:00064F5C $cyclicInheritance$runtime_exception_class$constant$ 
02:00064FFC $functorNotFound$runtime_exception_class$constant$ 
02:000650B8 $determFact$runtime_exception_class$constant$ 
02:00065158 $invalidFormat$runtime_exception_class$constant$ 
02:000651F8 $unsupportedFormat$runtime_exception_class$constant$ 
02:000652D0 $wrongNumberArgumentForFormat$runtime_exception_class$constant$ 
02:0006538C $integerExpected$runtime_exception_class$constant$ 
02:00065420 $parserUnexpectedEOS$runtime_exception_class$constant$ 
02:000654A0 $unGetChar$runtime_exception_class$constant$ 
02:00065528 $vipRunInternalError$runtime_exception_class$constant$ 
02:000655FC $invalidTermRepresentation$runtime_exception_class$constant$ 
02:0006567C $consult_WrongComment$runtime_exception_class$constant$ 
02:0006571C $consult_WrongUsageOfKeyword$runtime_exception_class$constant$ 
02:000657D4 $retractSingleFact$runtime_exception_class$constant$ 
02:0006587C $expectedChar$runtime_exception_class$constant$ 
02:00065904 $freeVariable$runtime_exception_class$constant$ 
02:00065994 $singleFactHasNoValue$runtime_exception_class$constant$ 
02:00065A44 $valueCannotBeConvertedToType$runtime_exception_class$constant$ 
02:00065AC4 $mustUnifyFailed$runtime_exception_class$constant$ 
02:00065B6C $accessToNotInitializedFact$runtime_exception_class$constant$ 
02:00065BF8 $chainDB_DBAlreadyOpen$runtime_exception_class$constant$ 
02:00065C9C $chainDB_InvalidDBFilename$runtime_exception_class$constant$ 
02:00065D20 $chainDB_NotOpenDB$runtime_exception_class$constant$ 
02:00065DA8 $chainDB_ExistsBTree$runtime_exception_class$constant$ 
02:00065E70 $chainDB_ExistsDBInPlace$runtime_exception_class$constant$ 
02:00065F00 $chainDB_InvalidOrderValue$runtime_exception_class$constant$ 
02:00065F98 $chainDB_InvalidKeyValue$runtime_exception_class$constant$ 
02:00066044 $chainDB_UnableOpenDB$runtime_exception_class$constant$ 
02:000660C8 $chainDB_InvalidDB$runtime_exception_class$constant$ 
02:00066158 $chainDB_UnableDeleteDB$runtime_exception_class$constant$ 
02:000661E4 $chainDB_InvalidRefVal$runtime_exception_class$constant$ 
02:00066264 $chainDB_AbsentChain$runtime_exception_class$constant$ 
02:000662E0 $chainDB_AbsentBTree$runtime_exception_class$constant$ 
02:00066374 $chainDB_InvalidBTreeSel$runtime_exception_class$constant$ 
02:0006640C $chainDB_DeleteOpenBTree$runtime_exception_class$constant$ 
02:000664BC $chainDB_NotFoundKeyAndRef$runtime_exception_class$constant$ 
02:00066558 $chainDB_IncorrectDBVersion$runtime_exception_class$constant$ 
02:000665F8 $chainDB_NotInTransaction$runtime_exception_class$constant$ 
02:000666D8 $chainDB_WriteROTransaction$runtime_exception_class$constant$ 
02:00066790 $chainDB_AlreadyOpenTransaction$runtime_exception_class$constant$ 
02:00066860 $chainDB_UpdatingROTransaction$runtime_exception_class$constant$ 
02:00066908 $chainDB_TimeOutTransaction$runtime_exception_class$constant$ 
02:000669BC $chainDB_DuplicateKey$runtime_exception_class$constant$ 
02:00066AA0 $chainDB_WrongChainToDeleteTerm$runtime_exception_class$constant$ 
02:00066B78 $chainDB_ReadWrongNumberBytes$runtime_exception_class$constant$ 
02:00066C54 $chainDB_WriteWrongNumberBytes$runtime_exception_class$constant$ 
02:00066CE4 $chainDB_OSNativeError$runtime_exception_class$constant$ 
02:00066D5C $binary_invalidBlock$runtime_exception_class$constant$ 
02:00066DEC $binary_invalidFormat$runtime_exception_class$constant$ 
02:00066E9C $binary_DecodeInternalError$runtime_exception_class$constant$ 
02:00066F54 $odbc_unidentifiedError$runtime_exception_class$constant$ 
02:00067050 $sql_invalidHandle$runtime_exception_class$constant$ 
02:00067128 $sql_stillExecuting$runtime_exception_class$constant$ 
02:000671C0 $sql_needData$runtime_exception_class$constant$ 
02:00067230 $sql_noDataFound$runtime_exception_class$constant$ 
02:000672E0 $sql_error$runtime_exception_class$constant$ 
02:00067370 $odbc_error$runtime_exception_class$constant$ 
02:0006740C $externalError$exception_exception_class$constant$ 
02:00067494 $internal$exception_class$constant$ 
02:00067514 $couldNotCreate$exception_class$constant$ 
02:00067588 $removeListener$exception_class$constant$ 
02:00067624 $nativeCallUnspecifiedException$exception_class$constant$ 
02:00067694 $notImplementedException$exception_class$constant$ 
02:0006770C $unsupportedPredicate$exception_class$constant$ 
02:00067788 $overloadingExpected$exception_class$constant$ 
02:000677FC $indexOutOfRange$exception_class$constant$ 
02:0006789C $unknown$exception_class$constant$ 
02:0006792C $exceptionInListener$exception_class$constant$ 
--- From 'obj\stream.8B55AAA7.obj'
02:00067998 $endOfStream$stream_exception_class$constant$ 
02:00067A64 $notSupportedProperty$stream_exception_class$constant$ 
02:00067B04 $noCRLFconversion$stream_exception_class$constant$ 
02:00067BA4 $wrongMode$stream_exception_class$constant$ 
02:00067C34 $noStream$stream_exception_class$constant$ 
--- From 'obj\filesystem_api.DE0803A2.obj'
02:00067CD0 $cannotCreate$fileSystem_api_class$constant$ 
02:00067D50 $cannotGetFileSize$fileSystem_api_class$constant$ 
02:00067DE4 $cannotSetFilePointer$fileSystem_api_class$constant$ 
--- From 'obj\time_api.0FD0D46D.obj'
02:00067EA4 $cannotGetDateTimeFormat$time_api_class$constant$ 
02:00067F28 $cannotGetLocaleInfo$time_api_class$constant$ 
05E000:009F40 006110   VIPInter::VIPInter::.rdata F=4
--- From 'obj\locale_api.1E7D05A5.obj'
02:00067F40 interface$outputStream_string 
02:00067FE0 $outputStream_string$_global_class$0$domain$ 
--- From 'obj\collectionmsupport.3A44ED4E.obj'
02:00068020 interface$object 
02:00068060 $object$_global_class$0$domain$ 
--- From 'obj\inputstreamsupport.7AF62102.obj'
02:00068090 interface$iterator{@Elem} 
02:00068120 $iterator{@Elem}$_global_class$1$domain$ 
--- From 'obj\collectionmsupport.3A44ED4E.obj'
02:00068150 interface$errorDescriptorInformation 
02:00068210 $errorDescriptorInformation$_global_class$0$domain$ 
02:00068260 interface$trapInformationObject 
02:00068310 $trapInformationObject$_global_class$0$domain$ 
--- From 'obj\inputstreamsupport.7AF62102.obj'
02:00068360 interface$segmentedSupport{@Segment} 
02:00068440 $segmentedSupport{@Segment}$_global_class$1$domain$ 
02:00068480 interface$segmentedSupportSite{@Segment} 
02:00068570 $segmentedSupportSite{@Segment}$_global_class$1$domain$ 
--- From 'obj\collectionmsupport.3A44ED4E.obj'
02:000685C0 interface$pfc\reflection\factDescriptor 
02:00068690 $pfc\reflection\factDescriptor$_global_class$0$domain$ 
02:000686F0 interface$pfc\reflection\functorDescriptor 
02:000687C0 $pfc\reflection\functorDescriptor$_global_class$0$domain$ 
02:0006884E $factRepresentationKind$pfc\reflection\functorDescriptor_interface$0$domain$ 
02:00068970 interface$pfc\reflection\scopeDescriptor 
02:00068A40 $pfc\reflection\scopeDescriptor$_global_class$0$domain$ 
02:00068AC2 $scopeKind$pfc\reflection\scopeDescriptor_interface$0$domain$ 
02:00068B60 interface$pfc\reflection\typeDescriptor 
02:00068C30 $pfc\reflection\typeDescriptor$_global_class$0$domain$ 
02:00068C90 interface$pfc\reflection\typeDescriptor_arrow 
02:00068D70 $pfc\reflection\typeDescriptor_arrow$_global_class$0$domain$ 
02:00068E34 $callTypeDescriptor$pfc\reflection\typeDescriptor_arrow_interface$0$domain$ 
02:00068EB8 $callArgumentDescriptor$pfc\reflection\typeDescriptor_arrow_interface$0$domain$ 
02:00068F10 interface$pfc\reflection\typeLibrary 
02:00068FD0 $pfc\reflection\typeLibrary$_global_class$0$domain$ 
02:00069058 $presenter$pfc\reflection\typeLibrary_interface$0$domain$ 
02:00069090 interface$pfc\reflection\typeLibrary_arrow 
02:00069160 $pfc\reflection\typeLibrary_arrow$_global_class$0$domain$ 
02:000691FC $formalParameter$pfc\reflection\typeLibrary_arrow_interface$0$domain$ 
02:000692D4 $typePattern$pfc\reflection\typeLibrary_arrow_interface$0$domain$ 
02:000693CC $callTypeDescription$pfc\reflection\typeLibrary_arrow_interface$0$domain$ 
02:0006945C $callParameterDescription$pfc\reflection\typeLibrary_arrow_interface$0$domain$ 
02:000694B0 interface$pfc\reflection\typeLibrary_functor 
02:00069590 $pfc\reflection\typeLibrary_functor$_global_class$0$domain$ 
02:000695F0 interface$pfc\reflection\typeLibrary_numeric 
02:000696D0 $pfc\reflection\typeLibrary_numeric$_global_class$0$domain$ 
02:00069730 interface$inputBuffer 
02:000697D0 $inputBuffer$_global_class$0$domain$ 
02:00069800 interface$inputSupport 
02:000698B0 $inputSupport$_global_class$0$domain$ 
--- From 'obj\inputstreamsupport.7AF62102.obj'
02:000698F0 interface$outputBuffer 
02:000699A0 $outputBuffer$_global_class$0$domain$ 
02:000699E0 interface$outputStreamSegmentedSupport{@Segment} 
02:00069AE0 $outputStreamSegmentedSupport{@Segment}$_global_class$1$domain$ 
02:00069B40 interface$outputStreamSupport 
02:00069C10 $outputStreamSupport$_global_class$0$domain$ 
02:00069C50 interface$outputStreamSupportSite 
02:00069D30 $outputStreamSupportSite$_global_class$0$domain$ 
--- From 'obj\collectionmsupport.3A44ED4E.obj'
02:00069D80 interface$bufferSupport 
02:00069E10 $bufferSupport$_global_class$0$domain$ 
02:00069E50 interface$inputStream 
02:00069ED0 $inputStream$_global_class$0$domain$ 
02:00069F00 interface$outputStream 
02:00069F80 $outputStream$_global_class$0$domain$ 
02:00069FD8 $outputSerializer$outputStream_interface$0$domain$ 
02:0006A020 interface$outputStreamSegmented{@Segment} 
02:0006A0E0 $outputStreamSegmented{@Segment}$_global_class$1$domain$ 
02:0006A130 interface$stdioState 
02:0006A1B0 $stdioState$_global_class$0$domain$ 
02:0006A1E0 interface$stream 
02:0006A250 $stream$_global_class$0$domain$ 
02:0006A2DC $mode$stream_interface$0$domain$ 
02:0006A340 interface$runtimeLinknamesKernel 
02:0006A3E0 $runtimeLinknamesKernel$_global_class$0$domain$ 
02:0006A430 interface$runtimeLinkNamesRun 
02:0006A4C0 $runtimeLinkNamesRun$_global_class$0$domain$ 
02:0006A500 interface$collection{@Type} 
02:0006A590 $collection{@Type}$_global_class$1$domain$ 
02:0006A5C0 interface$map{@Key,@Data} 
02:0006A640 $map{@Key,@Data}$_global_class$2$domain$ 
02:0006A660 interface$mapM{@Key,@Data} 
02:0006A6E0 $mapM{@Key,@Data}$_global_class$2$domain$ 
02:0006A710 interface$mapP{@Key,@Data} 
02:0006A790 $mapP{@Key,@Data}$_global_class$2$domain$ 
02:0006A7C0 interface$modifiable{@Type} 
02:0006A850 $modifiable{@Type}$_global_class$1$domain$ 
02:0006A880 interface$multiMapM{@Key,@Data} 
02:0006A920 $multiMapM{@Key,@Data}$_global_class$2$domain$ 
02:0006A950 interface$persistent{@Self,@Type} 
02:0006A9F0 $persistent{@Self,@Type}$_global_class$2$domain$ 
02:0006AA20 interface$queueM{@Type} 
02:0006AAA0 $queueM{@Type}$_global_class$1$domain$ 
02:0006AAD0 interface$queueP{@Type} 
02:0006AB50 $queueP{@Type}$_global_class$1$domain$ 
02:0006AB80 interface$set{@Type} 
02:0006ABF0 $set{@Type}$_global_class$1$domain$ 
02:0006AC10 interface$setM{@Type} 
02:0006AC90 $setM{@Type}$_global_class$1$domain$ 
02:0006ACC0 interface$setP{@Type} 
02:0006AD40 $setP{@Type}$_global_class$1$domain$ 
--- From 'obj\exception.B6F320E8.obj'
02:0006AD70 interface$arrayM_inline{@ItemType} 
02:0006AE30 $arrayM_inline{@ItemType}$_global_class$1$domain$ 
--- From 'obj\exe_api.A246601B.obj'
02:0006AE70 interface$outputStream_binary 
02:0006AF10 $outputStream_binary$_global_class$0$domain$ 
--- From 'obj\commandlineparser.67E728BA.obj'
02:0006AF50 interface$iStream_native 
02:0006B010 $iStream_native$_global_class$0$domain$ 
02:0006B050 interface$iUnknown 
02:0006B100 $iUnknown$_global_class$0$domain$ 
--- From 'obj\criticalsectionsupport.56CDFDBE.obj'
02:0006B130 interface$criticalSectionSupport 
02:0006B210 $criticalSectionSupport$_global_class$0$domain$ 
02:0006B260 interface$criticalSectionSupportSite 
02:0006B350 $criticalSectionSupportSite$_global_class$0$domain$ 
--- From 'obj\exception.B6F320E8.obj'
02:0006B3A0 interface$criticalSection 
02:0006B440 $criticalSection$_global_class$0$domain$ 
02:0006B480 interface$event 
02:0006B4F0 $event$_global_class$0$domain$ 
02:0006B520 interface$mutex 
02:0006B590 $mutex$_global_class$0$domain$ 
02:0006B5C0 interface$semaphore 
02:0006B640 $semaphore$_global_class$0$domain$ 
02:0006B670 interface$srwLock 
02:0006B6F0 $srwLock$_global_class$0$domain$ 
02:0006B720 interface$syncObject 
02:0006B7A0 $syncObject$_global_class$0$domain$ 
02:0006B7D0 interface$thread 
02:0006B840 $thread$_global_class$0$domain$ 
02:0006B870 interface$waitableTimer 
02:0006B900 $waitableTimer$_global_class$0$domain$ 
--- From 'obj\mapmsupport.8CD6C048.obj'
02:0006B940 interface$collectionSupport\mapMSupport{@Key,@Data} 
02:0006BA30 $collectionSupport\mapMSupport{@Key,@Data}$_global_class$2$domain$ 
02:0006BA90 interface$collectionSupport\mapMSupportSite{@Key,@Data} 
02:0006BB90 $collectionSupport\mapMSupportSite{@Key,@Data}$_global_class$2$domain$ 
--- From 'obj\collectionmsupport.3A44ED4E.obj'
02:0006BBF0 interface$collectionSupport\collectionSupport{@Type} 
02:0006BCF0 $collectionSupport\collectionSupport{@Type}$_global_class$1$domain$ 
02:0006BD50 interface$collectionSupport\collectionSupportSite{@Type} 
02:0006BE60 $collectionSupport\collectionSupportSite{@Type}$_global_class$1$domain$ 
--- From 'obj\mapsupport.59C06C8E.obj'
02:0006BED0 interface$collectionSupport\mapSupport{@Key,@Data} 
02:0006BFB0 $collectionSupport\mapSupport{@Key,@Data}$_global_class$2$domain$ 
--- From 'obj\mapmsupport.8CD6C048.obj'
02:0006C010 interface$collectionSupport\mapSupportSite{@Key,@Data} 
--- From 'obj\mapsupport.59C06C8E.obj'
02:0006C100 $collectionSupport\mapSupportSite{@Key,@Data}$_global_class$2$domain$ 
--- From 'obj\collectionmsupport.3A44ED4E.obj'
02:0006C160 interface$collectionSupport\modifiableSupport{@Type} 
02:0006C260 $collectionSupport\modifiableSupport{@Type}$_global_class$1$domain$ 
02:0006C2C0 interface$collectionSupport\modifiableSupportSite{@Type} 
02:0006C3D0 $collectionSupport\modifiableSupportSite{@Type}$_global_class$1$domain$ 
--- From 'obj\weakreference.0A1AF11C.obj'
02:0006C440 interface$weakReference{@Type} 
02:0006C4F0 $weakReference{@Type}$_global_class$1$domain$ 
--- From 'obj\commandlineparser.67E728BA.obj'
02:0006C530 interface$commandLineParser 
02:0006C5E0 $commandLineParser$_global_class$0$domain$ 
--- From 'obj\time_api.0FD0D46D.obj'
02:0006C620 interface$calendarDuration 
02:0006C6B0 $calendarDuration$_global_class$0$domain$ 
02:0006C6F0 interface$duration 
02:0006C760 $duration$_global_class$0$domain$ 
02:0006C790 interface$gmtTime 
02:0006C800 $gmtTime$_global_class$0$domain$ 
02:0006C830 interface$timeInterval 
02:0006C8B0 $timeInterval$_global_class$0$domain$ 
02:0006C8F0 interface$calendarInterval 
02:0006C970 $calendarInterval$_global_class$0$domain$ 
02:0006C9B0 interface$time 
02:0006CA10 $time$_global_class$0$domain$ 
02:0006CA40 interface$timeFormatter 
02:0006CAC0 $timeFormatter$_global_class$0$domain$ 
--- From 'obj\presenter.E6E77556.obj'
02:0006CB00 interface$varM{@Term} 
--- From 'obj\reflection.ACE59E5C.obj'
02:0006CB90 $varM{@Term}$_global_class$1$domain$ 
--- From 'obj\presenter.E6E77556.obj'
02:0006CBC0 interface$varM_boolean 
02:0006CC60 $varM_boolean$_global_class$0$domain$ 
02:0006CCA0 interface$varM_integer 
02:0006CD40 $varM_integer$_global_class$0$domain$ 
02:0006CD80 interface$varM_lazy{@Term} 
02:0006CE20 $varM_lazy{@Term}$_global_class$1$domain$ 
02:0006CE50 interface$varM_optional{@Term} 
02:0006CF00 $varM_optional{@Term}$_global_class$1$domain$ 
02:0006CF40 interface$varM_unsigned 
02:0006CFE0 $varM_unsigned$_global_class$0$domain$ 
02:0006D020 interface$event0 
02:0006D090 $event0$_global_class$0$domain$ 
02:0006D0C8 $listener$event0_interface$0$domain$ 
02:0006D100 interface$event1{@Type1} 
02:0006D180 $event1{@Type1}$_global_class$1$domain$ 
02:0006D1C8 $listener$event1{@Type1}_interface$0$domain$ 
02:0006D200 interface$event2{@Type1,@Type2} 
02:0006D290 $event2{@Type1,@Type2}$_global_class$2$domain$ 
02:0006D2E8 $listener$event2{@Type1,@Type2}_interface$0$domain$ 
02:0006D320 interface$event3{@Type1,@Type2,@Type3} 
02:0006D3B0 $event3{@Type1,@Type2,@Type3}$_global_class$3$domain$ 
02:0006D418 $listener$event3{@Type1,@Type2,@Type3}_interface$0$domain$ 
02:0006D450 interface$event4{@Type1,@Type2,@Type3,@Type4} 
02:0006D4F0 $event4{@Type1,@Type2,@Type3,@Type4}$_global_class$4$domain$ 
02:0006D568 $listener$event4{@Type1,@Type2,@Type3,@Type4}_interface$0$domain$ 
02:0006D5A0 interface$event5{@Type1,@Type2,@Type3,@Type4,@Type5} 
02:0006D650 $event5{@Type1,@Type2,@Type3,@Type4,@Type5}$_global_class$5$domain$ 
02:0006D6D8 $listener$event5{@Type1,@Type2,@Type3,@Type4,@Type5}_interface$0$domain$ 
02:0006D710 interface$event6{@Type1,@Type2,@Type3,@Type4,@Type5,@Type6} 
02:0006D7D0 $event6{@Type1,@Type2,@Type3,@Type4,@Type5,@Type6}$_global_class$6$domain$ 
02:0006D868 $listener$event6{@Type1,@Type2,@Type3,@Type4,@Type5,@Type6}_interface$0$domain$ 
02:0006D8A0 interface$event7{@Type1,@Type2,@Type3,@Type4,@Type5,@Type6,@Type7} 
02:0006D970 $event7{@Type1,@Type2,@Type3,@Type4,@Type5,@Type6,@Type7}$_global_class$7$domain$ 
02:0006DA18 $listener$event7{@Type1,@Type2,@Type3,@Type4,@Type5,@Type6,@Type7}_interface$0$domain$ 
--- From 'obj\inputsupport_mode.ADC075EF.obj'
02:0006DA50 interface$inputSupport_mode 
02:0006DB10 $inputSupport_mode$_global_class$0$domain$ 
02:0006DB50 interface$inputSupportSite_mode 
02:0006DC20 $inputSupportSite_mode$_global_class$0$domain$ 
--- From 'obj\collectionmsupport.3A44ED4E.obj'
02:0006DC70 interface$collectionSupport\collectionMsupport{@Type} 
02:0006DD80 $collectionSupport\collectionMsupport{@Type}$_global_class$1$domain$ 
02:0006DDF0 interface$collectionSupport\collectionMsupportSite{@Type} 
02:0006DF10 $collectionSupport\collectionMsupportSite{@Type}$_global_class$1$domain$ 
--- From 'obj\core.5D9B9483.obj'
02:0006DF80 interface$resourceIdentifiers 
02:0006E010 $resourceIdentifiers$_global_class$0$domain$ 
05E000:010050 02A2C0   VIPClass::VIPClass::.rdata F=4
--- From 'obj\segmented_utf16.76E668A2.obj'
02:0006E050 class$segmented_utf16 
02:0006E0CC class$segmented_utf16$vtable$ 
--- From 'obj\hash_api.96B8CAEE.obj'
02:0006E200 class$hash_native 
--- From 'obj\string.19AABD3B.obj'
02:0006E2A0 class$string_exception 
02:0006E330 class$string 
02:0006E382 $caseSensitivity$string_class$0$domain$ 
02:0006E3CA $adjustBehaviour$string_class$0$domain$ 
02:0006E406 $adjustSide$string_class$0$domain$ 
02:0006E5D0 class$outputStream_string 
02:0006ED68 class$outputStream_string$vtable$  (Idle)
02:0006F270 class$inputStream_string 
02:0006F628 class$inputStream_string$vtable$  (Idle)
--- From 'obj\boolean.DE5055E8.obj'
02:0006F880 class$boolean 
--- From 'obj\string8.355639C6.obj'
02:0006F8F0 class$string8 
--- From 'obj\string8_api.B92F602D.obj'
02:0006F960 class$string8_native 
02:0006FA10 class$string8_api 
--- From 'obj\mapm_redblack.875A0474.obj'
02:0006FAB0 class$mapM_redBlack{@Key,@Data} 
02:000700A4 class$mapM_redBlack{@Key,@Data}$vtable$  (Idle)
--- From 'obj\math.5D7D6037.obj'
02:000704C0 class$math_exception 
02:00070550 class$math 
02:00070580 $inCircle$math_class$0$domain$ 
02:000705AC $aPeriod$math_class$0$domain$ 
02:000705D8 $uReal$math_class$0$domain$ 
--- From 'obj\exe.D80FC844.obj'
02:00070660 class$mainExe 
--- From 'obj\shell_api.E8D4E14B.obj'
02:00070790 class$shell_native 
02:00070854 $shellExecuteInfo$shell_native_class$0$domain$ 
02:000708DC $appBarData$shell_native_class$0$domain$ 
--- From 'obj\filesystem.5B0F823E.obj'
02:00070958 $shFileOpStruct$shell_native_class$0$domain$ 
--- From 'obj\shell_api.E8D4E14B.obj'
02:000709B4 $sHNameMapping$shell_native_class$0$domain$ 
02:00070A14 $shQueryRBinfo$shell_native_class$0$domain$ 
02:00070B0C $notifyIcondata$shell_native_class$0$domain$ 
02:00070B90 $sHFileInfo$shell_native_class$0$domain$ 
02:00070C0C $browseinfo$shell_native_class$0$domain$ 
02:00070C84 $browseCallbackProc$shell_native_class$0$domain$ 
02:00070D02 $shard$shell_native_class$0$domain$ 
02:00070D50 $$inline_128$shell_native_class$1$domain$ 
02:00070D84 $$inline_256$shell_native_class$1$domain$ 
02:00070DB8 $$inline_64$shell_native_class$1$domain$ 
02:00070DEC $$inline_260$shell_native_class$1$domain$ 
02:00070E20 $$inline_80$shell_native_class$1$domain$ 
02:00071120 class$shell_api 
--- From 'obj\vpidomains.E7102A6D.obj'
02:000711B0 class$vpiOwnerDraw 
02:00071240 class$vpiDomains 
--- From 'obj\gui_api.16868AAC.obj'
02:0007129C $pnt$vpiDomains_class$0$domain$ 
02:000712F8 $rct$vpiDomains_class$0$domain$ 
--- From 'obj\vpidomains.E7102A6D.obj'
02:00071344 $brush$vpiDomains_class$0$domain$ 
02:00071398 $pen$vpiDomains_class$0$domain$ 
02:0007140C $drawtools$vpiDomains_class$0$domain$ 
02:00071498 $menu$vpiDomains_class$0$domain$ 
02:000714C0 $keyModifier$vpiDomains_class$0$domain$ 
02:00071524 $acceleratorKey$vpiDomains_class$0$domain$ 
02:00071618 $menuItem$vpiDomains_class$0$domain$ 
02:00071C2C $event$vpiDomains_class$0$domain$ 
02:00071D90 $controlInfo$vpiDomains_class$0$domain$ 
02:00071E6C $stateInfo$vpiDomains_class$0$domain$ 
02:000720A0 $windef$vpiDomains_class$0$domain$ 
02:00072118 $wdef$vpiDomains_class$0$domain$ 
02:00072160 $errhandler$vpiDomains_class$0$domain$ 
02:000721B8 $eHandler$vpiDomains_class$0$domain$ 
02:0007220C $accelerator$vpiDomains_class$0$domain$ 
02:000722B0 $bitmapId$vpiDomains_class$0$domain$ 
02:00072304 $ddeserviceInfo$vpiDomains_class$0$domain$ 
02:000723B0 $ddedata$vpiDomains_class$0$domain$ 
02:00072634 $ddeevent$vpiDomains_class$0$domain$ 
02:000726A6 $alignment$vpiDomains_class$0$domain$ 
02:000726FA $ellipsis$vpiDomains_class$0$domain$ 
--- From 'obj\gui_api.16868AAC.obj'
02:00073010 class$gui_native 
02:000730F8 $logfont$gui_native_class$0$domain$ 
02:00073154 $mouseMovePoint$gui_native_class$0$domain$ 
02:000731AC $enumDesktopProc$gui_native_class$0$domain$ 
02:00073204 $enumWindowStationProc$gui_native_class$0$domain$ 
02:00073258 $copyDataStruct$gui_native_class$0$domain$ 
02:000732B4 $trackMouseEvent$gui_native_class$0$domain$ 
02:0007333C $msg$gui_native_class$0$domain$ 
02:000733A4 $sendAsyncProc$gui_native_class$0$domain$ 
02:0007341C $wndProc$gui_native_class$0$domain$ 
02:000734B8 $wndClassEx$gui_native_class$0$domain$ 
02:00073554 $createstruct$gui_native_class$0$domain$ 
02:000735B8 $flashInfo$gui_native_class$0$domain$ 
02:0007362C $windowPos$gui_native_class$0$domain$ 
02:000736C4 $windowPlacement$gui_native_class$0$domain$ 
02:0007377C $windowInfo$gui_native_class$0$domain$ 
02:000737F8 $monitorInfo$gui_native_class$0$domain$ 
02:00073884 $monitorInfoEx$gui_native_class$0$domain$ 
02:000738FC $monitorEnumProc$gui_native_class$0$domain$ 
02:00073984 $dlgTemplate$gui_native_class$0$domain$ 
02:00073A0C $dlgItemTemplate$gui_native_class$0$domain$ 
02:00073B14 $dlgTemplateEx$gui_native_class$0$domain$ 
02:00073B7C $timerProc$gui_native_class$0$domain$ 
02:00073BDC $accel$gui_native_class$0$domain$ 
02:00073C78 $menuItemInfo$gui_native_class$0$domain$ 
02:00073CDC $drawTextParams$gui_native_class$0$domain$ 
02:00073D44 $grayStringProc$gui_native_class$0$domain$ 
02:00073DCC $drawStateProc$gui_native_class$0$domain$ 
02:00073E18 $size$gui_native_class$0$domain$ 
02:00073F24 $textmetric$gui_native_class$0$domain$ 
02:00073FB4 $paintStruct$gui_native_class$0$domain$ 
02:00073FD4 $scrollBar$gui_native_class$0$domain$ 
02:0007404C $propEnumProc$gui_native_class$0$domain$ 
02:000740D4 $helpInfo$gui_native_class$0$domain$ 
02:0007412C $wndEnumProc$gui_native_class$0$domain$ 
02:0007416E $gaFlags$gui_native_class$0$domain$ 
02:000741DC $hookProc$gui_native_class$0$domain$ 
02:00074240 $kbdllhookstruct$gui_native_class$0$domain$ 
02:000742A4 $iconInfo$gui_native_class$0$domain$ 
02:0007430C $buttonImageList$gui_native_class$0$domain$ 
02:0007432C $button_imageList_align$gui_native_class$0$domain$ 
02:0007438C $nmBcHotItem$gui_native_class$0$domain$ 
02:00074400 $button_splitInfo$gui_native_class$0$domain$ 
02:00074468 $nmBcDropdown$gui_native_class$0$domain$ 
02:000744BC $nmhdr$gui_native_class$0$domain$ 
02:00074554 $nmCustomDraw$gui_native_class$0$domain$ 
02:000745C8 $scrollInfo$gui_native_class$0$domain$ 
02:0007468C $scrollBarInfo$gui_native_class$0$domain$ 
02:000746E0 $logbrush$gui_native_class$0$domain$ 
02:00074754 $tcItem$gui_native_class$0$domain$ 
02:000747A0 $tagInitCommonControlsEx$gui_native_class$0$domain$ 
02:000747F8 $logPalette$gui_native_class$0$domain$ 
02:00074864 $mouseInput$gui_native_class$0$domain$ 
02:000748D8 $keybdInput$gui_native_class$0$domain$ 
02:00074938 $hardwareInput$gui_native_class$0$domain$ 
02:00074958 $inputUnion$gui_native_class$0$domain$ 
02:000749BC $input$gui_native_class$0$domain$ 
02:00074A60 $toolinfo$gui_native_class$0$domain$ 
02:00074AF0 $nmttdispInfo$gui_native_class$0$domain$ 
02:00074B5C $blendFunction$gui_native_class$0$domain$ 
02:00074C10 $chooseFont$gui_native_class$0$domain$ 
02:00074D10 $printdlg$gui_native_class$0$domain$ 
02:00074DF4 $printdlgEx$gui_native_class$0$domain$ 
02:00074E40 $initCommonControlsEx$gui_native_class$0$domain$ 
02:00074E94 $colorScheme$gui_native_class$0$domain$ 
02:00074EF4 $nmTooltipsCreated$gui_native_class$0$domain$ 
02:00074F78 $nmMouse$gui_native_class$0$domain$ 
02:00075000 $nmObjectNotify$gui_native_class$0$domain$ 
02:00075068 $nmKey$gui_native_class$0$domain$ 
02:000750DC $nmchar$gui_native_class$0$domain$ 
02:0007516C $nmCustomText$gui_native_class$0$domain$ 
02:000751B8 $nmttCustomDraw$gui_native_class$0$domain$ 
02:00075244 $nmCustomSplitRectInfo$gui_native_class$0$domain$ 
02:00075308 $imageListDrawParams$gui_native_class$0$domain$ 
02:00075384 $imageInfo$gui_native_class$0$domain$ 
02:000753D0 $hd_textFilter$gui_native_class$0$domain$ 
02:0007546C $hdItem$gui_native_class$0$domain$ 
02:000754B8 $hdLayout$gui_native_class$0$domain$ 
02:00075520 $hdHitTestInfo$gui_native_class$0$domain$ 
02:00075594 $nmHeader$gui_native_class$0$domain$ 
02:00075624 $nmhdDispInfo$gui_native_class$0$domain$ 
02:00075694 $nmhdFilterBtnClick$gui_native_class$0$domain$ 
02:00075724 $tbButton$gui_native_class$0$domain$ 
02:00075770 $colormap$gui_native_class$0$domain$ 
02:00075848 $nmtbCustomDraw$gui_native_class$0$domain$ 
02:00075894 $tbAddBitmap$gui_native_class$0$domain$ 
02:000758E8 $tbSaveParams$gui_native_class$0$domain$ 
02:00075934 $tbInsertMark$gui_native_class$0$domain$ 
02:00075998 $tbReplaceBitmap$gui_native_class$0$domain$ 
02:00075A40 $tbButtonInfo$gui_native_class$0$domain$ 
02:00075ABC $tbMetrics$gui_native_class$0$domain$ 
02:00075B30 $nmtbHotItem$gui_native_class$0$domain$ 
02:00075BC0 $nmtbSave$gui_native_class$0$domain$ 
02:00075C5C $nmtbRestore$gui_native_class$0$domain$ 
02:00075CD8 $nmtbGetInfoTip$gui_native_class$0$domain$ 
02:00075D68 $nmtbDispInfo$gui_native_class$0$domain$ 
02:00075DF8 $nmToolbar$gui_native_class$0$domain$ 
02:00075E4C $rebarInfo$gui_native_class$0$domain$ 
02:00075F74 $rebarBandInfo$gui_native_class$0$domain$ 
02:00076000 $nmRebarChildSize$gui_native_class$0$domain$ 
02:00076088 $nmRebar$gui_native_class$0$domain$ 
02:0007610C $nmrbAutoSize$gui_native_class$0$domain$ 
02:0007619C $nmRebarChevron$gui_native_class$0$domain$ 
02:00076204 $nmRebarSplitter$gui_native_class$0$domain$ 
02:00076294 $nmRebarAutoBreak$gui_native_class$0$domain$ 
02:000762FC $rbHitTestInfo$gui_native_class$0$domain$ 
02:000763A0 $ttToolInfo$gui_native_class$0$domain$ 
02:000763FC $ttGetTitle$gui_native_class$0$domain$ 
02:00076464 $ttHitTestInfo$gui_native_class$0$domain$ 
02:000764CC $nmtrbThumbPosChanging$gui_native_class$0$domain$ 
02:00076534 $dragListInfo$gui_native_class$0$domain$ 
02:00076580 $udAccel$gui_native_class$0$domain$ 
02:000765E8 $nmUpDown$gui_native_class$0$domain$ 
02:00076634 $pbRange$gui_native_class$0$domain$ 
02:000766C4 $lItem$gui_native_class$0$domain$ 
02:00076724 $lHitTestInfo$gui_native_class$0$domain$ 
02:0007678C $nmLink$gui_native_class$0$domain$ 
02:00076840 $lvItem$gui_native_class$0$domain$ 
02:000768BC $lvfindInfo$gui_native_class$0$domain$ 
02:00076938 $lvHitTestInfo$gui_native_class$0$domain$ 
02:000769CC $lvcolumn$gui_native_class$0$domain$ 
02:00076A34 $pfnlvcompare$gui_native_class$0$domain$ 
02:00076AA0 $lvbkImage$gui_native_class$0$domain$ 
02:00076B9C $lvGroup$gui_native_class$0$domain$ 
02:00076C38 $lvGroupMetrics$gui_native_class$0$domain$ 
02:00076CA0 $pfnlvGroupcompare$gui_native_class$0$domain$ 
02:00076CF4 $lvInsertGroupsorted$gui_native_class$0$domain$ 
02:00076D84 $lvtileViewInfo$gui_native_class$0$domain$ 
02:00076DE8 $lvtileInfo$gui_native_class$0$domain$ 
02:00076E44 $lvInsertMark$gui_native_class$0$domain$ 
02:00076EA8 $lvsetInfoTip$gui_native_class$0$domain$ 
02:00076F04 $lvfooterInfo$gui_native_class$0$domain$ 
02:00076F70 $lvfooterItem$gui_native_class$0$domain$ 
02:00076FBC $lvItemIndex$gui_native_class$0$domain$ 
02:00077060 $nmListView$gui_native_class$0$domain$ 
02:0007710C $nmItemActivate$gui_native_class$0$domain$ 
02:000771D0 $nmlvCustomDraw$gui_native_class$0$domain$ 
02:00077238 $nmlvcachehint$gui_native_class$0$domain$ 
02:000772A0 $nmlvfindItem$gui_native_class$0$domain$ 
02:0007731C $nmlvodStateChange$gui_native_class$0$domain$ 
02:00077384 $nmlvDispInfo$gui_native_class$0$domain$ 
02:000773EC $nmlvKeyDown$gui_native_class$0$domain$ 
02:00077460 $nmlvLink$gui_native_class$0$domain$ 
02:000774F0 $nmlvGetInfoTip$gui_native_class$0$domain$ 
02:00077558 $nmlvscroll$gui_native_class$0$domain$ 
02:000775C8 $nmlvemptyMarkup$gui_native_class$0$domain$ 
02:0007763C $nmtvStateImageChanging$gui_native_class$0$domain$ 
02:000776C8 $tvItem$gui_native_class$0$domain$ 
02:0007777C $tvItemexa$gui_native_class$0$domain$ 
02:00077830 $tvItemEx$gui_native_class$0$domain$ 
02:00077898 $tvHitTestInfo$gui_native_class$0$domain$ 
02:000778EC $tvGetItemPartRectInfo$gui_native_class$0$domain$ 
02:00077954 $pfntvcompare$gui_native_class$0$domain$ 
02:000779A8 $tvsortcb$gui_native_class$0$domain$ 
02:00077A3C $nmTreeView$gui_native_class$0$domain$ 
02:00077AA4 $nmtvDispInfo$gui_native_class$0$domain$ 
02:00077B0C $nmtvDispInfoexa$gui_native_class$0$domain$ 
02:00077B74 $nmtvDispInfoEx$gui_native_class$0$domain$ 
02:00077BDC $nmtvKeyDown$gui_native_class$0$domain$ 
02:00077C38 $nmtvCustomDraw$gui_native_class$0$domain$ 
02:00077CB4 $nmtvGetInfoTipa$gui_native_class$0$domain$ 
02:00077D30 $nmtvGetInfoTip$gui_native_class$0$domain$ 
02:00077DB8 $nmtvItemChange$gui_native_class$0$domain$ 
02:00077E48 $nmtvasyncDraw$gui_native_class$0$domain$ 
02:00077ECC $comboBoxexItema$gui_native_class$0$domain$ 
02:00077F50 $comboBoxexItem$gui_native_class$0$domain$ 
02:00077FB0 $nmcomboBoxexa$gui_native_class$0$domain$ 
02:00078010 $nmcomboBoxEx$gui_native_class$0$domain$ 
02:00078080 $nmcbeDragbegin$gui_native_class$0$domain$ 
02:000780F0 $nmcbeDragbegina$gui_native_class$0$domain$ 
02:00078174 $nmcbeEndedit$gui_native_class$0$domain$ 
02:000781F8 $nmcbeEndedita$gui_native_class$0$domain$ 
02:00078264 $tcItemHeadera$gui_native_class$0$domain$ 
02:000782D0 $tcItemHeader$gui_native_class$0$domain$ 
02:00078344 $tcItema$gui_native_class$0$domain$ 
02:000783A4 $tcHitTestInfo$gui_native_class$0$domain$ 
02:0007840C $nmtcKeyDown$gui_native_class$0$domain$ 
02:000784B8 $mcHitTestInfo$gui_native_class$0$domain$ 
02:0007858C $mcgridInfo$gui_native_class$0$domain$ 
02:00078604 $nmSelChange$gui_native_class$0$domain$ 
02:00078680 $nmdayState$gui_native_class$0$domain$ 
02:000786E8 $nmViewChange$gui_native_class$0$domain$ 
02:0007878C $dateTimepickerInfo$gui_native_class$0$domain$ 
02:000787FC $nmDateTimeChange$gui_native_class$0$domain$ 
02:00078878 $nmDateTimeStringa$gui_native_class$0$domain$ 
02:000788F4 $nmDateTimeString$gui_native_class$0$domain$ 
02:00078970 $nmDateTimewmKeyDowna$gui_native_class$0$domain$ 
02:000789EC $nmDateTimewmKeyDown$gui_native_class$0$domain$ 
02:00078A78 $nmDateTimeFormat$gui_native_class$0$domain$ 
02:00078AE8 $nmDateTimeFormatQuery$gui_native_class$0$domain$ 
02:00078B50 $nmiPaddress$gui_native_class$0$domain$ 
02:00078BE8 $nmpgscroll$gui_native_class$0$domain$ 
02:00078C5C $nmpgcalcSize$gui_native_class$0$domain$ 
02:00078CD0 $nmpgHotItem$gui_native_class$0$domain$ 
02:00078D38 $button_imageList$gui_native_class$0$domain$ 
02:00078D94 $editballoonTip$gui_native_class$0$domain$ 
02:00078E1C $pftaskdialogcallback$gui_native_class$0$domain$ 
02:00078E68 $taskdialog_button$gui_native_class$0$domain$ 
02:00078F64 $taskdialogconfig$gui_native_class$0$domain$ 
02:00078FBC $pfndaeNumcallback$gui_native_class$0$domain$ 
02:00079014 $pfndaeNumcallbackconst$gui_native_class$0$domain$ 
02:0007907C $pfndacompare$gui_native_class$0$domain$ 
02:000790E4 $pfndacompareconst$gui_native_class$0$domain$ 
02:00079130 $dpastreamInfo$gui_native_class$0$domain$ 
02:00079198 $pfndpastream$gui_native_class$0$domain$ 
02:00079210 $pfndpamerge$gui_native_class$0$domain$ 
02:00079288 $pfndpamergeconst$gui_native_class$0$domain$ 
02:00079320 $subclassproc$gui_native_class$0$domain$ 
02:00079364 $inputUnion_mi$gui_native_class$0$domain$ 
02:000793A8 $inputUnion_ki$gui_native_class$0$domain$ 
02:000793EC $inputUnion_hi$gui_native_class$0$domain$ 
02:00079420 $$inline_32$gui_native_class$1$domain$ 
02:00079454 $$inline_256$gui_native_class$1$domain$ 
02:00079488 $$inline_80$gui_native_class$1$domain$ 
02:000794BC $$inline_2$gui_native_class$1$domain$ 
02:000794F0 $$inline_48$gui_native_class$1$domain$ 
02:00079524 $$inline_2084$gui_native_class$1$domain$ 
02:00079558 $$inline_2082$gui_native_class$1$domain$ 
02:0007958C $$inline_260$gui_native_class$1$domain$ 
02:000795C0 $$inline_64$gui_native_class$1$domain$ 
02:0007AD40 class$gui_api 
02:0007ADB4 $scrollInfo$gui_api_class$0$domain$ 
02:0007AE18 $scrollBarInfo$gui_api_class$0$domain$ 
02:0007AE84 $scrollBarInfoRgState$gui_api_class$0$domain$ 
02:0007AEE8 $windowPlacement$gui_api_class$0$domain$ 
02:0007AFB4 $dlgTemplate$gui_api_class$0$domain$ 
02:0007B024 $varArray$gui_api_class$0$domain$ 
02:0007B0DC $dlgItemTemplate$gui_api_class$0$domain$ 
02:0007B138 $monitorInfo$gui_api_class$0$domain$ 
--- From 'obj\registry_api.337CB6E1.obj'
02:0007B330 class$registry_native 
02:0007B394 $securityAttr$registry_native_class$0$domain$ 
02:0007B450 class$registry_api 
--- From 'obj\list.A75CEA31.obj'
02:0007B500 class$list 
--- From 'obj\multithread.32507C62.obj'
02:0007BB80 class$waitableTimer 
02:0007BC7C class$waitableTimer$vtable$ 
02:0007BD60 class$thread 
02:0007C014 class$thread$vtable$ 
02:0007C210 class$syncObject 
02:0007C2A0 class$syncObject$vtable$ 
02:0007C3A0 class$srwLock 
02:0007C4A4 class$srwLock$vtable$  (Idle)
02:0007C5F0 class$semaphore 
02:0007C6EC class$semaphore$vtable$ 
02:0007C7B0 class$mutex 
02:0007C99C class$mutex$vtable$  (Idle)
02:0007CB00 class$event 
02:0007CBFC class$event$vtable$ 
02:0007CCB0 class$criticalSection 
02:0007CDB4 class$criticalSection$vtable$  (Idle)
02:0007CF10 class$consoleSync 
02:0007D000 class$consoleSync$vtable$ 
--- From 'obj\arraym_inline.F665267A.obj'
02:0007D0B0 class$arrayM_inline{@ItemType} 
02:0007D78C class$arrayM_inline{@ItemType}$vtable$  (Idle)
--- From 'obj\namedvalue.6D52B2A6.obj'
02:0007DC60 class$namedValue 
--- From 'obj\std.2DE0EC97.obj'
02:0007DCE0 class$std 
--- From 'obj\runtime_api.8B32D2DD.obj'
02:0007DDB0 class$runtime_api 
--- From 'obj\varm.B882E173.obj'
02:0007DE50 class$varM_unsigned 
02:0007DF40 class$varM_unsigned$vtable$ 
02:0007E040 class$varM_reference{@Term} 
02:0007E0F4 class$varM_reference{@Term}$vtable$ 
02:0007E250 class$varM_optional{@Term} 
02:0007E360 class$varM_optional{@Term}$vtable$ 
02:0007E4A0 class$varM_lazy{@Term} 
02:0007E5BC class$varM_lazy{@Term}$vtable$ 
02:0007E750 class$varM_integer 
02:0007E840 class$varM_integer$vtable$ 
02:0007E940 class$varM_boolean 
02:0007EA30 class$varM_boolean$vtable$ 
02:0007EB20 class$varM{@Term} 
02:0007ED9C class$varM{@Term}$vtable$ 
--- From 'obj\event.D92D3A63.obj'
02:0007F030 class$event7{@Type1,@Type2,@Type3,@Type4,@Type5,@Type6,@Type7} 
02:0007F600 class$event7{@Type1,@Type2,@Type3,@Type4,@Type5,@Type6,@Type7}$vtable$ 
02:0007FC50 class$event6{@Type1,@Type2,@Type3,@Type4,@Type5,@Type6} 
02:0008015C class$event6{@Type1,@Type2,@Type3,@Type4,@Type5,@Type6}$vtable$ 
02:00080720 class$event5{@Type1,@Type2,@Type3,@Type4,@Type5} 
02:00080B74 class$event5{@Type1,@Type2,@Type3,@Type4,@Type5}$vtable$ 
02:000810B0 class$event4{@Type1,@Type2,@Type3,@Type4} 
02:000814B4 class$event4{@Type1,@Type2,@Type3,@Type4}$vtable$ 
02:000819B0 class$event3{@Type1,@Type2,@Type3} 
02:00081D64 class$event3{@Type1,@Type2,@Type3}$vtable$ 
02:00082230 class$event2{@Type1,@Type2} 
02:00082594 class$event2{@Type1,@Type2}$vtable$ 
02:00082A20 class$event1{@Type1} 
02:00082D34 class$event1{@Type1}$vtable$ 
02:00083190 class$event0 
02:0008340C class$event0$vtable$ 
--- From 'obj\exceptiondump.2B9C9E40.obj'
02:000837A0 class$exceptionDump 
--- From 'obj\main.789E136F.obj'
02:00083850 class$_builtIn 
--- From 'obj\time_api.0FD0D46D.obj'
02:00083880 $integer$_builtIn_class$0$domain$ 
--- From 'obj\console.E8EB4F3C.obj'
02:000838A0 $unsigned$_builtIn_class$0$domain$ 
--- From 'obj\time_api.0FD0D46D.obj'
02:000838C0 $real$_builtIn_class$0$domain$ 
--- From 'obj\main.789E136F.obj'
02:000838EC $real32$_builtIn_class$0$domain$ 
02:00083918 $$byte$_builtIn_class$0$domain$ 
02:00083938 $string$_builtIn_class$0$domain$ 
02:0008394C $symbol$_builtIn_class$0$domain$ 
02:00083960 $string8$_builtIn_class$0$domain$ 
02:00083974 $char$_builtIn_class$0$domain$ 
02:00083988 $binary$_builtIn_class$0$domain$ 
02:000839A0 $binaryNonAtomic$_builtIn_class$0$domain$ 
02:000839B8 $pointer$_builtIn_class$0$domain$ 
02:000839CC $handle$_builtIn_class$0$domain$ 
02:000839E0 $factdb$_builtIn_class$0$domain$ 
02:000839F4 $...$_builtIn_class$0$domain$ 
--- From 'obj\inputsupport_mode.ADC075EF.obj'
02:00083A08 $integer64$_builtIn_class$0$domain$ 
--- From 'obj\time_api.0FD0D46D.obj'
02:00083A30 $unsigned64$_builtIn_class$0$domain$ 
--- From 'obj\main.789E136F.obj'
02:00083A58 $any$_builtIn_class$0$domain$ 
02:00083A6C $integerNative$_builtIn_class$0$domain$ 
--- From 'obj\reflection.ACE59E5C.obj'
02:00083A8C $unsignedNative$_builtIn_class$0$domain$ 
--- From 'obj\collectionmsupport.3A44ED4E.obj'
02:00083AE4 $*$_builtIn_class$1$domain$ 
--- From 'obj\main.789E136F.obj'
02:00083B18 $_someType$_builtIn_class$0$domain$ 
02:00083B4E $boolean$_builtIn_class$0$domain$ 
02:00083B92 $compareResult$_builtIn_class$0$domain$ 
--- From 'obj\time_api.0FD0D46D.obj'
02:00083BCC $$inline_1$_builtIn_class$1$domain$ 
--- From 'obj\collectionmsupport.3A44ED4E.obj'
02:00083E10 class$_global 
--- From 'obj\main.789E136F.obj'
02:00083E50 class$main 
--- From 'obj\registry.917E8C91.obj'
02:00083EA0 class$registry_exception 
02:00083F40 class$registry 
02:00083FC2 $rootKey$registry_class$0$domain$ 
02:0008401A $registryView$registry_class$0$domain$ 
--- From 'obj\time.6AFD2988.obj'
02:000841B0 class$timeFormatter 
02:0008444C class$timeFormatter$vtable$ 
02:000847A0 class$time_exception 
02:00084830 class$time 
02:00084878 $gmtTimeFunction$time_class$0$domain$ 
02:0008497C class$time$vtable$ 
02:00084BC0 class$duration 
02:00084C34 class$duration$vtable$ 
02:00084D10 class$calendarDuration 
02:00084E24 class$calendarDuration$vtable$ 
--- From 'obj\memory_api.F938D1EE.obj'
02:00084F60 class$memory_native 
02:00084FE4 $memory_basic_information$memory_native_class$0$domain$ 
02:00085080 $memoryStatusEx$memory_native_class$0$domain$ 
02:0008510C $process_memory_counters$memory_native_class$0$domain$ 
02:00085220 class$memory_api 
02:000852BC $garbageCollectorStatistics$memory_api_class$0$domain$ 
--- From 'obj\systeminformation_api.2864B3DF.obj'
02:00085380 class$systemInformation_native 
02:00085440 $system_Info$systemInformation_native_class$0$domain$ 
02:000854C8 $osVersionInfo$systemInformation_native_class$0$domain$ 
02:00085580 $osVersionInfoEX$systemInformation_native_class$0$domain$ 
02:00085680 $nonclientMetricsXP$systemInformation_native_class$0$domain$ 
02:0008578C $nonclientMetrics$systemInformation_native_class$0$domain$ 
02:000857C0 $$inline_128$systemInformation_native_class$1$domain$ 
02:00085950 class$systemInformation_api 
--- From 'obj\segmented_binary.C16992E7.obj'
02:00085AC0 class$segmented_binary 
02:00085B3C class$segmented_binary$vtable$ 
--- From 'obj\mapmsupport.8CD6C048.obj'
02:00085C70 class$collectionSupport\mapMSupport{@Key,@Data} 
02:00086024 class$collectionSupport\mapMSupport{@Key,@Data}$vtable$ 
--- From 'obj\mapsupport.59C06C8E.obj'
02:00086300 class$collectionSupport\mapSupport{@Key,@Data} 
02:0008645C class$collectionSupport\mapSupport{@Key,@Data}$vtable$ 
--- From 'obj\collectionmsupport.3A44ED4E.obj'
02:00086680 class$collectionSupport\collectionSupport{@Type} 
02:00086734 class$collectionSupport\collectionSupport{@Type}$vtable$ 
02:000868F0 class$collectionSupport\modifiableSupport{@Type} 
02:000869A4 class$collectionSupport\modifiableSupport{@Type}$vtable$ 
--- From 'obj\redblacktree.401E21A0.obj'
02:00086B70 class$redBlackTree 
02:00086BE0 $tree$redBlackTree_class$2$domain$ 
--- From 'obj\redblacktreerep.E6A269FA.obj'
02:00086D70 class$redBlackTreeRep 
02:00086E40 $treeRep$redBlackTreeRep_class$2$domain$ 
02:00086E8A $uniqueKey$redBlackTreeRep_class$0$domain$ 
02:00086EE4 $treeProperty$redBlackTreeRep_class$1$domain$ 
--- From 'obj\weakreference.0A1AF11C.obj'
02:00087100 class$weakReference{@Type} 
02:000871CC class$weakReference{@Type}$vtable$ 
--- From 'obj\console.E8EB4F3C.obj'
02:00087338 class$outputStreamSupport 
02:000874B4 class$outputStreamSupport$vtable$ 
--- From 'obj\binary.248EF86D.obj'
02:00087790 class$outputStreamSegmentedSupport{@Segment} 
02:00087B78 class$outputStreamSegmentedSupport{@Segment}$vtable$ 
--- From 'obj\segmentedsupport.2BAFE67D.obj'
02:00087ED0 class$segmentedSupport{@Segment} 
02:00087F84 class$segmentedSupport{@Segment}$vtable$ 
02:00088130 class$segmentedIterator{@Segment} 
02:000882A0 class$segmentedIterator{@Segment}$vtable$ 
--- From 'obj\iterator.60C55021.obj'
02:00088470 class$iterator{@Elem} 
02:000885C4 class$iterator{@Elem}$vtable$ 
--- From 'obj\string_api.EE567466.obj'
02:00088770 class$string_native 
--- From 'obj\binary.248EF86D.obj'
02:00088820 class$outputStream_binary 
02:00088CF4 class$outputStream_binary$vtable$  (Idle)
02:00088F40 class$inputStream_binary 
02:00089300 class$inputStream_binary$vtable$  (Idle)
02:00089560 class$binary_exception 
02:000895F0 class$binary 
--- From 'obj\filesystem.5B0F823E.obj'
02:00089660 class$outputStream_file 
02:00089B0C class$outputStream_file$vtable$  (Idle)
02:00089DF0 class$messageFile 
02:00089FE4 class$messageFile$vtable$ 
02:0008A2A0 class$inputStream_file 
02:0008A67C class$inputStream_file$vtable$  (Idle)
02:0008A8A0 class$fileVersion 
02:0008A90C $versionInformation$fileVersion_class$0$domain$ 
02:0008A970 $fileVersionInformation$fileVersion_class$0$domain$ 
02:0008AC60 class$fileSystem_exception 
02:0008AD10 class$filename 
02:0008AD90 class$file 
02:0008ADEE $overwrite$file_class$0$domain$ 
02:0008AEA0 class$directory 
02:0008AF16 $volumeType$directory_class$0$domain$ 
--- From 'obj\inputsupport_mode.ADC075EF.obj'
02:0008B000 class$inputSupport_mode 
02:0008B4A0 class$inputSupport_mode$vtable$ 
--- From 'obj\setm_redblack.16EF8DC5.obj'
02:0008B7A0 class$setM_redBlack{@Type} 
02:0008BB3C class$setM_redBlack{@Type}$vtable$  (Idle)
--- From 'obj\criticalsectionsupport.56CDFDBE.obj'
02:0008BE70 class$criticalSectionSupport 
02:0008BEE4 class$criticalSectionSupport$vtable$ 
--- From 'obj\commandlineparser.67E728BA.obj'
02:0008C030 class$commandLineParser 
02:0008C3B8 class$commandLineParser$vtable$ 
--- From 'obj\console.E8EB4F3C.obj'
02:0008C7E0 class$outputStream_console 
02:0008CC14 class$outputStream_console$vtable$  (Idle)
02:0008CEC0 class$inputStream_console 
02:0008D2C0 class$inputStream_console$vtable$  (Idle)
02:0008D540 class$console 
02:0008D674 $event$console_class$0$domain$ 
--- From 'obj\core.5D9B9483.obj'
02:0008D810 class$core 
02:0008D850 $unit$core_class$0$domain$ 
02:0008D870 $unsigned8$core_class$0$domain$ 
02:0008D890 $unsigned16$core_class$0$domain$ 
02:0008D8DC $unsigned64_struct$core_class$0$domain$ 
02:0008D8FC $integer8$core_class$0$domain$ 
02:0008D91C $integer16$core_class$0$domain$ 
--- From 'obj\memory.568C55F8.obj'
02:0008D968 $integer64_struct$core_class$0$domain$ 
--- From 'obj\time_api.0FD0D46D.obj'
02:0008DC60 $value$core_class$0$domain$ 
02:0008DCEC $namedValue$core_class$1$domain$ 
--- From 'obj\core.5D9B9483.obj'
02:0008DD0C $gmtTimeValue$core_class$0$domain$ 
02:0008DD34 $localTimeValue$core_class$0$domain$ 
02:0008DD90 $exception$core_class$0$domain$ 
02:0008DE40 $nativeGuid$core_class$0$domain$ 
02:0008DE60 $hResult$core_class$0$domain$ 
02:0008DE80 $byteCountOptional$core_class$0$domain$ 
--- From 'obj\windowsapi.AA084B33.obj'
02:0008DEA0 $byteCount$core_class$0$domain$ 
--- From 'obj\core.5D9B9483.obj'
02:0008DEC0 $charCountOptional$core_class$0$domain$ 
--- From 'obj\windowsapi.AA084B33.obj'
02:0008DEE0 $charCount$core_class$0$domain$ 
--- From 'obj\reflection.ACE59E5C.obj'
02:0008DF00 $positiveOptional$core_class$0$domain$ 
--- From 'obj\exe_api.A246601B.obj'
02:0008DF20 $positive$core_class$0$domain$ 
--- From 'obj\time_api.0FD0D46D.obj'
02:0008DF58 $tuple$core_class$2$domain$ 
--- From 'obj\core.5D9B9483.obj'
02:0008DF94 $tuple$core_class$3$domain$ 
02:0008DFD4 $tuple$core_class$4$domain$ 
02:0008E018 $tuple$core_class$5$domain$ 
02:0008E060 $tuple$core_class$6$domain$ 
02:0008E0AC $tuple$core_class$7$domain$ 
02:0008E0FC $tuple$core_class$8$domain$ 
02:0008E150 $tuple$core_class$9$domain$ 
02:0008E1A8 $tuple$core_class$10$domain$ 
02:0008E204 $tuple$core_class$11$domain$ 
02:0008E264 $tuple$core_class$12$domain$ 
--- From 'obj\collectionmsupport.3A44ED4E.obj'
02:0008E2B8 $optional$core_class$1$domain$ 
--- From 'obj\core.5D9B9483.obj'
02:0008E314 $either$core_class$2$domain$ 
--- From 'obj\presenter.E6E77556.obj'
02:0008E350 $function$core_class$1$domain$ 
--- From 'obj\core.5D9B9483.obj'
02:0008E398 $function$core_class$2$domain$ 
02:0008E3F0 $function$core_class$3$domain$ 
02:0008E458 $function$core_class$4$domain$ 
02:0008E4D0 $function$core_class$5$domain$ 
02:0008E558 $function$core_class$6$domain$ 
02:0008E5F0 $function$core_class$7$domain$ 
02:0008E698 $function$core_class$8$domain$ 
02:0008E750 $function$core_class$9$domain$ 
02:0008E818 $function$core_class$10$domain$ 
02:0008E8F0 $function$core_class$11$domain$ 
02:0008E928 $function_dt$core_class$1$domain$ 
02:0008E970 $function_dt$core_class$2$domain$ 
02:0008E9C8 $function_dt$core_class$3$domain$ 
02:0008EA30 $function_dt$core_class$4$domain$ 
02:0008EAA8 $function_dt$core_class$5$domain$ 
02:0008EB30 $function_dt$core_class$6$domain$ 
02:0008EBC8 $function_dt$core_class$7$domain$ 
02:0008EC70 $function_dt$core_class$8$domain$ 
02:0008ED28 $function_dt$core_class$9$domain$ 
02:0008EDF0 $function_dt$core_class$10$domain$ 
02:0008EEC8 $function_dt$core_class$11$domain$ 
--- From 'obj\presenter.E6E77556.obj'
02:0008EF00 $function_nd$core_class$1$domain$ 
--- From 'obj\core.5D9B9483.obj'
02:0008EF48 $function_nd$core_class$2$domain$ 
02:0008EFA0 $function_nd$core_class$3$domain$ 
02:0008F008 $function_nd$core_class$4$domain$ 
02:0008F080 $function_nd$core_class$5$domain$ 
02:0008F108 $function_nd$core_class$6$domain$ 
02:0008F1A0 $function_nd$core_class$7$domain$ 
02:0008F248 $function_nd$core_class$8$domain$ 
02:0008F300 $function_nd$core_class$9$domain$ 
02:0008F3C8 $function_nd$core_class$10$domain$ 
02:0008F4A0 $function_nd$core_class$11$domain$ 
02:0008F4C8 $predicate$core_class$0$domain$ 
--- From 'obj\presenter.E6E77556.obj'
02:0008F500 $predicate$core_class$1$domain$ 
--- From 'obj\core.5D9B9483.obj'
02:0008F548 $predicate$core_class$2$domain$ 
02:0008F5A0 $predicate$core_class$3$domain$ 
02:0008F608 $predicate$core_class$4$domain$ 
02:0008F680 $predicate$core_class$5$domain$ 
02:0008F708 $predicate$core_class$6$domain$ 
02:0008F7A0 $predicate$core_class$7$domain$ 
02:0008F848 $predicate$core_class$8$domain$ 
02:0008F900 $predicate$core_class$9$domain$ 
02:0008F9C8 $predicate$core_class$10$domain$ 
02:0008F9F0 $predicate_dt$core_class$0$domain$ 
02:0008FA28 $predicate_dt$core_class$1$domain$ 
02:0008FA70 $predicate_dt$core_class$2$domain$ 
02:0008FAC8 $predicate_dt$core_class$3$domain$ 
02:0008FB30 $predicate_dt$core_class$4$domain$ 
02:0008FBA8 $predicate_dt$core_class$5$domain$ 
02:0008FC30 $predicate_dt$core_class$6$domain$ 
02:0008FCC8 $predicate_dt$core_class$7$domain$ 
02:0008FD70 $predicate_dt$core_class$8$domain$ 
02:0008FE28 $predicate_dt$core_class$9$domain$ 
02:0008FEF0 $predicate_dt$core_class$10$domain$ 
02:0008FF18 $predicate_nd$core_class$0$domain$ 
02:0008FF50 $predicate_nd$core_class$1$domain$ 
02:0008FF98 $predicate_nd$core_class$2$domain$ 
02:0008FFF0 $predicate_nd$core_class$3$domain$ 
02:00090058 $predicate_nd$core_class$4$domain$ 
02:000900D0 $predicate_nd$core_class$5$domain$ 
02:00090158 $predicate_nd$core_class$6$domain$ 
02:000901F0 $predicate_nd$core_class$7$domain$ 
02:00090298 $predicate_nd$core_class$8$domain$ 
02:00090350 $predicate_nd$core_class$9$domain$ 
02:00090418 $predicate_nd$core_class$10$domain$ 
02:00090440 $runnable$core_class$0$domain$ 
--- From 'obj\redblackset.DC1C3622.obj'
02:00090498 $comparator$core_class$1$domain$ 
--- From 'obj\core.5D9B9483.obj'
02:000904F0 $comparator$core_class$2$domain$ 
02:00090526 $sortOrder$core_class$0$domain$ 
02:0009057C $sourceCursor$core_class$0$domain$ 
02:0009059C $packedCursor$core_class$0$domain$ 
02:000905F0 $programPoint$core_class$0$domain$ 
02:00090610 $hScopeDescriptor$core_class$0$domain$ 
02:0009063A $allowBoolean$core_class$0$domain$ 
02:00090672 $defaultActionBoolean$core_class$0$domain$ 
--- From 'obj\segmented.E9C86B20.obj'
02:000906C0 $binary2$core_class$0$domain$ 
--- From 'obj\core.5D9B9483.obj'
02:00090728 $arguments$core_class$0$domain$ 
--- From 'obj\presenter.E6E77556.obj'
02:00090D50 class$presenter 
02:00090DA8 $presenter$presenter_class$1$domain$ 
02:00090DE0 $presenter$presenter_class$0$domain$ 
02:00090F14 $presentation$presenter_class$0$domain$ 
02:00090FAC $subPresenter$presenter_class$0$domain$ 
02:00090FE8 $sequencePresenter$presenter_class$0$domain$ 
--- From 'obj\segmented.E9C86B20.obj'
02:000910BC $fieldPresentation$presenter_class$0$domain$ 
02:0009113C $subPresentation$presenter_class$1$domain$ 
--- From 'obj\presenter.E6E77556.obj'
02:00091178 $fieldPresenter$presenter_class$0$domain$ 
02:000911CC $functorDescr$presenter_class$0$domain$ 
02:0009120E $presentDebugResult$presenter_class$0$domain$ 
02:0009126C $excludedDomainChecker$presenter_class$0$domain$ 
--- From 'obj\exception.B6F320E8.obj'
02:00091840 class$runtime_exception 
02:000918E0 class$exception_exception 
02:00091990 class$exception 
02:000919D6 $kind$exception_class$0$domain$ 
02:00091A2C $programPointDescriptor$exception_class$0$domain$ 
02:00091ABC $descriptor$exception_class$0$domain$ 
02:00091B20 $traceInfo$exception_class$0$domain$ 
02:00091BA8 $lineInfo$exception_class$0$domain$ 
02:00091BD4 $raiser$exception_class$0$domain$ 
02:00091E20 class$errorDescriptorInformation 
02:00091F74 class$errorDescriptorInformation$vtable$ 
--- From 'obj\programcontrol.2B27F1CB.obj'
02:00092160 class$programControl 
02:000921A8 $exceptionRaiser$programControl_class$0$domain$ 
--- From 'obj\reflection.ACE59E5C.obj'
02:000922A0 class$pfc\reflection\reflection_native 
02:000922FC $anyTermValue$pfc\reflection\reflection_native_class$0$domain$ 
02:00092348 $factDbValue$pfc\reflection\reflection_native_class$0$domain$ 
02:00092394 $prologPredicateValue$pfc\reflection\reflection_native_class$0$domain$ 
02:000923F0 $presenterDescriptor$pfc\reflection\reflection_native_class$0$domain$ 
02:00092474 $predicateOrFunctionCallDescriptor$pfc\reflection\reflection_native_class$0$domain$ 
02:000924CE $returnKind$pfc\reflection\reflection_native_class$0$domain$ 
02:00092538 $viewDescriptor$pfc\reflection\reflection_native_class$0$domain$ 
02:0009258C $viewDescriptorTableHeader$pfc\reflection\reflection_native_class$0$domain$ 
02:00092614 $objectStructure$pfc\reflection\reflection_native_class$0$domain$ 
02:00092980 class$pfc\reflection\reflection 
02:00092ACE $typeKind$pfc\reflection\reflection_class$0$domain$ 
02:00092B8E $predicateMode$pfc\reflection\reflection_class$0$domain$ 
02:00092BC0 $functor$pfc\reflection\reflection_class$0$domain$ 
02:00092C26 $callingConvention$pfc\reflection\reflection_class$0$domain$ 
02:00092C7A $argumentFlow$pfc\reflection\reflection_class$0$domain$ 
--- From 'obj\collectionmsupport.3A44ED4E.obj'
02:00092D78 $argumentLibraryDescriptor$pfc\reflection\reflection_class$2$domain$ 
--- From 'obj\stream.8B55AAA7.obj'
02:00093320 class$streamExtension 
02:000933B0 class$stream_exception 
02:00093440 class$stdioState 
02:000934F4 class$stdioState$vtable$ 
02:00093630 class$stdio 
02:00093700 class$outputStream_null 
02:00093774 class$outputStream_null$vtable$ 
02:000938B0 class$inputStream_null 
02:00093924 class$inputStream_null$vtable$ 
--- From 'obj\segmented.E9C86B20.obj'
02:00093A70 class$segmented 
02:00093B7C $segmented$segmented_class$1$domain$ 
02:00093BC4 $segmented_utf16$segmented_class$0$domain$ 
--- From 'obj\inputstreamsupport.7AF62102.obj'
02:00093D00 class$inputSupport 
02:00093DD4 class$inputSupport$vtable$ 
--- From 'obj\console_api.316E7EC3.obj'
02:00093F50 class$console_native 
02:00093FB8 $coord$console_native_class$0$domain$ 
02:0009404C $consoleScreenBufferInfo$console_native_class$0$domain$ 
02:000940A4 $char_info$console_native_class$0$domain$ 
02:00094110 $small_rect$console_native_class$0$domain$ 
02:00094190 $key_event_record$console_native_class$0$domain$ 
02:00094204 $mouse_event_record$console_native_class$0$domain$ 
02:0009424C $handlerRoutine$console_native_class$0$domain$ 
02:000943E0 class$console_api 
--- From 'obj\exe_api.A246601B.obj'
02:00094480 class$exe_native 
02:00094510 class$exe_api 
02:00094562 $runMode$exe_api_class$0$domain$ 
02:000945B6 $coInit$exe_api_class$0$domain$ 
--- From 'obj\filesystem_api.DE0803A2.obj'
02:000946F0 class$lZ_fileSystem_native 
02:00094780 $ofStruct$lZ_fileSystem_native_class$0$domain$ 
02:00094850 class$fileSystem_native 
02:00094920 $fileInfo$fileSystem_native_class$0$domain$ 
02:000949B8 $fileAttributesInfo$fileSystem_native_class$0$domain$ 
02:00094A88 $win32_find_data$fileSystem_native_class$0$domain$ 
02:00094B96 $file_info_by_handle_class$fileSystem_native_class$0$domain$ 
02:00094C38 $fileIOCompletionRoutine$fileSystem_native_class$0$domain$ 
02:00094C9E $fileAction$fileSystem_native_class$0$domain$ 
02:00094D24 $file_notify_information$fileSystem_native_class$0$domain$ 
02:00094D90 $overlapped$fileSystem_native_class$0$domain$ 
02:00094EB8 $openFilename$fileSystem_native_class$0$domain$ 
02:00094F20 $oFNHookProc$fileSystem_native_class$0$domain$ 
02:00094F6C $use_info_0$fileSystem_native_class$0$domain$ 
02:00094FA0 $$inline_260$fileSystem_native_class$1$domain$ 
02:00094FD4 $$inline_14$fileSystem_native_class$1$domain$ 
02:00095660 class$fileSystem_api 
02:000956FA $fileAttributeAtom$fileSystem_api_class$0$domain$ 
